---
triple:          'arm64-apple-darwin'
binary-path:     ciphers_tests
relocations:
  - { offset: 0x3B, size: 0x8, addend: 0x0, symName: _.str, symObjAddr: 0x1D8720, symBinAddr: 0x10032C7E0, symSize: 0x0 }
  - { offset: 0x6B, size: 0x8, addend: 0x0, symName: _.str.1, symObjAddr: 0x1D8760, symBinAddr: 0x10032C820, symSize: 0x0 }
  - { offset: 0x93, size: 0x8, addend: 0x0, symName: __ZN12_GLOBAL__N_127CaesarDec_RotVec_Empty_Test10test_info_E, symObjAddr: 0x7E3E80, symBinAddr: 0x1005F0700, symSize: 0x0 }
  - { offset: 0x15F, size: 0x8, addend: 0x0, symName: __ZN12_GLOBAL__N_129CaesarDec_RotVec_OneElem_Test10test_info_E, symObjAddr: 0x7E3EA0, symBinAddr: 0x1005F0720, symSize: 0x0 }
  - { offset: 0x22B, size: 0x8, addend: 0x0, symName: __ZN12_GLOBAL__N_135CaesarDec_RotVec_MultipleElems_Test10test_info_E, symObjAddr: 0x7E3EC0, symBinAddr: 0x1005F0740, symSize: 0x0 }
  - { offset: 0x2F7, size: 0x8, addend: 0x0, symName: __ZN12_GLOBAL__N_125CaesarDec_Clean_Case_Test24gtest_registering_dummy_E, symObjAddr: 0x7E3EE0, symBinAddr: 0x1005F0760, symSize: 0x0 }
  - { offset: 0x3B6, size: 0x8, addend: 0x0, symName: __ZN12_GLOBAL__N_128gtest_CaesarDec_Clean_dummy_E, symObjAddr: 0x7E3F00, symBinAddr: 0x1005F0780, symSize: 0x0 }
  - { offset: 0x3C9, size: 0x8, addend: 0x0, symName: __ZN12_GLOBAL__N_131CaesarDec_SplitSpaces_Case_Test24gtest_registering_dummy_E, symObjAddr: 0x7E3F20, symBinAddr: 0x1005F07A0, symSize: 0x0 }
  - { offset: 0x488, size: 0x8, addend: 0x0, symName: __ZN12_GLOBAL__N_134gtest_CaesarDec_SplitSpaces_dummy_E, symObjAddr: 0x7E3F40, symBinAddr: 0x1005F07C0, symSize: 0x0 }
  - { offset: 0x49B, size: 0x8, addend: 0x0, symName: __ZN12_GLOBAL__N_134CaesarDec_JoinWithSpaces_Case_Test24gtest_registering_dummy_E, symObjAddr: 0x7E3F60, symBinAddr: 0x1005F07E0, symSize: 0x0 }
  - { offset: 0x55A, size: 0x8, addend: 0x0, symName: __ZN12_GLOBAL__N_137gtest_CaesarDec_JoinWithSpaces_dummy_E, symObjAddr: 0x7E3F80, symBinAddr: 0x1005F0800, symSize: 0x0 }
  - { offset: 0x56D, size: 0x8, addend: 0x0, symName: __ZN12_GLOBAL__N_130CaesarDec_NumWordsIn_Case_Test24gtest_registering_dummy_E, symObjAddr: 0x7E3FA0, symBinAddr: 0x1005F0820, symSize: 0x0 }
  - { offset: 0x62C, size: 0x8, addend: 0x0, symName: __ZN12_GLOBAL__N_133gtest_CaesarDec_NumWordsIn_dummy_E, symObjAddr: 0x7E3FC0, symBinAddr: 0x1005F0840, symSize: 0x0 }
  - { offset: 0x645, size: 0x8, addend: 0x0, symName: __ZN12_GLOBAL__N_111NO_GOOD_DECE, symObjAddr: 0x7E3FE0, symBinAddr: 0x1005F0860, symSize: 0x0 }
  - { offset: 0x658, size: 0x8, addend: 0x0, symName: __ZN12_GLOBAL__N_137CaesarDec_CustomDictCommand_Case_Test24gtest_registering_dummy_E, symObjAddr: 0x7E4020, symBinAddr: 0x1005F08A0, symSize: 0x0 }
  - { offset: 0x720, size: 0x8, addend: 0x0, symName: __ZN12_GLOBAL__N_140gtest_CaesarDec_CustomDictCommand_dummy_E, symObjAddr: 0x7E4040, symBinAddr: 0x1005F08C0, symSize: 0x0 }
  - { offset: 0x733, size: 0x8, addend: 0x0, symName: __ZN12_GLOBAL__N_139CaesarDec_FullDictMainCommand_Case_Test24gtest_registering_dummy_E, symObjAddr: 0x7E4060, symBinAddr: 0x1005F08E0, symSize: 0x0 }
  - { offset: 0x7FC, size: 0x8, addend: 0x0, symName: __ZN12_GLOBAL__N_142gtest_CaesarDec_FullDictMainCommand_dummy_E, symObjAddr: 0x7E4080, symBinAddr: 0x1005F0900, symSize: 0x0 }
  - { offset: 0x809, size: 0x8, addend: 0x0, symName: __ZN12_GLOBAL__N_136gtest_CaesarDec_Clean_EvalGenerator_Ev, symObjAddr: 0x20E8, symBinAddr: 0x1000038D4, symSize: 0x0 }
  - { offset: 0x826, size: 0x8, addend: 0x0, symName: __ZN12_GLOBAL__N_139gtest_CaesarDec_Clean_EvalGenerateName_ERKN7testing13TestParamInfoINSt3__15tupleIJNS2_12basic_stringIcNS2_11char_traitsIcEENS2_9allocatorIcEEEES9_EEEEE, symObjAddr: 0x2360, symBinAddr: 0x100003B4C, symSize: 0x0 }
  - { offset: 0x86B, size: 0x8, addend: 0x0, symName: __ZN12_GLOBAL__N_142gtest_CaesarDec_SplitSpaces_EvalGenerator_Ev, symObjAddr: 0x3AFC, symBinAddr: 0x1000052E8, symSize: 0x0 }
  - { offset: 0x888, size: 0x8, addend: 0x0, symName: __ZN12_GLOBAL__N_145gtest_CaesarDec_SplitSpaces_EvalGenerateName_ERKN7testing13TestParamInfoINSt3__15tupleIJNS2_12basic_stringIcNS2_11char_traitsIcEENS2_9allocatorIcEEEENS2_6vectorIS9_NS7_IS9_EEEEEEEEE, symObjAddr: 0x518C, symBinAddr: 0x100006978, symSize: 0x0 }
  - { offset: 0x8CD, size: 0x8, addend: 0x0, symName: __ZN12_GLOBAL__N_145gtest_CaesarDec_JoinWithSpaces_EvalGenerator_Ev, symObjAddr: 0x7CD4, symBinAddr: 0x1000094C0, symSize: 0x0 }
  - { offset: 0x8EA, size: 0x8, addend: 0x0, symName: __ZN12_GLOBAL__N_148gtest_CaesarDec_JoinWithSpaces_EvalGenerateName_ERKN7testing13TestParamInfoINSt3__15tupleIJNS2_6vectorINS2_12basic_stringIcNS2_11char_traitsIcEENS2_9allocatorIcEEEENS8_ISA_EEEESA_EEEEE, symObjAddr: 0x8A68, symBinAddr: 0x10000A254, symSize: 0x0 }
  - { offset: 0x92F, size: 0x8, addend: 0x0, symName: __ZN12_GLOBAL__N_141gtest_CaesarDec_NumWordsIn_EvalGenerator_Ev, symObjAddr: 0xACE8, symBinAddr: 0x10000C4D4, symSize: 0x0 }
  - { offset: 0x94C, size: 0x8, addend: 0x0, symName: __ZN12_GLOBAL__N_144gtest_CaesarDec_NumWordsIn_EvalGenerateName_ERKN7testing13TestParamInfoINSt3__15tupleIJNS2_6vectorINS2_12basic_stringIcNS2_11char_traitsIcEENS2_9allocatorIcEEEENS8_ISA_EEEESC_iEEEEE, symObjAddr: 0xC830, symBinAddr: 0x10000E01C, symSize: 0x0 }
  - { offset: 0x991, size: 0x8, addend: 0x0, symName: __ZN12_GLOBAL__N_148gtest_CaesarDec_CustomDictCommand_EvalGenerator_Ev, symObjAddr: 0xF884, symBinAddr: 0x100011070, symSize: 0x0 }
  - { offset: 0x9AE, size: 0x8, addend: 0x0, symName: __ZN12_GLOBAL__N_151gtest_CaesarDec_CustomDictCommand_EvalGenerateName_ERKN7testing13TestParamInfoINSt3__15tupleIJNS2_12basic_stringIcNS2_11char_traitsIcEENS2_9allocatorIcEEEENS2_6vectorIS9_NS7_IS9_EEEES9_S9_EEEEE, symObjAddr: 0x121A0, symBinAddr: 0x10001398C, symSize: 0x0 }
  - { offset: 0xA1A, size: 0x8, addend: 0x0, symName: __ZN12_GLOBAL__N_150gtest_CaesarDec_FullDictMainCommand_EvalGenerator_Ev, symObjAddr: 0x160BC, symBinAddr: 0x1000178A8, symSize: 0x0 }
  - { offset: 0xA38, size: 0x8, addend: 0x0, symName: __ZN12_GLOBAL__N_153gtest_CaesarDec_FullDictMainCommand_EvalGenerateName_ERKN7testing13TestParamInfoINSt3__15tupleIJNS2_12basic_stringIcNS2_11char_traitsIcEENS2_9allocatorIcEEEES9_S9_EEEEE, symObjAddr: 0x16564, symBinAddr: 0x100017D50, symSize: 0x0 }
  - { offset: 0x1225, size: 0x8, addend: 0x0, symName: __ZN7testing8internal31CanonicalizeForStdLibVersioningENSt3__112basic_stringIcNS1_11char_traitsIcEENS1_9allocatorIcEEEE, symObjAddr: 0x2AB8C, symBinAddr: 0x10002C378, symSize: 0x0 }
  - { offset: 0x124E, size: 0x8, addend: 0x0, symName: __ZZN7testing8internal31CanonicalizeForStdLibVersioningENSt3__112basic_stringIcNS1_11char_traitsIcEENS1_9allocatorIcEEEEE6prefix, symObjAddr: 0x1F201C, symBinAddr: 0x1003521FC, symSize: 0x0 }
  - { offset: 0x1263, size: 0x8, addend: 0x0, symName: __ZZN7testing8internal31CanonicalizeForStdLibVersioningENSt3__112basic_stringIcNS1_11char_traitsIcEENS1_9allocatorIcEEEEE9to_search, symObjAddr: 0x1F2024, symBinAddr: 0x100352204, symSize: 0x0 }
  - { offset: 0x1E7A, size: 0x8, addend: 0x0, symName: __ZN7testing8internal12TypeIdHelperIN12_GLOBAL__N_115CaesarDec_CleanEE6dummy_E, symObjAddr: 0x7E40A0, symBinAddr: 0x1005F0920, symSize: 0x0 }
  - { offset: 0x1EAE, size: 0x8, addend: 0x0, symName: __ZN7testing8internal12TypeIdHelperIN12_GLOBAL__N_121CaesarDec_SplitSpacesEE6dummy_E, symObjAddr: 0x7E40C0, symBinAddr: 0x1005F0940, symSize: 0x0 }
  - { offset: 0x1EE2, size: 0x8, addend: 0x0, symName: __ZN7testing8internal12TypeIdHelperIN12_GLOBAL__N_124CaesarDec_JoinWithSpacesEE6dummy_E, symObjAddr: 0x7E40E0, symBinAddr: 0x1005F0960, symSize: 0x0 }
  - { offset: 0x1F16, size: 0x8, addend: 0x0, symName: __ZN7testing8internal12TypeIdHelperIN12_GLOBAL__N_120CaesarDec_NumWordsInEE6dummy_E, symObjAddr: 0x7E4100, symBinAddr: 0x1005F0980, symSize: 0x0 }
  - { offset: 0x1F4A, size: 0x8, addend: 0x0, symName: __ZN7testing8internal12TypeIdHelperIN12_GLOBAL__N_127CaesarDec_CustomDictCommandEE6dummy_E, symObjAddr: 0x7E4120, symBinAddr: 0x1005F09A0, symSize: 0x0 }
  - { offset: 0x1F7E, size: 0x8, addend: 0x0, symName: __ZN7testing8internal12TypeIdHelperIN12_GLOBAL__N_129CaesarDec_FullDictMainCommandEE6dummy_E, symObjAddr: 0x7E4140, symBinAddr: 0x1005F09C0, symSize: 0x0 }
  - { offset: 0x7352, size: 0x8, addend: 0x0, symName: __ZN7testing8internal33MakePredicateFormatterFromMatcherINS_18PolymorphicMatcherINS0_14IsEmptyMatcherEEEEENS0_29PredicateFormatterFromMatcherIT_EES6_, symObjAddr: 0x18D48, symBinAddr: 0x10001A534, symSize: 0x0 }
  - { offset: 0x738A, size: 0x8, addend: 0x0, symName: __ZN7testing8internal20MatchPrintAndExplainIKNSt3__16vectorINS2_12basic_stringIcNS2_11char_traitsIcEENS2_9allocatorIcEEEENS7_IS9_EEEERSC_EEbRT_RKNS_7MatcherIT0_EEPNS_19MatchResultListenerE, symObjAddr: 0x1B724, symBinAddr: 0x10001CF10, symSize: 0x0 }
  - { offset: 0x75A9, size: 0x8, addend: 0x0, symName: __ZN7testing8internal14UniversalPrintINSt3__16vectorINS2_12basic_stringIcNS2_11char_traitsIcEENS2_9allocatorIcEEEENS7_IS9_EEEEEEvRKT_PNS2_13basic_ostreamIcS6_EE, symObjAddr: 0x29048, symBinAddr: 0x10002A834, symSize: 0x0 }
  - { offset: 0x75EB, size: 0x8, addend: 0x0, symName: __ZN7testing8internal11GetTypeNameIKNSt3__16vectorINS2_12basic_stringIcNS2_11char_traitsIcEENS2_9allocatorIcEEEENS7_IS9_EEEEEES9_v, symObjAddr: 0x291C0, symBinAddr: 0x10002A9AC, symSize: 0x0 }
  - { offset: 0x7612, size: 0x8, addend: 0x0, symName: __ZN7testing8internal18IsReadableTypeNameERKNSt3__112basic_stringIcNS1_11char_traitsIcEENS1_9allocatorIcEEEE, symObjAddr: 0x291F4, symBinAddr: 0x10002A9E0, symSize: 0x0 }
  - { offset: 0x7640, size: 0x8, addend: 0x0, symName: __ZN7testing8internal15PrintIfNotEmptyERKNSt3__112basic_stringIcNS1_11char_traitsIcEENS1_9allocatorIcEEEEPNS1_13basic_ostreamIcS4_EE, symObjAddr: 0x292B0, symBinAddr: 0x10002AA9C, symSize: 0x0 }
  - { offset: 0x76A5, size: 0x8, addend: 0x0, symName: __ZN7testing8internal7PrintToINSt3__16vectorINS2_12basic_stringIcNS2_11char_traitsIcEENS2_9allocatorIcEEEENS7_IS9_EEEEEEvRKT_PNS2_13basic_ostreamIcS6_EE, symObjAddr: 0x2944C, symBinAddr: 0x10002AC38, symSize: 0x0 }
  - { offset: 0x76E7, size: 0x8, addend: 0x0, symName: __ZN7testing8internal17PrintWithFallbackINSt3__16vectorINS2_12basic_stringIcNS2_11char_traitsIcEENS2_9allocatorIcEEEENS7_IS9_EEEEEEvRKT_PNS2_13basic_ostreamIcS6_EE, symObjAddr: 0x294B8, symBinAddr: 0x10002ACA4, symSize: 0x0 }
  - { offset: 0x7753, size: 0x8, addend: 0x0, symName: __ZN7testing8internal14UniversalPrintINSt3__112basic_stringIcNS2_11char_traitsIcEENS2_9allocatorIcEEEEEEvRKT_PNS2_13basic_ostreamIcS5_EE, symObjAddr: 0x29F78, symBinAddr: 0x10002B764, symSize: 0x0 }
  - { offset: 0x77BF, size: 0x8, addend: 0x0, symName: __ZN7testing8internal7PrintToERKNSt3__112basic_stringIcNS1_11char_traitsIcEENS1_9allocatorIcEEEEPNS1_13basic_ostreamIcS4_EE, symObjAddr: 0x2A570, symBinAddr: 0x10002BD5C, symSize: 0x0 }
  - { offset: 0x77F8, size: 0x8, addend: 0x0, symName: __ZN7testing8internal11GetTypeNameERKSt9type_info, symObjAddr: 0x2A5DC, symBinAddr: 0x10002BDC8, symSize: 0x0 }
  - { offset: 0x786E, size: 0x8, addend: 0x0, symName: __ZN7testing8internal33MakePredicateFormatterFromMatcherINS0_9EqMatcherIPNSt3__112basic_stringIcNS3_11char_traitsIcEENS3_9allocatorIcEEEEEEEENS0_29PredicateFormatterFromMatcherIT_EESD_, symObjAddr: 0x33564, symBinAddr: 0x100034D50, symSize: 0x0 }
  - { offset: 0x78A6, size: 0x8, addend: 0x0, symName: __ZN7testing8internal33MakePredicateFormatterFromMatcherINS0_23ElementsAreArrayMatcherIPKcEEEENS0_29PredicateFormatterFromMatcherIT_EES7_, symObjAddr: 0x34720, symBinAddr: 0x100035F0C, symSize: 0x0 }
  - { offset: 0x78DF, size: 0x8, addend: 0x0, symName: __ZN7testing8internal20MatchPrintAndExplainIKPNSt3__112basic_stringIcNS2_11char_traitsIcEENS2_9allocatorIcEEEERSA_EEbRT_RKNS_7MatcherIT0_EEPNS_19MatchResultListenerE, symObjAddr: 0x3C030, symBinAddr: 0x10003D81C, symSize: 0x0 }
  - { offset: 0x7A11, size: 0x8, addend: 0x0, symName: __ZN7testing8internal14UniversalPrintIPNSt3__112basic_stringIcNS2_11char_traitsIcEENS2_9allocatorIcEEEEEEvRKT_PNS2_13basic_ostreamIcS5_EE, symObjAddr: 0x3E9C8, symBinAddr: 0x1000401B4, symSize: 0x0 }
  - { offset: 0x7A7F, size: 0x8, addend: 0x0, symName: __ZN7testing8internal7PrintToIPNSt3__112basic_stringIcNS2_11char_traitsIcEENS2_9allocatorIcEEEEEEvRKT_PNS2_13basic_ostreamIcS5_EE, symObjAddr: 0x3EAA0, symBinAddr: 0x10004028C, symSize: 0x0 }
  - { offset: 0x7AC1, size: 0x8, addend: 0x0, symName: __ZN7testing8internal17PrintWithFallbackIPNSt3__112basic_stringIcNS2_11char_traitsIcEENS2_9allocatorIcEEEEEEvRKT_PNS2_13basic_ostreamIcS5_EE, symObjAddr: 0x3EB0C, symBinAddr: 0x1000402F8, symSize: 0x0 }
  - { offset: 0x7B2C, size: 0x8, addend: 0x0, symName: __ZN7testing8internal11GetTypeNameIKPNSt3__112basic_stringIcNS2_11char_traitsIcEENS2_9allocatorIcEEEEEES8_v, symObjAddr: 0x403D0, symBinAddr: 0x100041BBC, symSize: 0x0 }
  - { offset: 0x7F60, size: 0x8, addend: 0x0, symName: __ZN7testing8internal33MakePredicateFormatterFromMatcherINS_18PolymorphicMatcherINS0_18StrEqualityMatcherINSt3__112basic_stringIcNS4_11char_traitsIcEENS4_9allocatorIcEEEEEEEEEENS0_29PredicateFormatterFromMatcherIT_EESE_, symObjAddr: 0x6A400, symBinAddr: 0x10006BBEC, symSize: 0x0 }
  - { offset: 0x7F99, size: 0x8, addend: 0x0, symName: __ZN7testing8internal20MatchPrintAndExplainIKNSt3__112basic_stringIcNS2_11char_traitsIcEENS2_9allocatorIcEEEERS9_EEbRT_RKNS_7MatcherIT0_EEPNS_19MatchResultListenerE, symObjAddr: 0x6C36C, symBinAddr: 0x10006DB58, symSize: 0x0 }
  - { offset: 0x80CB, size: 0x8, addend: 0x0, symName: __ZN7testing8internal27CaseInsensitiveStringEqualsINSt3__112basic_stringIcNS2_11char_traitsIcEENS2_9allocatorIcEEEEEEbRKT_SB_, symObjAddr: 0x6E69C, symBinAddr: 0x10006FE88, symSize: 0x0 }
  - { offset: 0x8143, size: 0x8, addend: 0x0, symName: __ZN7testing8internal28CaseInsensitiveCStringEqualsEPKcS2_, symObjAddr: 0x6EC24, symBinAddr: 0x100070410, symSize: 0x0 }
  - { offset: 0x8180, size: 0x8, addend: 0x0, symName: __ZN7testing8internal11GetTypeNameIKNSt3__112basic_stringIcNS2_11char_traitsIcEENS2_9allocatorIcEEEEEES8_v, symObjAddr: 0x728BC, symBinAddr: 0x1000740A8, symSize: 0x0 }
  - { offset: 0x81A7, size: 0x8, addend: 0x0, symName: __ZN7testing8internal27CheckedDowncastToActualTypeIKNS0_30ValuesInIteratorRangeGeneratorINSt3__15tupleIJNS3_12basic_stringIcNS3_11char_traitsIcEENS3_9allocatorIcEEEESA_EEEE8IteratorEKNS0_22ParamIteratorInterfaceISB_EEEEPT_PT0_, symObjAddr: 0x7F9D0, symBinAddr: 0x1000811BC, symSize: 0x0 }
  - { offset: 0x81E8, size: 0x8, addend: 0x0, symName: __ZN7testing8internal11AlwaysFalseEv, symObjAddr: 0x8517C, symBinAddr: 0x100086968, symSize: 0x0 }
  - { offset: 0x8206, size: 0x8, addend: 0x0, symName: __ZN7testing8internal12TestNotEmptyIFNSt3__112basic_stringIcNS2_11char_traitsIcEENS2_9allocatorIcEEEERKNS_13TestParamInfoINS2_5tupleIJS8_S8_EEEEEEEEvRKT_, symObjAddr: 0x8519C, symBinAddr: 0x100086988, symSize: 0x0 }
  - { offset: 0x8235, size: 0x8, addend: 0x0, symName: __ZN7testing8internal16DefaultParamNameINSt3__15tupleIJNS2_12basic_stringIcNS2_11char_traitsIcEENS2_9allocatorIcEEEES9_EEEEES9_RKNS_13TestParamInfoIT_EE, symObjAddr: 0x851B4, symBinAddr: 0x1000869A0, symSize: 0x0 }
  - { offset: 0x83BB, size: 0x8, addend: 0x0, symName: __ZN7testing8internal33MakePredicateFormatterFromMatcherINS0_23ElementsAreArrayMatcherINSt3__112basic_stringIcNS3_11char_traitsIcEENS3_9allocatorIcEEEEEEEENS0_29PredicateFormatterFromMatcherIT_EESC_, symObjAddr: 0x932C0, symBinAddr: 0x100094AAC, symSize: 0x0 }
  - { offset: 0x8530, size: 0x8, addend: 0x0, symName: __ZN7testing8internal27CheckedDowncastToActualTypeIKNS0_30ValuesInIteratorRangeGeneratorINSt3__15tupleIJNS3_12basic_stringIcNS3_11char_traitsIcEENS3_9allocatorIcEEEENS3_6vectorISA_NS8_ISA_EEEEEEEE8IteratorEKNS0_22ParamIteratorInterfaceISE_EEEEPT_PT0_, symObjAddr: 0xA66FC, symBinAddr: 0x1000A7EE8, symSize: 0x0 }
  - { offset: 0x8571, size: 0x8, addend: 0x0, symName: __ZN7testing8internal12TestNotEmptyIFNSt3__112basic_stringIcNS2_11char_traitsIcEENS2_9allocatorIcEEEERKNS_13TestParamInfoINS2_5tupleIJS8_NS2_6vectorIS8_NS6_IS8_EEEEEEEEEEEEvRKT_, symObjAddr: 0xAC210, symBinAddr: 0x1000AD9FC, symSize: 0x0 }
  - { offset: 0x85A0, size: 0x8, addend: 0x0, symName: __ZN7testing8internal16DefaultParamNameINSt3__15tupleIJNS2_12basic_stringIcNS2_11char_traitsIcEENS2_9allocatorIcEEEENS2_6vectorIS9_NS7_IS9_EEEEEEEEES9_RKNS_13TestParamInfoIT_EE, symObjAddr: 0xAC228, symBinAddr: 0x1000ADA14, symSize: 0x0 }
  - { offset: 0x8726, size: 0x8, addend: 0x0, symName: __ZN7testing8internal27CheckedDowncastToActualTypeIKNS0_30ValuesInIteratorRangeGeneratorINSt3__15tupleIJNS3_6vectorINS3_12basic_stringIcNS3_11char_traitsIcEENS3_9allocatorIcEEEENS9_ISB_EEEESB_EEEE8IteratorEKNS0_22ParamIteratorInterfaceISE_EEEEPT_PT0_, symObjAddr: 0xC70C4, symBinAddr: 0x1000C88B0, symSize: 0x0 }
  - { offset: 0x8767, size: 0x8, addend: 0x0, symName: __ZN7testing8internal12TestNotEmptyIFNSt3__112basic_stringIcNS2_11char_traitsIcEENS2_9allocatorIcEEEERKNS_13TestParamInfoINS2_5tupleIJNS2_6vectorIS8_NS6_IS8_EEEES8_EEEEEEEEvRKT_, symObjAddr: 0xCC970, symBinAddr: 0x1000CE15C, symSize: 0x0 }
  - { offset: 0x8796, size: 0x8, addend: 0x0, symName: __ZN7testing8internal16DefaultParamNameINSt3__15tupleIJNS2_6vectorINS2_12basic_stringIcNS2_11char_traitsIcEENS2_9allocatorIcEEEENS8_ISA_EEEESA_EEEEESA_RKNS_13TestParamInfoIT_EE, symObjAddr: 0xCC988, symBinAddr: 0x1000CE174, symSize: 0x0 }
  - { offset: 0x891C, size: 0x8, addend: 0x0, symName: __ZN7testing8internal33MakePredicateFormatterFromMatcherINS0_9EqMatcherIiEEEENS0_29PredicateFormatterFromMatcherIT_EES5_, symObjAddr: 0xD9A28, symBinAddr: 0x1000DB214, symSize: 0x0 }
  - { offset: 0x8954, size: 0x8, addend: 0x0, symName: __ZN7testing8internal20MatchPrintAndExplainIKiRS2_EEbRT_RKNS_7MatcherIT0_EEPNS_19MatchResultListenerE, symObjAddr: 0xDB7BC, symBinAddr: 0x1000DCFA8, symSize: 0x0 }
  - { offset: 0x8A86, size: 0x8, addend: 0x0, symName: __ZN7testing8internal14UniversalPrintIiEEvRKT_PNSt3__113basic_ostreamIcNS5_11char_traitsIcEEEE, symObjAddr: 0xDE1A4, symBinAddr: 0x1000DF990, symSize: 0x0 }
  - { offset: 0x8AF4, size: 0x8, addend: 0x0, symName: __ZN7testing8internal7PrintToIiEEvRKT_PNSt3__113basic_ostreamIcNS5_11char_traitsIcEEEE, symObjAddr: 0xDE27C, symBinAddr: 0x1000DFA68, symSize: 0x0 }
  - { offset: 0x8B36, size: 0x8, addend: 0x0, symName: __ZN7testing8internal17PrintWithFallbackIiEEvRKT_PNSt3__113basic_ostreamIcNS5_11char_traitsIcEEEE, symObjAddr: 0xDE2E8, symBinAddr: 0x1000DFAD4, symSize: 0x0 }
  - { offset: 0x8BA8, size: 0x8, addend: 0x0, symName: __ZN7testing8internal11GetTypeNameIKiEENSt3__112basic_stringIcNS3_11char_traitsIcEENS3_9allocatorIcEEEEv, symObjAddr: 0xDFBB4, symBinAddr: 0x1000E13A0, symSize: 0x0 }
  - { offset: 0x8BCF, size: 0x8, addend: 0x0, symName: __ZN7testing8internal27CheckedDowncastToActualTypeIKNS0_30ValuesInIteratorRangeGeneratorINSt3__15tupleIJNS3_6vectorINS3_12basic_stringIcNS3_11char_traitsIcEENS3_9allocatorIcEEEENS9_ISB_EEEESD_iEEEE8IteratorEKNS0_22ParamIteratorInterfaceISE_EEEEPT_PT0_, symObjAddr: 0xEC878, symBinAddr: 0x1000EE064, symSize: 0x0 }
  - { offset: 0x8C10, size: 0x8, addend: 0x0, symName: __ZN7testing8internal12TestNotEmptyIFNSt3__112basic_stringIcNS2_11char_traitsIcEENS2_9allocatorIcEEEERKNS_13TestParamInfoINS2_5tupleIJNS2_6vectorIS8_NS6_IS8_EEEESD_iEEEEEEEEvRKT_, symObjAddr: 0xF1A44, symBinAddr: 0x1000F3230, symSize: 0x0 }
  - { offset: 0x8C3F, size: 0x8, addend: 0x0, symName: __ZN7testing8internal16DefaultParamNameINSt3__15tupleIJNS2_6vectorINS2_12basic_stringIcNS2_11char_traitsIcEENS2_9allocatorIcEEEENS8_ISA_EEEESC_iEEEEESA_RKNS_13TestParamInfoIT_EE, symObjAddr: 0xF1A5C, symBinAddr: 0x1000F3248, symSize: 0x0 }
  - { offset: 0x8DC5, size: 0x8, addend: 0x0, symName: __ZN7testing8internal33MakePredicateFormatterFromMatcherINS_18PolymorphicMatcherINS0_16HasSubstrMatcherINSt3__112basic_stringIcNS4_11char_traitsIcEENS4_9allocatorIcEEEEEEEEEENS0_29PredicateFormatterFromMatcherIT_EESE_, symObjAddr: 0x101270, symBinAddr: 0x100102A5C, symSize: 0x0 }
  - { offset: 0x8DFE, size: 0x8, addend: 0x0, symName: __ZN7testing8internal33MakePredicateFormatterFromMatcherINS0_10NotMatcherINS_18PolymorphicMatcherINS0_16HasSubstrMatcherINSt3__112basic_stringIcNS5_11char_traitsIcEENS5_9allocatorIcEEEEEEEEEEEENS0_29PredicateFormatterFromMatcherIT_EESG_, symObjAddr: 0x1029EC, symBinAddr: 0x1001041D8, symSize: 0x0 }
  - { offset: 0x9BCB, size: 0x8, addend: 0x0, symName: __ZN7testing8internal27CheckedDowncastToActualTypeIKNS0_30ValuesInIteratorRangeGeneratorINSt3__15tupleIJNS3_12basic_stringIcNS3_11char_traitsIcEENS3_9allocatorIcEEEENS3_6vectorISA_NS8_ISA_EEEESA_SA_EEEE8IteratorEKNS0_22ParamIteratorInterfaceISE_EEEEPT_PT0_, symObjAddr: 0x118CB0, symBinAddr: 0x10011A49C, symSize: 0x0 }
  - { offset: 0x9C0C, size: 0x8, addend: 0x0, symName: '__ZN7testing8internal12TestNotEmptyIZN12_GLOBAL__N_151gtest_CaesarDec_CustomDictCommand_EvalGenerateName_ERKNS_13TestParamInfoINSt3__15tupleIJNS4_12basic_stringIcNS4_11char_traitsIcEENS4_9allocatorIcEEEENS4_6vectorISB_NS9_ISB_EEEESB_SB_EEEEEE3$_1EEvRKT_', symObjAddr: 0x11F8E4, symBinAddr: 0x1001210D0, symSize: 0x0 }
  - { offset: 0xA3BE, size: 0x8, addend: 0x0, symName: __ZN7testing8internal27CheckedDowncastToActualTypeIKNS0_30ValuesInIteratorRangeGeneratorINSt3__15tupleIJNS3_12basic_stringIcNS3_11char_traitsIcEENS3_9allocatorIcEEEESA_SA_EEEE8IteratorEKNS0_22ParamIteratorInterfaceISB_EEEEPT_PT0_, symObjAddr: 0x13C430, symBinAddr: 0x10013DC1C, symSize: 0x0 }
  - { offset: 0xA3FF, size: 0x8, addend: 0x0, symName: '__ZN7testing8internal12TestNotEmptyIZN12_GLOBAL__N_153gtest_CaesarDec_FullDictMainCommand_EvalGenerateName_ERKNS_13TestParamInfoINSt3__15tupleIJNS4_12basic_stringIcNS4_11char_traitsIcEENS4_9allocatorIcEEEESB_SB_EEEEEE3$_1EEvRKT_', symObjAddr: 0x14255C, symBinAddr: 0x100143D48, symSize: 0x0 }
  - { offset: 0xA42E, size: 0x8, addend: 0x0, symName: __ZN7testing8internal19GetNotDefaultOrNullEPFvvES2_, symObjAddr: 0x1436F0, symBinAddr: 0x100144EDC, symSize: 0x0 }
  - { offset: 0xA46B, size: 0x8, addend: 0x0, symName: __ZN7testing8internal9GetTypeIdIN12_GLOBAL__N_115CaesarDec_CleanEEEPKvv, symObjAddr: 0x143F28, symBinAddr: 0x100145714, symSize: 0x0 }
  - { offset: 0xA498, size: 0x8, addend: 0x0, symName: __ZN7testing8internal5posix5AbortEv, symObjAddr: 0x143F3C, symBinAddr: 0x100145728, symSize: 0x0 }
  - { offset: 0xA4B3, size: 0x8, addend: 0x0, symName: __ZN7testing8internal27CheckedDowncastToActualTypeINS0_26ParameterizedTestSuiteInfoIN12_GLOBAL__N_115CaesarDec_CleanEEENS0_30ParameterizedTestSuiteInfoBaseEEEPT_PT0_, symObjAddr: 0x143F70, symBinAddr: 0x10014575C, symSize: 0x0 }
  - { offset: 0xA548, size: 0x8, addend: 0x0, symName: __ZN7testing8internal7IsAlNumEc, symObjAddr: 0x1570D4, symBinAddr: 0x1001588C0, symSize: 0x0 }
  - { offset: 0xA5A2, size: 0x8, addend: 0x0, symName: __ZN7testing8internal14UniversalPrintINSt3__15tupleIJNS2_12basic_stringIcNS2_11char_traitsIcEENS2_9allocatorIcEEEES9_EEEEEvRKT_PNS2_13basic_ostreamIcS6_EE, symObjAddr: 0x15FEB8, symBinAddr: 0x1001616A4, symSize: 0x0 }
  - { offset: 0xA60E, size: 0x8, addend: 0x0, symName: __ZN7testing8internal7PrintToIJNSt3__112basic_stringIcNS2_11char_traitsIcEENS2_9allocatorIcEEEES8_EEEvRKNS2_5tupleIJDpT_EEEPNS2_13basic_ostreamIcS5_EE, symObjAddr: 0x15FF90, symBinAddr: 0x10016177C, symSize: 0x0 }
  - { offset: 0xA657, size: 0x8, addend: 0x0, symName: __ZN7testing8internal12PrintTupleToINSt3__15tupleIJNS2_12basic_stringIcNS2_11char_traitsIcEENS2_9allocatorIcEEEES9_EEELm2EEEvRKT_NS2_17integral_constantImXT0_EEEPNS2_13basic_ostreamIcS6_EE, symObjAddr: 0x16008C, symBinAddr: 0x100161878, symSize: 0x0 }
  - { offset: 0xA6AE, size: 0x8, addend: 0x0, symName: __ZN7testing8internal12PrintTupleToINSt3__15tupleIJNS2_12basic_stringIcNS2_11char_traitsIcEENS2_9allocatorIcEEEES9_EEELm1EEEvRKT_NS2_17integral_constantImXT0_EEEPNS2_13basic_ostreamIcS6_EE, symObjAddr: 0x1601C0, symBinAddr: 0x1001619AC, symSize: 0x0 }
  - { offset: 0xA705, size: 0x8, addend: 0x0, symName: __ZN7testing8internal12PrintTupleToINSt3__15tupleIJNS2_12basic_stringIcNS2_11char_traitsIcEENS2_9allocatorIcEEEES9_EEEEEvRKT_NS2_17integral_constantImLm0EEEPNS2_13basic_ostreamIcS6_EE, symObjAddr: 0x1602AC, symBinAddr: 0x100161A98, symSize: 0x0 }
  - { offset: 0xA74A, size: 0x8, addend: 0x0, symName: __ZN7testing8internal9GetTypeIdIN12_GLOBAL__N_121CaesarDec_SplitSpacesEEEPKvv, symObjAddr: 0x174CA4, symBinAddr: 0x100176490, symSize: 0x0 }
  - { offset: 0xA772, size: 0x8, addend: 0x0, symName: __ZN7testing8internal27CheckedDowncastToActualTypeINS0_26ParameterizedTestSuiteInfoIN12_GLOBAL__N_121CaesarDec_SplitSpacesEEENS0_30ParameterizedTestSuiteInfoBaseEEEPT_PT0_, symObjAddr: 0x174CB8, symBinAddr: 0x1001764A4, symSize: 0x0 }
  - { offset: 0xA833, size: 0x8, addend: 0x0, symName: __ZN7testing8internal14UniversalPrintINSt3__15tupleIJNS2_12basic_stringIcNS2_11char_traitsIcEENS2_9allocatorIcEEEENS2_6vectorIS9_NS7_IS9_EEEEEEEEEvRKT_PNS2_13basic_ostreamIcS6_EE, symObjAddr: 0x17E648, symBinAddr: 0x10017FE34, symSize: 0x0 }
  - { offset: 0xA89F, size: 0x8, addend: 0x0, symName: __ZN7testing8internal7PrintToIJNSt3__112basic_stringIcNS2_11char_traitsIcEENS2_9allocatorIcEEEENS2_6vectorIS8_NS6_IS8_EEEEEEEvRKNS2_5tupleIJDpT_EEEPNS2_13basic_ostreamIcS5_EE, symObjAddr: 0x17E720, symBinAddr: 0x10017FF0C, symSize: 0x0 }
  - { offset: 0xA8E8, size: 0x8, addend: 0x0, symName: __ZN7testing8internal12PrintTupleToINSt3__15tupleIJNS2_12basic_stringIcNS2_11char_traitsIcEENS2_9allocatorIcEEEENS2_6vectorIS9_NS7_IS9_EEEEEEELm2EEEvRKT_NS2_17integral_constantImXT0_EEEPNS2_13basic_ostreamIcS6_EE, symObjAddr: 0x17E81C, symBinAddr: 0x100180008, symSize: 0x0 }
  - { offset: 0xA93F, size: 0x8, addend: 0x0, symName: __ZN7testing8internal12PrintTupleToINSt3__15tupleIJNS2_12basic_stringIcNS2_11char_traitsIcEENS2_9allocatorIcEEEENS2_6vectorIS9_NS7_IS9_EEEEEEELm1EEEvRKT_NS2_17integral_constantImXT0_EEEPNS2_13basic_ostreamIcS6_EE, symObjAddr: 0x17E950, symBinAddr: 0x10018013C, symSize: 0x0 }
  - { offset: 0xA996, size: 0x8, addend: 0x0, symName: __ZN7testing8internal12PrintTupleToINSt3__15tupleIJNS2_12basic_stringIcNS2_11char_traitsIcEENS2_9allocatorIcEEEENS2_6vectorIS9_NS7_IS9_EEEEEEEEEvRKT_NS2_17integral_constantImLm0EEEPNS2_13basic_ostreamIcS6_EE, symObjAddr: 0x17EA3C, symBinAddr: 0x100180228, symSize: 0x0 }
  - { offset: 0xA9DB, size: 0x8, addend: 0x0, symName: __ZN7testing8internal9GetTypeIdIN12_GLOBAL__N_124CaesarDec_JoinWithSpacesEEEPKvv, symObjAddr: 0x1868E8, symBinAddr: 0x1001880D4, symSize: 0x0 }
  - { offset: 0xAA03, size: 0x8, addend: 0x0, symName: __ZN7testing8internal27CheckedDowncastToActualTypeINS0_26ParameterizedTestSuiteInfoIN12_GLOBAL__N_124CaesarDec_JoinWithSpacesEEENS0_30ParameterizedTestSuiteInfoBaseEEEPT_PT0_, symObjAddr: 0x1868FC, symBinAddr: 0x1001880E8, symSize: 0x0 }
  - { offset: 0xAAC4, size: 0x8, addend: 0x0, symName: __ZN7testing8internal14UniversalPrintINSt3__15tupleIJNS2_6vectorINS2_12basic_stringIcNS2_11char_traitsIcEENS2_9allocatorIcEEEENS8_ISA_EEEESA_EEEEEvRKT_PNS2_13basic_ostreamIcS7_EE, symObjAddr: 0x19028C, symBinAddr: 0x100191A78, symSize: 0x0 }
  - { offset: 0xAB30, size: 0x8, addend: 0x0, symName: __ZN7testing8internal7PrintToIJNSt3__16vectorINS2_12basic_stringIcNS2_11char_traitsIcEENS2_9allocatorIcEEEENS7_IS9_EEEES9_EEEvRKNS2_5tupleIJDpT_EEEPNS2_13basic_ostreamIcS6_EE, symObjAddr: 0x190364, symBinAddr: 0x100191B50, symSize: 0x0 }
  - { offset: 0xAB79, size: 0x8, addend: 0x0, symName: __ZN7testing8internal12PrintTupleToINSt3__15tupleIJNS2_6vectorINS2_12basic_stringIcNS2_11char_traitsIcEENS2_9allocatorIcEEEENS8_ISA_EEEESA_EEELm2EEEvRKT_NS2_17integral_constantImXT0_EEEPNS2_13basic_ostreamIcS7_EE, symObjAddr: 0x190460, symBinAddr: 0x100191C4C, symSize: 0x0 }
  - { offset: 0xABD0, size: 0x8, addend: 0x0, symName: __ZN7testing8internal12PrintTupleToINSt3__15tupleIJNS2_6vectorINS2_12basic_stringIcNS2_11char_traitsIcEENS2_9allocatorIcEEEENS8_ISA_EEEESA_EEELm1EEEvRKT_NS2_17integral_constantImXT0_EEEPNS2_13basic_ostreamIcS7_EE, symObjAddr: 0x190594, symBinAddr: 0x100191D80, symSize: 0x0 }
  - { offset: 0xAC27, size: 0x8, addend: 0x0, symName: __ZN7testing8internal12PrintTupleToINSt3__15tupleIJNS2_6vectorINS2_12basic_stringIcNS2_11char_traitsIcEENS2_9allocatorIcEEEENS8_ISA_EEEESA_EEEEEvRKT_NS2_17integral_constantImLm0EEEPNS2_13basic_ostreamIcS7_EE, symObjAddr: 0x190680, symBinAddr: 0x100191E6C, symSize: 0x0 }
  - { offset: 0xAC6C, size: 0x8, addend: 0x0, symName: __ZN7testing8internal9GetTypeIdIN12_GLOBAL__N_120CaesarDec_NumWordsInEEEPKvv, symObjAddr: 0x19852C, symBinAddr: 0x100199D18, symSize: 0x0 }
  - { offset: 0xAC94, size: 0x8, addend: 0x0, symName: __ZN7testing8internal27CheckedDowncastToActualTypeINS0_26ParameterizedTestSuiteInfoIN12_GLOBAL__N_120CaesarDec_NumWordsInEEENS0_30ParameterizedTestSuiteInfoBaseEEEPT_PT0_, symObjAddr: 0x198540, symBinAddr: 0x100199D2C, symSize: 0x0 }
  - { offset: 0xAD55, size: 0x8, addend: 0x0, symName: __ZN7testing8internal14UniversalPrintINSt3__15tupleIJNS2_6vectorINS2_12basic_stringIcNS2_11char_traitsIcEENS2_9allocatorIcEEEENS8_ISA_EEEESC_iEEEEEvRKT_PNS2_13basic_ostreamIcS7_EE, symObjAddr: 0x1A1E78, symBinAddr: 0x1001A3664, symSize: 0x0 }
  - { offset: 0xADC1, size: 0x8, addend: 0x0, symName: __ZN7testing8internal7PrintToIJNSt3__16vectorINS2_12basic_stringIcNS2_11char_traitsIcEENS2_9allocatorIcEEEENS7_IS9_EEEESB_iEEEvRKNS2_5tupleIJDpT_EEEPNS2_13basic_ostreamIcS6_EE, symObjAddr: 0x1A1F50, symBinAddr: 0x1001A373C, symSize: 0x0 }
  - { offset: 0xAE0F, size: 0x8, addend: 0x0, symName: __ZN7testing8internal12PrintTupleToINSt3__15tupleIJNS2_6vectorINS2_12basic_stringIcNS2_11char_traitsIcEENS2_9allocatorIcEEEENS8_ISA_EEEESC_iEEELm3EEEvRKT_NS2_17integral_constantImXT0_EEEPNS2_13basic_ostreamIcS7_EE, symObjAddr: 0x1A204C, symBinAddr: 0x1001A3838, symSize: 0x0 }
  - { offset: 0xAE66, size: 0x8, addend: 0x0, symName: __ZN7testing8internal12PrintTupleToINSt3__15tupleIJNS2_6vectorINS2_12basic_stringIcNS2_11char_traitsIcEENS2_9allocatorIcEEEENS8_ISA_EEEESC_iEEELm2EEEvRKT_NS2_17integral_constantImXT0_EEEPNS2_13basic_ostreamIcS7_EE, symObjAddr: 0x1A2180, symBinAddr: 0x1001A396C, symSize: 0x0 }
  - { offset: 0xAEBD, size: 0x8, addend: 0x0, symName: __ZN7testing8internal12PrintTupleToINSt3__15tupleIJNS2_6vectorINS2_12basic_stringIcNS2_11char_traitsIcEENS2_9allocatorIcEEEENS8_ISA_EEEESC_iEEELm1EEEvRKT_NS2_17integral_constantImXT0_EEEPNS2_13basic_ostreamIcS7_EE, symObjAddr: 0x1A22B4, symBinAddr: 0x1001A3AA0, symSize: 0x0 }
  - { offset: 0xAF14, size: 0x8, addend: 0x0, symName: __ZN7testing8internal12PrintTupleToINSt3__15tupleIJNS2_6vectorINS2_12basic_stringIcNS2_11char_traitsIcEENS2_9allocatorIcEEEENS8_ISA_EEEESC_iEEEEEvRKT_NS2_17integral_constantImLm0EEEPNS2_13basic_ostreamIcS7_EE, symObjAddr: 0x1A23A0, symBinAddr: 0x1001A3B8C, symSize: 0x0 }
  - { offset: 0xAF59, size: 0x8, addend: 0x0, symName: __ZN7testing8internal9GetTypeIdIN12_GLOBAL__N_127CaesarDec_CustomDictCommandEEEPKvv, symObjAddr: 0x1AA24C, symBinAddr: 0x1001ABA38, symSize: 0x0 }
  - { offset: 0xAF81, size: 0x8, addend: 0x0, symName: __ZN7testing8internal27CheckedDowncastToActualTypeINS0_26ParameterizedTestSuiteInfoIN12_GLOBAL__N_127CaesarDec_CustomDictCommandEEENS0_30ParameterizedTestSuiteInfoBaseEEEPT_PT0_, symObjAddr: 0x1AA260, symBinAddr: 0x1001ABA4C, symSize: 0x0 }
  - { offset: 0xB043, size: 0x8, addend: 0x0, symName: __ZN7testing8internal14UniversalPrintINSt3__15tupleIJNS2_12basic_stringIcNS2_11char_traitsIcEENS2_9allocatorIcEEEENS2_6vectorIS9_NS7_IS9_EEEES9_S9_EEEEEvRKT_PNS2_13basic_ostreamIcS6_EE, symObjAddr: 0x1B3BFC, symBinAddr: 0x1001B53E8, symSize: 0x0 }
  - { offset: 0xB0AF, size: 0x8, addend: 0x0, symName: __ZN7testing8internal7PrintToIJNSt3__112basic_stringIcNS2_11char_traitsIcEENS2_9allocatorIcEEEENS2_6vectorIS8_NS6_IS8_EEEES8_S8_EEEvRKNS2_5tupleIJDpT_EEEPNS2_13basic_ostreamIcS5_EE, symObjAddr: 0x1B3CD4, symBinAddr: 0x1001B54C0, symSize: 0x0 }
  - { offset: 0xB102, size: 0x8, addend: 0x0, symName: __ZN7testing8internal12PrintTupleToINSt3__15tupleIJNS2_12basic_stringIcNS2_11char_traitsIcEENS2_9allocatorIcEEEENS2_6vectorIS9_NS7_IS9_EEEES9_S9_EEELm4EEEvRKT_NS2_17integral_constantImXT0_EEEPNS2_13basic_ostreamIcS6_EE, symObjAddr: 0x1B3DD0, symBinAddr: 0x1001B55BC, symSize: 0x0 }
  - { offset: 0xB159, size: 0x8, addend: 0x0, symName: __ZN7testing8internal12PrintTupleToINSt3__15tupleIJNS2_12basic_stringIcNS2_11char_traitsIcEENS2_9allocatorIcEEEENS2_6vectorIS9_NS7_IS9_EEEES9_S9_EEELm3EEEvRKT_NS2_17integral_constantImXT0_EEEPNS2_13basic_ostreamIcS6_EE, symObjAddr: 0x1B3F04, symBinAddr: 0x1001B56F0, symSize: 0x0 }
  - { offset: 0xB1B0, size: 0x8, addend: 0x0, symName: __ZN7testing8internal12PrintTupleToINSt3__15tupleIJNS2_12basic_stringIcNS2_11char_traitsIcEENS2_9allocatorIcEEEENS2_6vectorIS9_NS7_IS9_EEEES9_S9_EEELm2EEEvRKT_NS2_17integral_constantImXT0_EEEPNS2_13basic_ostreamIcS6_EE, symObjAddr: 0x1B4108, symBinAddr: 0x1001B58F4, symSize: 0x0 }
  - { offset: 0xB207, size: 0x8, addend: 0x0, symName: __ZN7testing8internal12PrintTupleToINSt3__15tupleIJNS2_12basic_stringIcNS2_11char_traitsIcEENS2_9allocatorIcEEEENS2_6vectorIS9_NS7_IS9_EEEES9_S9_EEELm1EEEvRKT_NS2_17integral_constantImXT0_EEEPNS2_13basic_ostreamIcS6_EE, symObjAddr: 0x1B423C, symBinAddr: 0x1001B5A28, symSize: 0x0 }
  - { offset: 0xB25E, size: 0x8, addend: 0x0, symName: __ZN7testing8internal12PrintTupleToINSt3__15tupleIJNS2_12basic_stringIcNS2_11char_traitsIcEENS2_9allocatorIcEEEENS2_6vectorIS9_NS7_IS9_EEEES9_S9_EEEEEvRKT_NS2_17integral_constantImLm0EEEPNS2_13basic_ostreamIcS6_EE, symObjAddr: 0x1B4328, symBinAddr: 0x1001B5B14, symSize: 0x0 }
  - { offset: 0xB2A3, size: 0x8, addend: 0x0, symName: __ZN7testing8internal9GetTypeIdIN12_GLOBAL__N_129CaesarDec_FullDictMainCommandEEEPKvv, symObjAddr: 0x1BC260, symBinAddr: 0x1001BDA4C, symSize: 0x0 }
  - { offset: 0xB2CB, size: 0x8, addend: 0x0, symName: __ZN7testing8internal27CheckedDowncastToActualTypeINS0_26ParameterizedTestSuiteInfoIN12_GLOBAL__N_129CaesarDec_FullDictMainCommandEEENS0_30ParameterizedTestSuiteInfoBaseEEEPT_PT0_, symObjAddr: 0x1BC274, symBinAddr: 0x1001BDA60, symSize: 0x0 }
  - { offset: 0xB38D, size: 0x8, addend: 0x0, symName: __ZN7testing8internal14UniversalPrintINSt3__15tupleIJNS2_12basic_stringIcNS2_11char_traitsIcEENS2_9allocatorIcEEEES9_S9_EEEEEvRKT_PNS2_13basic_ostreamIcS6_EE, symObjAddr: 0x1C5BDC, symBinAddr: 0x1001C73C8, symSize: 0x0 }
  - { offset: 0xB3F9, size: 0x8, addend: 0x0, symName: __ZN7testing8internal7PrintToIJNSt3__112basic_stringIcNS2_11char_traitsIcEENS2_9allocatorIcEEEES8_S8_EEEvRKNS2_5tupleIJDpT_EEEPNS2_13basic_ostreamIcS5_EE, symObjAddr: 0x1C5CB4, symBinAddr: 0x1001C74A0, symSize: 0x0 }
  - { offset: 0xB447, size: 0x8, addend: 0x0, symName: __ZN7testing8internal12PrintTupleToINSt3__15tupleIJNS2_12basic_stringIcNS2_11char_traitsIcEENS2_9allocatorIcEEEES9_S9_EEELm3EEEvRKT_NS2_17integral_constantImXT0_EEEPNS2_13basic_ostreamIcS6_EE, symObjAddr: 0x1C5DB0, symBinAddr: 0x1001C759C, symSize: 0x0 }
  - { offset: 0xB49E, size: 0x8, addend: 0x0, symName: __ZN7testing8internal12PrintTupleToINSt3__15tupleIJNS2_12basic_stringIcNS2_11char_traitsIcEENS2_9allocatorIcEEEES9_S9_EEELm2EEEvRKT_NS2_17integral_constantImXT0_EEEPNS2_13basic_ostreamIcS6_EE, symObjAddr: 0x1C5EE4, symBinAddr: 0x1001C76D0, symSize: 0x0 }
  - { offset: 0xB4F5, size: 0x8, addend: 0x0, symName: __ZN7testing8internal12PrintTupleToINSt3__15tupleIJNS2_12basic_stringIcNS2_11char_traitsIcEENS2_9allocatorIcEEEES9_S9_EEELm1EEEvRKT_NS2_17integral_constantImXT0_EEEPNS2_13basic_ostreamIcS6_EE, symObjAddr: 0x1C60E8, symBinAddr: 0x1001C78D4, symSize: 0x0 }
  - { offset: 0xB54C, size: 0x8, addend: 0x0, symName: __ZN7testing8internal12PrintTupleToINSt3__15tupleIJNS2_12basic_stringIcNS2_11char_traitsIcEENS2_9allocatorIcEEEES9_S9_EEEEEvRKT_NS2_17integral_constantImLm0EEEPNS2_13basic_ostreamIcS6_EE, symObjAddr: 0x1C61D4, symBinAddr: 0x1001C79C0, symSize: 0x0 }
  - { offset: 0xC59D, size: 0x8, addend: 0x0, symName: __ZN7testing18WithParamInterfaceINSt3__15tupleIJNS1_12basic_stringIcNS1_11char_traitsIcEENS1_9allocatorIcEEEES8_EEEE10parameter_E, symObjAddr: 0x2AC870, symBinAddr: 0x1005083D0, symSize: 0x0 }
  - { offset: 0xC61B, size: 0x8, addend: 0x0, symName: __ZN7testing18WithParamInterfaceINSt3__15tupleIJNS1_12basic_stringIcNS1_11char_traitsIcEENS1_9allocatorIcEEEENS1_6vectorIS8_NS6_IS8_EEEEEEEE10parameter_E, symObjAddr: 0x2B70B0, symBinAddr: 0x100512C10, symSize: 0x0 }
  - { offset: 0xC633, size: 0x8, addend: 0x0, symName: __ZN7testing18WithParamInterfaceINSt3__15tupleIJNS1_6vectorINS1_12basic_stringIcNS1_11char_traitsIcEENS1_9allocatorIcEEEENS7_IS9_EEEES9_EEEE10parameter_E, symObjAddr: 0x2C17D0, symBinAddr: 0x10051D330, symSize: 0x0 }
  - { offset: 0xC64B, size: 0x8, addend: 0x0, symName: __ZN7testing18WithParamInterfaceINSt3__15tupleIJNS1_6vectorINS1_12basic_stringIcNS1_11char_traitsIcEENS1_9allocatorIcEEEENS7_IS9_EEEESB_iEEEE10parameter_E, symObjAddr: 0x2CA5A0, symBinAddr: 0x100526100, symSize: 0x0 }
  - { offset: 0xC663, size: 0x8, addend: 0x0, symName: __ZN7testing18WithParamInterfaceINSt3__15tupleIJNS1_12basic_stringIcNS1_11char_traitsIcEENS1_9allocatorIcEEEENS1_6vectorIS8_NS6_IS8_EEEES8_S8_EEEE10parameter_E, symObjAddr: 0x2D4870, symBinAddr: 0x1005303D0, symSize: 0x0 }
  - { offset: 0xC67B, size: 0x8, addend: 0x0, symName: __ZN7testing18WithParamInterfaceINSt3__15tupleIJNS1_12basic_stringIcNS1_11char_traitsIcEENS1_9allocatorIcEEEES8_S8_EEEE10parameter_E, symObjAddr: 0x2E2C30, symBinAddr: 0x10053E790, symSize: 0x0 }
  - { offset: 0xCD68, size: 0x8, addend: 0x0, symName: __ZN7testing7IsEmptyEv, symObjAddr: 0x18F18, symBinAddr: 0x10001A704, symSize: 0x0 }
  - { offset: 0xD121, size: 0x8, addend: 0x0, symName: __ZN7testing22MakePolymorphicMatcherINS_8internal14IsEmptyMatcherEEENS_18PolymorphicMatcherIT_EERKS4_, symObjAddr: 0x1A6B8, symBinAddr: 0x10001BEA4, symSize: 0x0 }
  - { offset: 0xD159, size: 0x8, addend: 0x0, symName: __ZN7testing15SafeMatcherCastIRKNSt3__16vectorINS1_12basic_stringIcNS1_11char_traitsIcEENS1_9allocatorIcEEEENS6_IS8_EEEENS_18PolymorphicMatcherINS_8internal14IsEmptyMatcherEEEEENS_7MatcherIT_EERKT0_, symObjAddr: 0x1A934, symBinAddr: 0x10001C120, symSize: 0x0 }
  - { offset: 0xD239, size: 0x8, addend: 0x0, symName: __ZN7testing11MatcherCastIRKNSt3__16vectorINS1_12basic_stringIcNS1_11char_traitsIcEENS1_9allocatorIcEEEENS6_IS8_EEEENS_18PolymorphicMatcherINS_8internal14IsEmptyMatcherEEEEENS_7MatcherIT_EERKT0_, symObjAddr: 0x1CC4C, symBinAddr: 0x10001E438, symSize: 0x0 }
  - { offset: 0xD279, size: 0x8, addend: 0x0, symName: __ZN7testing2EqIPNSt3__112basic_stringIcNS1_11char_traitsIcEENS1_9allocatorIcEEEEEENS_8internal9EqMatcherIT_EESB_, symObjAddr: 0x33730, symBinAddr: 0x100034F1C, symSize: 0x0 }
  - { offset: 0xD2B4, size: 0x8, addend: 0x0, symName: __ZN7testing16ElementsAreArrayIPKcEEDTcl16ElementsAreArraycldtfp_5beginEcldtfp_3endEEESt16initializer_listIT_E, symObjAddr: 0x34A00, symBinAddr: 0x1000361EC, symSize: 0x0 }
  - { offset: 0xD2EF, size: 0x8, addend: 0x0, symName: __ZN7testing15SafeMatcherCastIRKPNSt3__112basic_stringIcNS1_11char_traitsIcEENS1_9allocatorIcEEEENS_8internal9EqMatcherIS8_EEEENS_7MatcherIT_EERKT0_, symObjAddr: 0x3B6D4, symBinAddr: 0x10003CEC0, symSize: 0x0 }
  - { offset: 0xD3B8, size: 0x8, addend: 0x0, symName: __ZN7testing11MatcherCastIRKPNSt3__112basic_stringIcNS1_11char_traitsIcEENS1_9allocatorIcEEEENS_8internal9EqMatcherIS8_EEEENS_7MatcherIT_EERKT0_, symObjAddr: 0x3CCCC, symBinAddr: 0x10003E4B8, symSize: 0x0 }
  - { offset: 0xD3F8, size: 0x8, addend: 0x0, symName: __ZN7testing16ElementsAreArrayIPKPKcEENS_8internal23ElementsAreArrayMatcherINSt3__115iterator_traitsIT_E10value_typeEEES9_S9_, symObjAddr: 0x46280, symBinAddr: 0x100047A6C, symSize: 0x0 }
  - { offset: 0xD43E, size: 0x8, addend: 0x0, symName: __ZN7testing15SafeMatcherCastIRKNSt3__16vectorINS1_12basic_stringIcNS1_11char_traitsIcEENS1_9allocatorIcEEEENS6_IS8_EEEENS_8internal23ElementsAreArrayMatcherIPKcEEEENS_7MatcherIT_EERKT0_, symObjAddr: 0x490BC, symBinAddr: 0x10004A8A8, symSize: 0x0 }
  - { offset: 0xD47E, size: 0x8, addend: 0x0, symName: __ZN7testing11MatcherCastIRKNSt3__16vectorINS1_12basic_stringIcNS1_11char_traitsIcEENS1_9allocatorIcEEEENS6_IS8_EEEENS_8internal23ElementsAreArrayMatcherIPKcEEEENS_7MatcherIT_EERKT0_, symObjAddr: 0x4912C, symBinAddr: 0x10004A918, symSize: 0x0 }
  - { offset: 0xD4BE, size: 0x8, addend: 0x0, symName: __ZN7testing11MatcherCastIRKNSt3__112basic_stringIcNS1_11char_traitsIcEENS1_9allocatorIcEEEEPKcEENS_7MatcherIT_EERKT0_, symObjAddr: 0x4A230, symBinAddr: 0x10004BA1C, symSize: 0x0 }
  - { offset: 0xD4FE, size: 0x8, addend: 0x0, symName: __ZN7testinglsERNSt3__113basic_ostreamIcNS0_11char_traitsIcEEEERKNS_7MessageE, symObjAddr: 0x57E94, symBinAddr: 0x100059680, symSize: 0x0 }
  - { offset: 0xD53A, size: 0x8, addend: 0x0, symName: __ZN7testing5StrEqINSt3__112basic_stringIcNS1_11char_traitsIcEENS1_9allocatorIcEEEEEENS_18PolymorphicMatcherINS_8internal18StrEqualityMatcherIS7_EEEERKT_, symObjAddr: 0x6A6D8, symBinAddr: 0x10006BEC4, symSize: 0x0 }
  - { offset: 0xD572, size: 0x8, addend: 0x0, symName: __ZN7testing22MakePolymorphicMatcherINS_8internal18StrEqualityMatcherINSt3__112basic_stringIcNS3_11char_traitsIcEENS3_9allocatorIcEEEEEEEENS_18PolymorphicMatcherIT_EERKSC_, symObjAddr: 0x6BC94, symBinAddr: 0x10006D480, symSize: 0x0 }
  - { offset: 0xD5A9, size: 0x8, addend: 0x0, symName: __ZN7testing15SafeMatcherCastIRKNSt3__112basic_stringIcNS1_11char_traitsIcEENS1_9allocatorIcEEEENS_18PolymorphicMatcherINS_8internal18StrEqualityMatcherIS7_EEEEEENS_7MatcherIT_EERKT0_, symObjAddr: 0x6C2FC, symBinAddr: 0x10006DAE8, symSize: 0x0 }
  - { offset: 0xD5E9, size: 0x8, addend: 0x0, symName: __ZN7testing11MatcherCastIRKNSt3__112basic_stringIcNS1_11char_traitsIcEENS1_9allocatorIcEEEENS_18PolymorphicMatcherINS_8internal18StrEqualityMatcherIS7_EEEEEENS_7MatcherIT_EERKT0_, symObjAddr: 0x6CFA4, symBinAddr: 0x10006E790, symSize: 0x0 }
  - { offset: 0xD629, size: 0x8, addend: 0x0, symName: __ZN7testing6ValuesIJNSt3__15tupleIJPKcS4_EEES5_S5_S5_EEENS_8internal10ValueArrayIJDpT_EEES9_, symObjAddr: 0x72B54, symBinAddr: 0x100074340, symSize: 0x0 }
  - { offset: 0xD69E, size: 0x8, addend: 0x0, symName: __ZN7testing8ValuesInINSt3__16vectorINS1_5tupleIJNS1_12basic_stringIcNS1_11char_traitsIcEENS1_9allocatorIcEEEES9_EEENS7_ISA_EEEEEENS_8internal14ParamGeneratorINT_10value_typeEEERKSF_, symObjAddr: 0x74758, symBinAddr: 0x100075F44, symSize: 0x0 }
  - { offset: 0xD6D5, size: 0x8, addend: 0x0, symName: __ZN7testing8ValuesInINSt3__111__wrap_iterIPKNS1_5tupleIJNS1_12basic_stringIcNS1_11char_traitsIcEENS1_9allocatorIcEEEES9_EEEEEEENS_8internal14ParamGeneratorINS1_15iterator_traitsIT_E10value_typeEEESH_SH_, symObjAddr: 0x7504C, symBinAddr: 0x100076838, symSize: 0x0 }
  - { offset: 0xD71B, size: 0x8, addend: 0x0, symName: __ZN7testing16ElementsAreArrayINSt3__16vectorINS1_12basic_stringIcNS1_11char_traitsIcEENS1_9allocatorIcEEEENS6_IS8_EEEEEEDTcl16ElementsAreArraycldtfp_5beginEcldtfp_3endEEERKT_, symObjAddr: 0x935A0, symBinAddr: 0x100094D8C, symSize: 0x0 }
  - { offset: 0xD752, size: 0x8, addend: 0x0, symName: __ZN7testing16ElementsAreArrayINSt3__111__wrap_iterIPKNS1_12basic_stringIcNS1_11char_traitsIcEENS1_9allocatorIcEEEEEEEENS_8internal23ElementsAreArrayMatcherINS1_15iterator_traitsIT_E10value_typeEEESF_SF_, symObjAddr: 0x946B8, symBinAddr: 0x100095EA4, symSize: 0x0 }
  - { offset: 0xD798, size: 0x8, addend: 0x0, symName: __ZN7testing15SafeMatcherCastIRKNSt3__16vectorINS1_12basic_stringIcNS1_11char_traitsIcEENS1_9allocatorIcEEEENS6_IS8_EEEENS_8internal23ElementsAreArrayMatcherIS8_EEEENS_7MatcherIT_EERKT0_, symObjAddr: 0x960B0, symBinAddr: 0x10009789C, symSize: 0x0 }
  - { offset: 0xD7D8, size: 0x8, addend: 0x0, symName: __ZN7testing11MatcherCastIRKNSt3__16vectorINS1_12basic_stringIcNS1_11char_traitsIcEENS1_9allocatorIcEEEENS6_IS8_EEEENS_8internal23ElementsAreArrayMatcherIS8_EEEENS_7MatcherIT_EERKT0_, symObjAddr: 0x96120, symBinAddr: 0x10009790C, symSize: 0x0 }
  - { offset: 0xD818, size: 0x8, addend: 0x0, symName: __ZN7testing11MatcherCastIRKNSt3__112basic_stringIcNS1_11char_traitsIcEENS1_9allocatorIcEEEES7_EENS_7MatcherIT_EERKT0_, symObjAddr: 0x96A4C, symBinAddr: 0x100098238, symSize: 0x0 }
  - { offset: 0xD858, size: 0x8, addend: 0x0, symName: __ZN7testing6ValuesIJNSt3__15tupleIJPKcNS1_6vectorINS1_12basic_stringIcNS1_11char_traitsIcEENS1_9allocatorIcEEEENS9_ISB_EEEEEEESE_SE_SE_SE_SE_SE_EEENS_8internal10ValueArrayIJDpT_EEESI_, symObjAddr: 0x96EDC, symBinAddr: 0x1000986C8, symSize: 0x0 }
  - { offset: 0xD917, size: 0x8, addend: 0x0, symName: __ZN7testing8ValuesInINSt3__16vectorINS1_5tupleIJNS1_12basic_stringIcNS1_11char_traitsIcEENS1_9allocatorIcEEEENS2_IS9_NS7_IS9_EEEEEEENS7_ISC_EEEEEENS_8internal14ParamGeneratorINT_10value_typeEEERKSH_, symObjAddr: 0x9B594, symBinAddr: 0x10009CD80, symSize: 0x0 }
  - { offset: 0xD94E, size: 0x8, addend: 0x0, symName: __ZN7testing8ValuesInINSt3__111__wrap_iterIPKNS1_5tupleIJNS1_12basic_stringIcNS1_11char_traitsIcEENS1_9allocatorIcEEEENS1_6vectorIS9_NS7_IS9_EEEEEEEEEEENS_8internal14ParamGeneratorINS1_15iterator_traitsIT_E10value_typeEEESK_SK_, symObjAddr: 0x9C1EC, symBinAddr: 0x10009D9D8, symSize: 0x0 }
  - { offset: 0xD994, size: 0x8, addend: 0x0, symName: __ZN7testing6ValuesIJNSt3__15tupleIJNS1_6vectorINS1_12basic_stringIcNS1_11char_traitsIcEENS1_9allocatorIcEEEENS7_IS9_EEEEPKcEEESE_SE_SE_EEENS_8internal10ValueArrayIJDpT_EEESI_, symObjAddr: 0xB9938, symBinAddr: 0x1000BB124, symSize: 0x0 }
  - { offset: 0xDA11, size: 0x8, addend: 0x0, symName: __ZN7testing8ValuesInINSt3__16vectorINS1_5tupleIJNS2_INS1_12basic_stringIcNS1_11char_traitsIcEENS1_9allocatorIcEEEENS7_IS9_EEEES9_EEENS7_ISC_EEEEEENS_8internal14ParamGeneratorINT_10value_typeEEERKSH_, symObjAddr: 0xBC2C0, symBinAddr: 0x1000BDAAC, symSize: 0x0 }
  - { offset: 0xDA48, size: 0x8, addend: 0x0, symName: __ZN7testing8ValuesInINSt3__111__wrap_iterIPKNS1_5tupleIJNS1_6vectorINS1_12basic_stringIcNS1_11char_traitsIcEENS1_9allocatorIcEEEENS8_ISA_EEEESA_EEEEEEENS_8internal14ParamGeneratorINS1_15iterator_traitsIT_E10value_typeEEESK_SK_, symObjAddr: 0xBCBB4, symBinAddr: 0x1000BE3A0, symSize: 0x0 }
  - { offset: 0xDA8E, size: 0x8, addend: 0x0, symName: __ZN7testing2EqIiEENS_8internal9EqMatcherIT_EES3_, symObjAddr: 0xD9BF8, symBinAddr: 0x1000DB3E4, symSize: 0x0 }
  - { offset: 0xDAC9, size: 0x8, addend: 0x0, symName: __ZN7testing15SafeMatcherCastIRKiNS_8internal9EqMatcherIiEEEENS_7MatcherIT_EERKT0_, symObjAddr: 0xDAE60, symBinAddr: 0x1000DC64C, symSize: 0x0 }
  - { offset: 0xDB92, size: 0x8, addend: 0x0, symName: __ZN7testing11MatcherCastIRKiNS_8internal9EqMatcherIiEEEENS_7MatcherIT_EERKT0_, symObjAddr: 0xDC458, symBinAddr: 0x1000DDC44, symSize: 0x0 }
  - { offset: 0xDBD2, size: 0x8, addend: 0x0, symName: __ZN7testing6ValuesIJNSt3__15tupleIJNS1_6vectorINS1_12basic_stringIcNS1_11char_traitsIcEENS1_9allocatorIcEEEENS7_IS9_EEEESB_iEEESC_SC_SC_EEENS_8internal10ValueArrayIJDpT_EEESG_, symObjAddr: 0xDFD84, symBinAddr: 0x1000E1570, symSize: 0x0 }
  - { offset: 0xDC4F, size: 0x8, addend: 0x0, symName: __ZN7testing8ValuesInINSt3__16vectorINS1_5tupleIJNS2_INS1_12basic_stringIcNS1_11char_traitsIcEENS1_9allocatorIcEEEENS7_IS9_EEEESB_iEEENS7_ISC_EEEEEENS_8internal14ParamGeneratorINT_10value_typeEEERKSH_, symObjAddr: 0xE1A60, symBinAddr: 0x1000E324C, symSize: 0x0 }
  - { offset: 0xDC86, size: 0x8, addend: 0x0, symName: __ZN7testing8ValuesInINSt3__111__wrap_iterIPKNS1_5tupleIJNS1_6vectorINS1_12basic_stringIcNS1_11char_traitsIcEENS1_9allocatorIcEEEENS8_ISA_EEEESC_iEEEEEEENS_8internal14ParamGeneratorINS1_15iterator_traitsIT_E10value_typeEEESK_SK_, symObjAddr: 0xE2368, symBinAddr: 0x1000E3B54, symSize: 0x0 }
  - { offset: 0xDCCC, size: 0x8, addend: 0x0, symName: __ZN7testing9HasSubstrINSt3__112basic_stringIcNS1_11char_traitsIcEENS1_9allocatorIcEEEEEENS_18PolymorphicMatcherINS_8internal16HasSubstrMatcherIS7_EEEERKT_, symObjAddr: 0x101550, symBinAddr: 0x100102D3C, symSize: 0x0 }
  - { offset: 0xDD04, size: 0x8, addend: 0x0, symName: __ZN7testing3NotINS_18PolymorphicMatcherINS_8internal16HasSubstrMatcherINSt3__112basic_stringIcNS4_11char_traitsIcEENS4_9allocatorIcEEEEEEEEEENS2_10NotMatcherIT_EESE_, symObjAddr: 0x102CCC, symBinAddr: 0x1001044B8, symSize: 0x0 }
  - { offset: 0xDD3D, size: 0x8, addend: 0x0, symName: __ZN7testing22MakePolymorphicMatcherINS_8internal16HasSubstrMatcherINSt3__112basic_stringIcNS3_11char_traitsIcEENS3_9allocatorIcEEEEEEEENS_18PolymorphicMatcherIT_EERKSC_, symObjAddr: 0x104524, symBinAddr: 0x100105D10, symSize: 0x0 }
  - { offset: 0xDD74, size: 0x8, addend: 0x0, symName: __ZN7testing15SafeMatcherCastIRKNSt3__112basic_stringIcNS1_11char_traitsIcEENS1_9allocatorIcEEEENS_18PolymorphicMatcherINS_8internal16HasSubstrMatcherIS7_EEEEEENS_7MatcherIT_EERKT0_, symObjAddr: 0x1049C0, symBinAddr: 0x1001061AC, symSize: 0x0 }
  - { offset: 0xDDB4, size: 0x8, addend: 0x0, symName: __ZN7testing11MatcherCastIRKNSt3__112basic_stringIcNS1_11char_traitsIcEENS1_9allocatorIcEEEENS_18PolymorphicMatcherINS_8internal16HasSubstrMatcherIS7_EEEEEENS_7MatcherIT_EERKT0_, symObjAddr: 0x104A30, symBinAddr: 0x10010621C, symSize: 0x0 }
  - { offset: 0xDDF4, size: 0x8, addend: 0x0, symName: __ZN7testing15SafeMatcherCastIRKNSt3__112basic_stringIcNS1_11char_traitsIcEENS1_9allocatorIcEEEENS_8internal10NotMatcherINS_18PolymorphicMatcherINSA_16HasSubstrMatcherIS7_EEEEEEEENS_7MatcherIT_EERKT0_, symObjAddr: 0x105DAC, symBinAddr: 0x100107598, symSize: 0x0 }
  - { offset: 0xDE34, size: 0x8, addend: 0x0, symName: __ZN7testing11MatcherCastIRKNSt3__112basic_stringIcNS1_11char_traitsIcEENS1_9allocatorIcEEEENS_8internal10NotMatcherINS_18PolymorphicMatcherINSA_16HasSubstrMatcherIS7_EEEEEEEENS_7MatcherIT_EERKT0_, symObjAddr: 0x105E1C, symBinAddr: 0x100107608, symSize: 0x0 }
  - { offset: 0xDE74, size: 0x8, addend: 0x0, symName: __ZN7testing6ValuesIJNSt3__15tupleIJPKcNS1_6vectorINS1_12basic_stringIcNS1_11char_traitsIcEENS1_9allocatorIcEEEENS9_ISB_EEEESB_S4_EEENS2_IJS4_SD_S4_S4_EEESF_SF_SF_SF_SF_SE_SF_EEENS_8internal10ValueArrayIJDpT_EEESJ_, symObjAddr: 0x106EE8, symBinAddr: 0x1001086D4, symSize: 0x0 }
  - { offset: 0xDF5F, size: 0x8, addend: 0x0, symName: __ZN7testing8ValuesInINSt3__16vectorINS1_5tupleIJNS1_12basic_stringIcNS1_11char_traitsIcEENS1_9allocatorIcEEEENS2_IS9_NS7_IS9_EEEES9_S9_EEENS7_ISC_EEEEEENS_8internal14ParamGeneratorINT_10value_typeEEERKSH_, symObjAddr: 0x10DA50, symBinAddr: 0x10010F23C, symSize: 0x0 }
  - { offset: 0xDF96, size: 0x8, addend: 0x0, symName: __ZN7testing8ValuesInINSt3__111__wrap_iterIPKNS1_5tupleIJNS1_12basic_stringIcNS1_11char_traitsIcEENS1_9allocatorIcEEEENS1_6vectorIS9_NS7_IS9_EEEES9_S9_EEEEEEENS_8internal14ParamGeneratorINS1_15iterator_traitsIT_E10value_typeEEESK_SK_, symObjAddr: 0x10E7A0, symBinAddr: 0x10010FF8C, symSize: 0x0 }
  - { offset: 0xDFDC, size: 0x8, addend: 0x0, symName: __ZN7testing6ValuesIJNSt3__15tupleIJPKcS4_S4_EEES5_S5_S5_NS2_IJS4_NS1_12basic_stringIcNS1_11char_traitsIcEENS1_9allocatorIcEEEES4_EEEEEENS_8internal10ValueArrayIJDpT_EEESG_, symObjAddr: 0x12E808, symBinAddr: 0x10012FFF4, symSize: 0x0 }
  - { offset: 0xE06F, size: 0x8, addend: 0x0, symName: __ZN7testing8ValuesInINSt3__16vectorINS1_5tupleIJNS1_12basic_stringIcNS1_11char_traitsIcEENS1_9allocatorIcEEEES9_S9_EEENS7_ISA_EEEEEENS_8internal14ParamGeneratorINT_10value_typeEEERKSF_, symObjAddr: 0x131480, symBinAddr: 0x100132C6C, symSize: 0x0 }
  - { offset: 0xE0A6, size: 0x8, addend: 0x0, symName: __ZN7testing8ValuesInINSt3__111__wrap_iterIPKNS1_5tupleIJNS1_12basic_stringIcNS1_11char_traitsIcEENS1_9allocatorIcEEEES9_S9_EEEEEEENS_8internal14ParamGeneratorINS1_15iterator_traitsIT_E10value_typeEEESH_SH_, symObjAddr: 0x131F20, symBinAddr: 0x10013370C, symSize: 0x0 }
  - { offset: 0xE0EC, size: 0x8, addend: 0x0, symName: __ZN7testing13PrintToStringINSt3__15tupleIJNS1_12basic_stringIcNS1_11char_traitsIcEENS1_9allocatorIcEEEES8_EEEEES8_RKT_, symObjAddr: 0x152068, symBinAddr: 0x100153854, symSize: 0x0 }
  - { offset: 0xE137, size: 0x8, addend: 0x0, symName: __ZN7testing13PrintToStringINSt3__15tupleIJNS1_12basic_stringIcNS1_11char_traitsIcEENS1_9allocatorIcEEEENS1_6vectorIS8_NS6_IS8_EEEEEEEEES8_RKT_, symObjAddr: 0x17B868, symBinAddr: 0x10017D054, symSize: 0x0 }
  - { offset: 0xE182, size: 0x8, addend: 0x0, symName: __ZN7testing13PrintToStringINSt3__15tupleIJNS1_6vectorINS1_12basic_stringIcNS1_11char_traitsIcEENS1_9allocatorIcEEEENS7_IS9_EEEES9_EEEEES9_RKT_, symObjAddr: 0x18D4AC, symBinAddr: 0x10018EC98, symSize: 0x0 }
  - { offset: 0xE1CD, size: 0x8, addend: 0x0, symName: __ZN7testing13PrintToStringINSt3__15tupleIJNS1_6vectorINS1_12basic_stringIcNS1_11char_traitsIcEENS1_9allocatorIcEEEENS7_IS9_EEEESB_iEEEEES9_RKT_, symObjAddr: 0x19F098, symBinAddr: 0x1001A0884, symSize: 0x0 }
  - { offset: 0xE218, size: 0x8, addend: 0x0, symName: __ZN7testing13PrintToStringINSt3__15tupleIJNS1_12basic_stringIcNS1_11char_traitsIcEENS1_9allocatorIcEEEENS1_6vectorIS8_NS6_IS8_EEEES8_S8_EEEEES8_RKT_, symObjAddr: 0x1B0E1C, symBinAddr: 0x1001B2608, symSize: 0x0 }
  - { offset: 0xE263, size: 0x8, addend: 0x0, symName: __ZN7testing13PrintToStringINSt3__15tupleIJNS1_12basic_stringIcNS1_11char_traitsIcEENS1_9allocatorIcEEEES8_S8_EEEEES8_RKT_, symObjAddr: 0x1C2DFC, symBinAddr: 0x1001C45E8, symSize: 0x0 }
  - { offset: 0x191C5, size: 0x8, addend: 0x0, symName: __ZNSt3__124__put_character_sequenceB8ne190107IcNS_11char_traitsIcEEEERNS_13basic_ostreamIT_T0_EES7_PKS4_m, symObjAddr: 0x25518, symBinAddr: 0x100026D04, symSize: 0x0 }
  - { offset: 0x19B7E, size: 0x8, addend: 0x0, symName: __ZNSt3__17advanceB8ne190107IPNS_12basic_stringIcNS_11char_traitsIcEENS_9allocatorIcEEEEllTnNS_9enable_ifIXsr11is_integralIT1_EE5valueEiE4typeELi0EEEvRT_T0_, symObjAddr: 0x3A93C, symBinAddr: 0x10003C128, symSize: 0x0 }
  - { offset: 0x1C7EE, size: 0x8, addend: 0x0, symName: __ZNSt3__17advanceB8ne190107IPN7testing7MatcherIRKNS_12basic_stringIcNS_11char_traitsIcEENS_9allocatorIcEEEEEEllTnNS_9enable_ifIXsr11is_integralIT1_EE5valueEiE4typeELi0EEEvRT_T0_, symObjAddr: 0x563EC, symBinAddr: 0x100057BD8, symSize: 0x0 }
  - { offset: 0x220C9, size: 0x8, addend: 0x0, symName: __ZNSt3__17advanceB8ne190107IPNS_5tupleIJNS_12basic_stringIcNS_11char_traitsIcEENS_9allocatorIcEEEES7_EEEllTnNS_9enable_ifIXsr11is_integralIT1_EE5valueEiE4typeELi0EEEvRT_T0_, symObjAddr: 0x7B9D8, symBinAddr: 0x10007D1C4, symSize: 0x0 }
  - { offset: 0x2811E, size: 0x8, addend: 0x0, symName: __ZNSt3__17advanceB8ne190107IPNS_5tupleIJNS_12basic_stringIcNS_11char_traitsIcEENS_9allocatorIcEEEENS_6vectorIS7_NS5_IS7_EEEEEEEllTnNS_9enable_ifIXsr11is_integralIT1_EE5valueEiE4typeELi0EEEvRT_T0_, symObjAddr: 0xA2B78, symBinAddr: 0x1000A4364, symSize: 0x0 }
  - { offset: 0x2E116, size: 0x8, addend: 0x0, symName: __ZNSt3__17advanceB8ne190107IPNS_5tupleIJNS_6vectorINS_12basic_stringIcNS_11char_traitsIcEENS_9allocatorIcEEEENS6_IS8_EEEES8_EEEllTnNS_9enable_ifIXsr11is_integralIT1_EE5valueEiE4typeELi0EEEvRT_T0_, symObjAddr: 0xC3540, symBinAddr: 0x1000C4D2C, symSize: 0x0 }
  - { offset: 0x33EED, size: 0x8, addend: 0x0, symName: __ZNSt3__17advanceB8ne190107IPNS_5tupleIJNS_6vectorINS_12basic_stringIcNS_11char_traitsIcEENS_9allocatorIcEEEENS6_IS8_EEEESA_iEEEllTnNS_9enable_ifIXsr11is_integralIT1_EE5valueEiE4typeELi0EEEvRT_T0_, symObjAddr: 0xE8CF4, symBinAddr: 0x1000EA4E0, symSize: 0x0 }
  - { offset: 0x39907, size: 0x8, addend: 0x0, symName: __ZNSt3__17advanceB8ne190107IPNS_5tupleIJNS_12basic_stringIcNS_11char_traitsIcEENS_9allocatorIcEEEENS_6vectorIS7_NS5_IS7_EEEES7_S7_EEEllTnNS_9enable_ifIXsr11is_integralIT1_EE5valueEiE4typeELi0EEEvRT_T0_, symObjAddr: 0x11512C, symBinAddr: 0x100116918, symSize: 0x0 }
  - { offset: 0x3F047, size: 0x8, addend: 0x0, symName: __ZNSt3__17advanceB8ne190107IPNS_5tupleIJNS_12basic_stringIcNS_11char_traitsIcEENS_9allocatorIcEEEES7_S7_EEEllTnNS_9enable_ifIXsr11is_integralIT1_EE5valueEiE4typeELi0EEEvRT_T0_, symObjAddr: 0x1388AC, symBinAddr: 0x10013A098, symSize: 0x0 }
  - { offset: 0x44F92, size: 0x8, addend: 0x0, symName: __ZNSt3__17advanceB8ne190107IPN7testing8internal26ParameterizedTestSuiteInfoIN12_GLOBAL__N_115CaesarDec_CleanEE17InstantiationInfoEllTnNS_9enable_ifIXsr11is_integralIT1_EE5valueEiE4typeELi0EEEvRT_T0_, symObjAddr: 0x1742B4, symBinAddr: 0x100175AA0, symSize: 0x0 }
  - { offset: 0x45349, size: 0x8, addend: 0x0, symName: __ZNSt3__17advanceB8ne190107IPN7testing8internal26ParameterizedTestSuiteInfoIN12_GLOBAL__N_121CaesarDec_SplitSpacesEE17InstantiationInfoEllTnNS_9enable_ifIXsr11is_integralIT1_EE5valueEiE4typeELi0EEEvRT_T0_, symObjAddr: 0x185EF8, symBinAddr: 0x1001876E4, symSize: 0x0 }
  - { offset: 0x45700, size: 0x8, addend: 0x0, symName: __ZNSt3__17advanceB8ne190107IPN7testing8internal26ParameterizedTestSuiteInfoIN12_GLOBAL__N_124CaesarDec_JoinWithSpacesEE17InstantiationInfoEllTnNS_9enable_ifIXsr11is_integralIT1_EE5valueEiE4typeELi0EEEvRT_T0_, symObjAddr: 0x197B3C, symBinAddr: 0x100199328, symSize: 0x0 }
  - { offset: 0x45AB7, size: 0x8, addend: 0x0, symName: __ZNSt3__17advanceB8ne190107IPN7testing8internal26ParameterizedTestSuiteInfoIN12_GLOBAL__N_120CaesarDec_NumWordsInEE17InstantiationInfoEllTnNS_9enable_ifIXsr11is_integralIT1_EE5valueEiE4typeELi0EEEvRT_T0_, symObjAddr: 0x1A985C, symBinAddr: 0x1001AB048, symSize: 0x0 }
  - { offset: 0x45E6E, size: 0x8, addend: 0x0, symName: __ZNSt3__17advanceB8ne190107IPN7testing8internal26ParameterizedTestSuiteInfoIN12_GLOBAL__N_127CaesarDec_CustomDictCommandEE17InstantiationInfoEllTnNS_9enable_ifIXsr11is_integralIT1_EE5valueEiE4typeELi0EEEvRT_T0_, symObjAddr: 0x1BB870, symBinAddr: 0x1001BD05C, symSize: 0x0 }
  - { offset: 0x46225, size: 0x8, addend: 0x0, symName: __ZNSt3__17advanceB8ne190107IPN7testing8internal26ParameterizedTestSuiteInfoIN12_GLOBAL__N_129CaesarDec_FullDictMainCommandEE17InstantiationInfoEllTnNS_9enable_ifIXsr11is_integralIT1_EE5valueEiE4typeELi0EEEvRT_T0_, symObjAddr: 0x1CD690, symBinAddr: 0x1001CEE7C, symSize: 0x0 }
  - { offset: 0x4765A, size: 0x8, addend: 0x0, symName: __ZNSt3__118__constexpr_strlenB8ne190107IcEEmPKT_, symObjAddr: 0x170FC, symBinAddr: 0x1000188E8, symSize: 0x0 }
  - { offset: 0x49EAA, size: 0x8, addend: 0x0, symName: __ZNSt3__1lsB8ne190107INS_11char_traitsIcEEEERNS_13basic_ostreamIcT_EES6_PKc, symObjAddr: 0x1B06C, symBinAddr: 0x10001C858, symSize: 0x0 }
  - { offset: 0x49EF0, size: 0x8, addend: 0x0, symName: __ZNSt3__1lsB8ne190107IcNS_11char_traitsIcEENS_9allocatorIcEEEERNS_13basic_ostreamIT_T0_EES9_RKNS_12basic_stringIS6_S7_T1_EE, symObjAddr: 0x1C380, symBinAddr: 0x10001DB6C, symSize: 0x0 }
  - { offset: 0x49F48, size: 0x8, addend: 0x0, symName: __ZNSt3__13getB8ne190107ILm1EJPKN7testing8internal11MatcherBaseIRKNS_6vectorINS_12basic_stringIcNS_11char_traitsIcEENS_9allocatorIcEEEENS8_ISA_EEEEEEPKNS1_16MatcherInterfaceISE_EEEEEONS_13tuple_elementIXT_ENS_5tupleIJDpT0_EEEE4typeEOSQ_, symObjAddr: 0x20610, symBinAddr: 0x100021DFC, symSize: 0x0 }
  - { offset: 0x49F90, size: 0x8, addend: 0x0, symName: __ZNSt3__110make_tupleB8ne190107IJPKN7testing8internal11MatcherBaseIRKNS_6vectorINS_12basic_stringIcNS_11char_traitsIcEENS_9allocatorIcEEEENS8_ISA_EEEEEEPKNS1_16MatcherInterfaceISE_EEEEENS_5tupleIJDpNS_18__unwrap_ref_decayIT_E4typeEEEEDpOSO_, symObjAddr: 0x206E0, symBinAddr: 0x100021ECC, symSize: 0x0 }
  - { offset: 0x4A409, size: 0x8, addend: 0x0, symName: __ZNSt3__122__cxx_atomic_fetch_subB8ne190107IiEET_PNS_22__cxx_atomic_base_implIS1_EES1_NS_12memory_orderE, symObjAddr: 0x234D8, symBinAddr: 0x100024CC4, symSize: 0x0 }
  - { offset: 0x4A45E, size: 0x8, addend: 0x0, symName: __ZNSt3__116__pad_and_outputB8ne190107IcNS_11char_traitsIcEEEENS_19ostreambuf_iteratorIT_T0_EES6_PKS4_S8_S8_RNS_8ios_baseES4_, symObjAddr: 0x263CC, symBinAddr: 0x100027BB8, symSize: 0x0 }
  - { offset: 0x4A539, size: 0x8, addend: 0x0, symName: __ZNSt3__112__to_addressB8ne190107IcEEPT_S2_, symObjAddr: 0x27920, symBinAddr: 0x10002910C, symSize: 0x0 }
  - { offset: 0x4A56E, size: 0x8, addend: 0x0, symName: __ZNSt3__19use_facetB8ne190107INS_5ctypeIcEEEERKT_RKNS_6localeE, symObjAddr: 0x28854, symBinAddr: 0x10002A040, symSize: 0x0 }
  - { offset: 0x4AA49, size: 0x8, addend: 0x0, symName: __ZNSt3__1lsB8ne190107INS_11char_traitsIcEEEERNS_13basic_ostreamIcT_EES6_c, symObjAddr: 0x29A94, symBinAddr: 0x10002B280, symSize: 0x0 }
  - { offset: 0x4AA94, size: 0x8, addend: 0x0, symName: __ZNSt3__1eqB8ne190107IPKNS_12basic_stringIcNS_11char_traitsIcEENS_9allocatorIcEEEEEEbRKNS_11__wrap_iterIT_EESD_, symObjAddr: 0x29E0C, symBinAddr: 0x10002B5F8, symSize: 0x0 }
  - { offset: 0x4AAD7, size: 0x8, addend: 0x0, symName: __ZNSt3__110__str_findB8ne190107IcmNS_11char_traitsIcEETnT0_Lm18446744073709551615EEES3_PKT_S3_S6_S3_S3_, symObjAddr: 0x2AE84, symBinAddr: 0x10002C670, symSize: 0x0 }
  - { offset: 0x4AB7E, size: 0x8, addend: 0x0, symName: __ZNSt3__118__search_substringB8ne190107IcNS_11char_traitsIcEEEEPKT_S5_S5_S5_S5_, symObjAddr: 0x2B274, symBinAddr: 0x10002CA60, symSize: 0x0 }
  - { offset: 0x4AC22, size: 0x8, addend: 0x0, symName: __ZNSt3__118__constexpr_memchrB8ne190107IKccEEPT_S3_T0_m, symObjAddr: 0x2B7DC, symBinAddr: 0x10002CFC8, symSize: 0x0 }
  - { offset: 0x4AC99, size: 0x8, addend: 0x0, symName: __ZNSt3__112__to_addressB8ne190107IKcEEPT_S3_, symObjAddr: 0x2B830, symBinAddr: 0x10002D01C, symSize: 0x0 }
  - { offset: 0x4AD02, size: 0x8, addend: 0x0, symName: __ZNSt3__119__str_find_first_ofB8ne190107IcmNS_11char_traitsIcEETnT0_Lm18446744073709551615EEES3_PKT_S3_S6_S3_S3_, symObjAddr: 0x2BCB8, symBinAddr: 0x10002D4A4, symSize: 0x0 }
  - { offset: 0x4ADA9, size: 0x8, addend: 0x0, symName: __ZNSt3__118__find_first_of_ceB8ne190107IPKcS2_RDoFbccEEET_S5_S5_T0_S6_OT1_, symObjAddr: 0x2C060, symBinAddr: 0x10002D84C, symSize: 0x0 }
  - { offset: 0x4AE44, size: 0x8, addend: 0x0, symName: __ZNSt3__1eqB8ne190107INS_12basic_stringIcNS_11char_traitsIcEENS_9allocatorIcEEEENS_14default_deleteIS6_EEEEbRKNS_10unique_ptrIT_T0_EEDn, symObjAddr: 0x2C9FC, symBinAddr: 0x10002E1E8, symSize: 0x0 }
  - { offset: 0x4AE8F, size: 0x8, addend: 0x0, symName: __ZNSt3__111make_uniqueB8ne190107INS_12basic_stringIcNS_11char_traitsIcEENS_9allocatorIcEEEEJEEENS_11__unique_ifIT_E15__unique_singleEDpOT0_, symObjAddr: 0x2CA58, symBinAddr: 0x10002E244, symSize: 0x0 }
  - { offset: 0x4AEBD, size: 0x8, addend: 0x0, symName: __ZNSt3__110to_addressB8ne190107IcEEDaPT_, symObjAddr: 0x2F674, symBinAddr: 0x100030E60, symSize: 0x0 }
  - { offset: 0x4AEF3, size: 0x8, addend: 0x0, symName: __ZNSt3__112__to_addressB8ne190107INS_12basic_stringIcNS_11char_traitsIcEENS_9allocatorIcEEEEEEPT_S8_, symObjAddr: 0x31B7C, symBinAddr: 0x100033368, symSize: 0x0 }
  - { offset: 0x4AF29, size: 0x8, addend: 0x0, symName: __ZNSt3__112__destroy_atB8ne190107INS_12basic_stringIcNS_11char_traitsIcEENS_9allocatorIcEEEETnNS_9enable_ifIXntsr8is_arrayIT_EE5valueEiE4typeELi0EEEvPS8_, symObjAddr: 0x31B98, symBinAddr: 0x100033384, symSize: 0x0 }
  - { offset: 0x4AF62, size: 0x8, addend: 0x0, symName: __ZNSt3__131__annotate_contiguous_containerB8ne190107INS_9allocatorINS_12basic_stringIcNS_11char_traitsIcEENS1_IcEEEEEEEEvPKvS9_S9_S9_, symObjAddr: 0x31DE8, symBinAddr: 0x1000335D4, symSize: 0x0 }
  - { offset: 0x4AFBD, size: 0x8, addend: 0x0, symName: __ZNSt3__119__libcpp_deallocateB8ne190107EPvmm, symObjAddr: 0x31EB0, symBinAddr: 0x10003369C, symSize: 0x0 }
  - { offset: 0x4B023, size: 0x8, addend: 0x0, symName: __ZNSt3__124__is_overaligned_for_newB8ne190107Em, symObjAddr: 0x31F18, symBinAddr: 0x100033704, symSize: 0x0 }
  - { offset: 0x4B04F, size: 0x8, addend: 0x0, symName: __ZNSt3__127__do_deallocate_handle_sizeB8ne190107IJSt11align_val_tEEEvPvmDpT_, symObjAddr: 0x31F3C, symBinAddr: 0x100033728, symSize: 0x0 }
  - { offset: 0x4B0A2, size: 0x8, addend: 0x0, symName: __ZNSt3__127__do_deallocate_handle_sizeB8ne190107IJEEEvPvmDpT_, symObjAddr: 0x31F78, symBinAddr: 0x100033764, symSize: 0x0 }
  - { offset: 0x4B0E1, size: 0x8, addend: 0x0, symName: __ZNSt3__124__libcpp_operator_deleteB8ne190107IJPvmSt11align_val_tEEEvDpT_, symObjAddr: 0x31FAC, symBinAddr: 0x100033798, symSize: 0x0 }
  - { offset: 0x4B13E, size: 0x8, addend: 0x0, symName: __ZNSt3__124__libcpp_operator_deleteB8ne190107IJPvmEEEvDpT_, symObjAddr: 0x31FE8, symBinAddr: 0x1000337D4, symSize: 0x0 }
  - { offset: 0x4B187, size: 0x8, addend: 0x0, symName: __ZNSt3__122__make_exception_guardB8ne190107INS_6vectorINS_12basic_stringIcNS_11char_traitsIcEENS_9allocatorIcEEEENS5_IS7_EEE16__destroy_vectorEEENS_28__exception_guard_exceptionsIT_EESC_, symObjAddr: 0x35E2C, symBinAddr: 0x100037618, symSize: 0x0 }
  - { offset: 0x4B1BC, size: 0x8, addend: 0x0, symName: __ZNSt3__119__allocate_at_leastB8ne190107INS_9allocatorINS_12basic_stringIcNS_11char_traitsIcEENS1_IcEEEEEEEENS_19__allocation_resultINS_16allocator_traitsIT_E7pointerEEERSA_m, symObjAddr: 0x36FAC, symBinAddr: 0x100038798, symSize: 0x0 }
  - { offset: 0x4B1FF, size: 0x8, addend: 0x0, symName: __ZNSt3__13minB8ne190107ImEERKT_S3_S3_, symObjAddr: 0x372CC, symBinAddr: 0x100038AB8, symSize: 0x0 }
  - { offset: 0x4B42C, size: 0x8, addend: 0x0, symName: __ZNSt3__13minB8ne190107ImNS_6__lessIvvEEEERKT_S5_S5_T0_, symObjAddr: 0x374E4, symBinAddr: 0x100038CD0, symSize: 0x0 }
  - { offset: 0x4B4D4, size: 0x8, addend: 0x0, symName: __ZNSt3__120__throw_length_errorB8ne190107EPKc, symObjAddr: 0x37990, symBinAddr: 0x10003917C, symSize: 0x0 }
  - { offset: 0x4B4FC, size: 0x8, addend: 0x0, symName: __ZNSt3__117__libcpp_allocateB8ne190107Emm, symObjAddr: 0x37CE0, symBinAddr: 0x1000394CC, symSize: 0x0 }
  - { offset: 0x4B556, size: 0x8, addend: 0x0, symName: __ZNSt3__121__libcpp_operator_newB8ne190107IJmSt11align_val_tEEEPvDpT_, symObjAddr: 0x37D48, symBinAddr: 0x100039534, symSize: 0x0 }
  - { offset: 0x4B5A3, size: 0x8, addend: 0x0, symName: __ZNSt3__121__libcpp_operator_newB8ne190107IJmEEEPvDpT_, symObjAddr: 0x37DB8, symBinAddr: 0x1000395A4, symSize: 0x0 }
  - { offset: 0x4B5DC, size: 0x8, addend: 0x0, symName: __ZNSt3__130__uninitialized_allocator_copyB8ne190107INS_9allocatorINS_12basic_stringIcNS_11char_traitsIcEENS1_IcEEEEEEPKS6_S9_PS6_EET2_RT_T0_T1_SB_, symObjAddr: 0x37F44, symBinAddr: 0x100039730, symSize: 0x0 }
  - { offset: 0x4B682, size: 0x8, addend: 0x0, symName: __ZNSt3__114__unwrap_rangeB8ne190107IPKNS_12basic_stringIcNS_11char_traitsIcEENS_9allocatorIcEEEES8_EEDaT_T0_, symObjAddr: 0x38830, symBinAddr: 0x10003A01C, symSize: 0x0 }
  - { offset: 0x4B6CE, size: 0x8, addend: 0x0, symName: __ZNSt3__135__uninitialized_allocator_copy_implB8ne190107INS_9allocatorINS_12basic_stringIcNS_11char_traitsIcEENS1_IcEEEEEEPKS6_S9_PS6_EET2_RT_T0_T1_SB_, symObjAddr: 0x38874, symBinAddr: 0x10003A060, symSize: 0x0 }
  - { offset: 0x4B77A, size: 0x8, addend: 0x0, symName: __ZNSt3__113__unwrap_iterB8ne190107IPNS_12basic_stringIcNS_11char_traitsIcEENS_9allocatorIcEEEENS_18__unwrap_iter_implIS7_Lb1EEETnNS_9enable_ifIXsr21is_copy_constructibleIT_EE5valueEiE4typeELi0EEEDTclsrT0_8__unwrapclsr3stdE7declvalISB_EEEESB_, symObjAddr: 0x38D9C, symBinAddr: 0x10003A588, symSize: 0x0 }
  - { offset: 0x4B7BF, size: 0x8, addend: 0x0, symName: __ZNSt3__113__rewrap_iterB8ne190107IPNS_12basic_stringIcNS_11char_traitsIcEENS_9allocatorIcEEEES7_NS_18__unwrap_iter_implIS7_Lb1EEEEET_SA_T0_, symObjAddr: 0x38DC8, symBinAddr: 0x10003A5B4, symSize: 0x0 }
  - { offset: 0x4B917, size: 0x8, addend: 0x0, symName: __ZNSt3__113__unwrap_iterB8ne190107IPKNS_12basic_stringIcNS_11char_traitsIcEENS_9allocatorIcEEEENS_18__unwrap_iter_implIS8_Lb1EEETnNS_9enable_ifIXsr21is_copy_constructibleIT_EE5valueEiE4typeELi0EEEDTclsrT0_8__unwrapclsr3stdE7declvalISC_EEEESC_, symObjAddr: 0x39068, symBinAddr: 0x10003A854, symSize: 0x0 }
  - { offset: 0x4B9B1, size: 0x8, addend: 0x0, symName: __ZNSt3__112__to_addressB8ne190107IKNS_12basic_stringIcNS_11char_traitsIcEENS_9allocatorIcEEEEEEPT_S9_, symObjAddr: 0x39134, symBinAddr: 0x10003A920, symSize: 0x0 }
  - { offset: 0x4B9E6, size: 0x8, addend: 0x0, symName: __ZNSt3__122__make_exception_guardB8ne190107INS_29_AllocatorDestroyRangeReverseINS_9allocatorINS_12basic_stringIcNS_11char_traitsIcEENS2_IcEEEEEEPS7_EEEENS_28__exception_guard_exceptionsIT_EESC_, symObjAddr: 0x39328, symBinAddr: 0x10003AB14, symSize: 0x0 }
  - { offset: 0x4BA1D, size: 0x8, addend: 0x0, symName: __ZNSt3__114__construct_atB8ne190107INS_12basic_stringIcNS_11char_traitsIcEENS_9allocatorIcEEEEJRKS6_EPS6_EEPT_SB_DpOT0_, symObjAddr: 0x39A68, symBinAddr: 0x10003B254, symSize: 0x0 }
  - { offset: 0x4BA97, size: 0x8, addend: 0x0, symName: __ZNSt3__112construct_atB8ne190107INS_12basic_stringIcNS_11char_traitsIcEENS_9allocatorIcEEEEJRKS6_EPS6_EEPT_SB_DpOT0_, symObjAddr: 0x39ADC, symBinAddr: 0x10003B2C8, symSize: 0x0 }
  - { offset: 0x4BB09, size: 0x8, addend: 0x0, symName: __ZNSt3__119__allocator_destroyB8ne190107INS_9allocatorINS_12basic_stringIcNS_11char_traitsIcEENS1_IcEEEEEENS_16reverse_iteratorIPS6_EESA_EEvRT_T0_T1_, symObjAddr: 0x3A058, symBinAddr: 0x10003B844, symSize: 0x0 }
  - { offset: 0x4BB75, size: 0x8, addend: 0x0, symName: __ZNSt3__1neB8ne190107IPNS_12basic_stringIcNS_11char_traitsIcEENS_9allocatorIcEEEES7_EEbRKNS_16reverse_iteratorIT_EERKNS8_IT0_EEQrqXnecldtfp_4baseEcldtfp0_4baseERNS_14convertible_toIbEEE, symObjAddr: 0x3A310, symBinAddr: 0x10003BAFC, symSize: 0x0 }
  - { offset: 0x4BBC1, size: 0x8, addend: 0x0, symName: __ZNSt3__112__to_addressB8ne190107INS_16reverse_iteratorIPNS_12basic_stringIcNS_11char_traitsIcEENS_9allocatorIcEEEEEETnNS_9enable_ifIXsr4_AndINS_8is_classIT_EENS_15_IsFancyPointerISC_EEEE5valueEiE4typeELi0EEEu7__decayIDTclsr19__to_address_helperISC_EE6__callclsr3stdE7declvalIRKSC_EEEEESJ_, symObjAddr: 0x3A3A8, symBinAddr: 0x10003BB94, symSize: 0x0 }
  - { offset: 0x4BC27, size: 0x8, addend: 0x0, symName: __ZNSt3__14prevB8ne190107IPNS_12basic_stringIcNS_11char_traitsIcEENS_9allocatorIcEEEETnNS_9enable_ifIXsr29__has_input_iterator_categoryIT_EE5valueEiE4typeELi0EEES9_S9_NS_15iterator_traitsIS9_E15difference_typeE, symObjAddr: 0x3A748, symBinAddr: 0x10003BF34, symSize: 0x0 }
  - { offset: 0x4BC77, size: 0x8, addend: 0x0, symName: __ZNSt3__121__convert_to_integralB8ne190107El, symObjAddr: 0x3A9B4, symBinAddr: 0x10003C1A0, symSize: 0x0 }
  - { offset: 0x4BCA4, size: 0x8, addend: 0x0, symName: __ZNSt3__19__advanceB8ne190107IPNS_12basic_stringIcNS_11char_traitsIcEENS_9allocatorIcEEEEEEvRT_NS_15iterator_traitsIS8_E15difference_typeENS_26random_access_iterator_tagE, symObjAddr: 0x3A9D0, symBinAddr: 0x10003C1BC, symSize: 0x0 }
  - { offset: 0x4BD42, size: 0x8, addend: 0x0, symName: __ZNSt3__13getB8ne190107ILm0EJPKN7testing8internal11MatcherBaseIRKPNS_12basic_stringIcNS_11char_traitsIcEENS_9allocatorIcEEEEEEPKNS2_9EqMatcherISA_EEEEEONS_13tuple_elementIXT_ENS_5tupleIJDpT0_EEEE4typeEOSO_, symObjAddr: 0x3ECD8, symBinAddr: 0x1000404C4, symSize: 0x0 }
  - { offset: 0x4BD8A, size: 0x8, addend: 0x0, symName: __ZNSt3__110make_tupleB8ne190107IJPKN7testing8internal11MatcherBaseIRKPNS_12basic_stringIcNS_11char_traitsIcEENS_9allocatorIcEEEEEEPKNS2_9EqMatcherISA_EEEEENS_5tupleIJDpNS_18__unwrap_ref_decayIT_E4typeEEEEDpOSM_, symObjAddr: 0x3ED98, symBinAddr: 0x100040584, symSize: 0x0 }
  - { offset: 0x4C1E7, size: 0x8, addend: 0x0, symName: __ZNSt3__122__make_exception_guardB8ne190107INS_6vectorIPKcNS_9allocatorIS3_EEE16__destroy_vectorEEENS_28__exception_guard_exceptionsIT_EES9_, symObjAddr: 0x41398, symBinAddr: 0x100042B84, symSize: 0x0 }
  - { offset: 0x4C21C, size: 0x8, addend: 0x0, symName: __ZNSt3__119__allocate_at_leastB8ne190107INS_9allocatorIPKcEEEENS_19__allocation_resultINS_16allocator_traitsIT_E7pointerEEERS7_m, symObjAddr: 0x423A4, symBinAddr: 0x100043B90, symSize: 0x0 }
  - { offset: 0x4C260, size: 0x8, addend: 0x0, symName: __ZNSt3__131__annotate_contiguous_containerB8ne190107INS_9allocatorIPKcEEEEvPKvS6_S6_S6_, symObjAddr: 0x42E34, symBinAddr: 0x100044620, symSize: 0x0 }
  - { offset: 0x4C2BC, size: 0x8, addend: 0x0, symName: __ZNSt3__112__to_addressB8ne190107IPKcEEPT_S4_, symObjAddr: 0x42E88, symBinAddr: 0x100044674, symSize: 0x0 }
  - { offset: 0x4C2F1, size: 0x8, addend: 0x0, symName: __ZNSt3__130__uninitialized_allocator_copyB8ne190107INS_9allocatorIPKcEEPS3_S5_S5_EET2_RT_T0_T1_S6_, symObjAddr: 0x43168, symBinAddr: 0x100044954, symSize: 0x0 }
  - { offset: 0x4C397, size: 0x8, addend: 0x0, symName: __ZNSt3__114__unwrap_rangeB8ne190107IPPKcS3_EEDaT_T0_, symObjAddr: 0x43A34, symBinAddr: 0x100045220, symSize: 0x0 }
  - { offset: 0x4C3E3, size: 0x8, addend: 0x0, symName: __ZNSt3__135__uninitialized_allocator_copy_implB8ne190107INS_9allocatorIPKcEES3_S3_S3_TnNS_9enable_ifIXaaaaaasr31is_trivially_copy_constructibleIT1_EE5valuesr28is_trivially_copy_assignableIS6_EE5valuesr7is_sameIu14__remove_constIT0_Eu14__remove_constIT2_EEE5valuesr38__allocator_has_trivial_copy_constructIT_S6_EE5valueEiE4typeELi0EEEPS9_RSB_PS7_SG_SE_, symObjAddr: 0x43A78, symBinAddr: 0x100045264, symSize: 0x0 }
  - { offset: 0x4C465, size: 0x8, addend: 0x0, symName: __ZNSt3__113__unwrap_iterB8ne190107IPPKcNS_18__unwrap_iter_implIS3_Lb1EEETnNS_9enable_ifIXsr21is_copy_constructibleIT_EE5valueEiE4typeELi0EEEDTclsrT0_8__unwrapclsr3stdE7declvalIS7_EEEES7_, symObjAddr: 0x43AB8, symBinAddr: 0x1000452A4, symSize: 0x0 }
  - { offset: 0x4C4AA, size: 0x8, addend: 0x0, symName: __ZNSt3__113__rewrap_iterB8ne190107IPPKcS3_NS_18__unwrap_iter_implIS3_Lb1EEEEET_S6_T0_, symObjAddr: 0x43AE4, symBinAddr: 0x1000452D0, symSize: 0x0 }
  - { offset: 0x4C64C, size: 0x8, addend: 0x0, symName: __ZNSt3__14copyB8ne190107IPPKcS3_EET0_T_S5_S4_, symObjAddr: 0x43FD0, symBinAddr: 0x1000457BC, symSize: 0x0 }
  - { offset: 0x4C6A9, size: 0x8, addend: 0x0, symName: __ZNSt3__16__copyB8ne190107INS_17_ClassicAlgPolicyEPPKcS4_S4_EENS_4pairIT0_T2_EES6_T1_S7_, symObjAddr: 0x441F0, symBinAddr: 0x1000459DC, symSize: 0x0 }
  - { offset: 0x4C715, size: 0x8, addend: 0x0, symName: __ZNSt3__124__copy_move_unwrap_itersB8ne190107INS_11__copy_implINS_17_ClassicAlgPolicyEEEPPKcS6_S6_TnNS_9enable_ifIXsr12__can_rewrapIT0_T2_EE5valueEiE4typeELi0EEENS_4pairIS8_S9_EES8_T1_S9_, symObjAddr: 0x4423C, symBinAddr: 0x100045A28, symSize: 0x0 }
  - { offset: 0x4C846, size: 0x8, addend: 0x0, symName: __ZNSt3__19make_pairB8ne190107IPPKcS3_EENS_4pairINS_18__unwrap_ref_decayIT_E4typeENS5_IT0_E4typeEEEOS6_OS9_, symObjAddr: 0x44668, symBinAddr: 0x100045E54, symSize: 0x0 }
  - { offset: 0x4C897, size: 0x8, addend: 0x0, symName: __ZNSt3__114__rewrap_rangeB8ne190107IPPKcS3_S3_EET0_S4_T1_, symObjAddr: 0x448A0, symBinAddr: 0x10004608C, symSize: 0x0 }
  - { offset: 0x4C8EC, size: 0x8, addend: 0x0, symName: __ZNSt3__119__copy_trivial_implB8ne190107IPKcS2_EENS_4pairIPT_PT0_EES5_S5_S7_, symObjAddr: 0x448D4, symBinAddr: 0x1000460C0, symSize: 0x0 }
  - { offset: 0x4C95B, size: 0x8, addend: 0x0, symName: __ZNSt3__119__constexpr_memmoveB8ne190107IPKcS2_TnNS_9enable_ifIXsr23__is_always_bitcastableIT0_T_EE5valueEiE4typeELi0EEEPS5_S8_PS4_NS_15__element_countE, symObjAddr: 0x44BCC, symBinAddr: 0x1000463B8, symSize: 0x0 }
  - { offset: 0x4C9CA, size: 0x8, addend: 0x0, symName: __ZNSt3__19make_pairB8ne190107IRPPKcS3_EENS_4pairINS_18__unwrap_ref_decayIT_E4typeENS6_IT0_E4typeEEEOS7_OSA_, symObjAddr: 0x44C90, symBinAddr: 0x10004647C, symSize: 0x0 }
  - { offset: 0x4CA70, size: 0x8, addend: 0x0, symName: __ZNSt3__112__destroy_atB8ne190107IPKcTnNS_9enable_ifIXntsr8is_arrayIT_EE5valueEiE4typeELi0EEEvPS4_, symObjAddr: 0x46154, symBinAddr: 0x100047940, symSize: 0x0 }
  - { offset: 0x4CAA8, size: 0x8, addend: 0x0, symName: __ZNSt3__18distanceB8ne190107IPKPKcEENS_15iterator_traitsIT_E15difference_typeES6_S6_, symObjAddr: 0x469C8, symBinAddr: 0x1000481B4, symSize: 0x0 }
  - { offset: 0x4CAEC, size: 0x8, addend: 0x0, symName: __ZNSt3__110__distanceB8ne190107IPKPKcEENS_15iterator_traitsIT_E15difference_typeES6_S6_NS_26random_access_iterator_tagE, symObjAddr: 0x46F98, symBinAddr: 0x100048784, symSize: 0x0 }
  - { offset: 0x4CB3A, size: 0x8, addend: 0x0, symName: __ZNSt3__130__uninitialized_allocator_copyB8ne190107INS_9allocatorIPKcEEPKS3_S6_PS3_EET2_RT_T0_T1_S8_, symObjAddr: 0x4739C, symBinAddr: 0x100048B88, symSize: 0x0 }
  - { offset: 0x4CBE0, size: 0x8, addend: 0x0, symName: __ZNSt3__114__unwrap_rangeB8ne190107IPKPKcS4_EEDaT_T0_, symObjAddr: 0x47608, symBinAddr: 0x100048DF4, symSize: 0x0 }
  - { offset: 0x4CC2C, size: 0x8, addend: 0x0, symName: __ZNSt3__135__uninitialized_allocator_copy_implB8ne190107INS_9allocatorIPKcEEKS3_S3_S3_TnNS_9enable_ifIXaaaaaasr31is_trivially_copy_constructibleIT1_EE5valuesr28is_trivially_copy_assignableIS7_EE5valuesr7is_sameIu14__remove_constIT0_Eu14__remove_constIT2_EEE5valuesr38__allocator_has_trivial_copy_constructIT_S7_EE5valueEiE4typeELi0EEEPSA_RSC_PS8_SH_SF_, symObjAddr: 0x4764C, symBinAddr: 0x100048E38, symSize: 0x0 }
  - { offset: 0x4CDCB, size: 0x8, addend: 0x0, symName: __ZNSt3__113__unwrap_iterB8ne190107IPKPKcNS_18__unwrap_iter_implIS4_Lb1EEETnNS_9enable_ifIXsr21is_copy_constructibleIT_EE5valueEiE4typeELi0EEEDTclsrT0_8__unwrapclsr3stdE7declvalIS8_EEEES8_, symObjAddr: 0x478DC, symBinAddr: 0x1000490C8, symSize: 0x0 }
  - { offset: 0x4CE65, size: 0x8, addend: 0x0, symName: __ZNSt3__112__to_addressB8ne190107IKPKcEEPT_S5_, symObjAddr: 0x479A8, symBinAddr: 0x100049194, symSize: 0x0 }
  - { offset: 0x4CE9A, size: 0x8, addend: 0x0, symName: __ZNSt3__14copyB8ne190107IPKPKcPS2_EET0_T_S7_S6_, symObjAddr: 0x47B9C, symBinAddr: 0x100049388, symSize: 0x0 }
  - { offset: 0x4CEF7, size: 0x8, addend: 0x0, symName: __ZNSt3__16__copyB8ne190107INS_17_ClassicAlgPolicyEPKPKcS5_PS3_EENS_4pairIT0_T2_EES8_T1_S9_, symObjAddr: 0x47DBC, symBinAddr: 0x1000495A8, symSize: 0x0 }
  - { offset: 0x4CF63, size: 0x8, addend: 0x0, symName: __ZNSt3__124__copy_move_unwrap_itersB8ne190107INS_11__copy_implINS_17_ClassicAlgPolicyEEEPKPKcS7_PS5_TnNS_9enable_ifIXsr12__can_rewrapIT0_T2_EE5valueEiE4typeELi0EEENS_4pairISA_SB_EESA_T1_SB_, symObjAddr: 0x47E08, symBinAddr: 0x1000495F4, symSize: 0x0 }
  - { offset: 0x4D102, size: 0x8, addend: 0x0, symName: __ZNSt3__19make_pairB8ne190107IPKPKcPS2_EENS_4pairINS_18__unwrap_ref_decayIT_E4typeENS7_IT0_E4typeEEEOS8_OSB_, symObjAddr: 0x48234, symBinAddr: 0x100049A20, symSize: 0x0 }
  - { offset: 0x4D153, size: 0x8, addend: 0x0, symName: __ZNSt3__114__rewrap_rangeB8ne190107IPKPKcS4_S4_EET0_S5_T1_, symObjAddr: 0x4846C, symBinAddr: 0x100049C58, symSize: 0x0 }
  - { offset: 0x4D1A8, size: 0x8, addend: 0x0, symName: __ZNSt3__119__copy_trivial_implB8ne190107IKPKcS2_EENS_4pairIPT_PT0_EES6_S6_S8_, symObjAddr: 0x484A0, symBinAddr: 0x100049C8C, symSize: 0x0 }
  - { offset: 0x4D217, size: 0x8, addend: 0x0, symName: __ZNSt3__119__constexpr_memmoveB8ne190107IPKcKS2_TnNS_9enable_ifIXsr23__is_always_bitcastableIT0_T_EE5valueEiE4typeELi0EEEPS6_S9_PS5_NS_15__element_countE, symObjAddr: 0x48798, symBinAddr: 0x100049F84, symSize: 0x0 }
  - { offset: 0x4D286, size: 0x8, addend: 0x0, symName: __ZNSt3__19make_pairB8ne190107IRPKPKcPS2_EENS_4pairINS_18__unwrap_ref_decayIT_E4typeENS8_IT0_E4typeEEEOS9_OSC_, symObjAddr: 0x4885C, symBinAddr: 0x10004A048, symSize: 0x0 }
  - { offset: 0x4D2D7, size: 0x8, addend: 0x0, symName: __ZNSt3__113__rewrap_iterB8ne190107IPKPKcS4_NS_18__unwrap_iter_implIS4_Lb1EEEEET_S7_T0_, symObjAddr: 0x48F60, symBinAddr: 0x10004A74C, symSize: 0x0 }
  - { offset: 0x4D32C, size: 0x8, addend: 0x0, symName: __ZNSt3__1eqB8ne190107IPKPKcEEbRKNS_11__wrap_iterIT_EES9_, symObjAddr: 0x49F1C, symBinAddr: 0x10004B708, symSize: 0x0 }
  - { offset: 0x4D370, size: 0x8, addend: 0x0, symName: __ZNSt3__112__to_addressB8ne190107IN7testing7MatcherIRKNS_12basic_stringIcNS_11char_traitsIcEENS_9allocatorIcEEEEEEEEPT_SD_, symObjAddr: 0x4E7BC, symBinAddr: 0x10004FFA8, symSize: 0x0 }
  - { offset: 0x4D3A6, size: 0x8, addend: 0x0, symName: __ZNSt3__131__annotate_contiguous_containerB8ne190107INS_9allocatorIN7testing7MatcherIRKNS_12basic_stringIcNS_11char_traitsIcEENS1_IcEEEEEEEEEEvPKvSE_SE_SE_, symObjAddr: 0x4F124, symBinAddr: 0x100050910, symSize: 0x0 }
  - { offset: 0x4D401, size: 0x8, addend: 0x0, symName: __ZNSt3__114__construct_atB8ne190107IN7testing7MatcherIRKNS_12basic_stringIcNS_11char_traitsIcEENS_9allocatorIcEEEEEEJSB_EPSB_EEPT_SE_DpOT0_, symObjAddr: 0x4F4EC, symBinAddr: 0x100050CD8, symSize: 0x0 }
  - { offset: 0x4D47B, size: 0x8, addend: 0x0, symName: __ZNSt3__112construct_atB8ne190107IN7testing7MatcherIRKNS_12basic_stringIcNS_11char_traitsIcEENS_9allocatorIcEEEEEEJSB_EPSB_EEPT_SE_DpOT0_, symObjAddr: 0x4F560, symBinAddr: 0x100050D4C, symSize: 0x0 }
  - { offset: 0x4D4ED, size: 0x8, addend: 0x0, symName: __ZNSt3__13maxB8ne190107ImEERKT_S3_S3_, symObjAddr: 0x52324, symBinAddr: 0x100053B10, symSize: 0x0 }
  - { offset: 0x4D530, size: 0x8, addend: 0x0, symName: __ZNSt3__13maxB8ne190107ImNS_6__lessIvvEEEERKT_S5_S5_T0_, symObjAddr: 0x52648, symBinAddr: 0x100053E34, symSize: 0x0 }
  - { offset: 0x4D590, size: 0x8, addend: 0x0, symName: __ZNSt3__119__allocate_at_leastB8ne190107INS_9allocatorIN7testing7MatcherIRKNS_12basic_stringIcNS_11char_traitsIcEENS1_IcEEEEEEEEEENS_19__allocation_resultINS_16allocator_traitsIT_E7pointerEEERSF_m, symObjAddr: 0x52F64, symBinAddr: 0x100054750, symSize: 0x0 }
  - { offset: 0x4D5D3, size: 0x8, addend: 0x0, symName: __ZNSt3__134__uninitialized_allocator_relocateB8ne190107INS_9allocatorIN7testing7MatcherIRKNS_12basic_stringIcNS_11char_traitsIcEENS1_IcEEEEEEEESB_EEvRT_PT0_SG_SG_, symObjAddr: 0x538D0, symBinAddr: 0x1000550BC, symSize: 0x0 }
  - { offset: 0x4D67F, size: 0x8, addend: 0x0, symName: __ZNSt3__14swapB8ne190107IPN7testing7MatcherIRKNS_12basic_stringIcNS_11char_traitsIcEENS_9allocatorIcEEEEEEEENS_9enable_ifIXaasr21is_move_constructibleIT_EE5valuesr18is_move_assignableISE_EE5valueEvE4typeERSE_SH_, symObjAddr: 0x53E24, symBinAddr: 0x100055610, symSize: 0x0 }
  - { offset: 0x4D6D0, size: 0x8, addend: 0x0, symName: __ZNSt3__122__make_exception_guardB8ne190107INS_29_AllocatorDestroyRangeReverseINS_9allocatorIN7testing7MatcherIRKNS_12basic_stringIcNS_11char_traitsIcEENS2_IcEEEEEEEEPSC_EEEENS_28__exception_guard_exceptionsIT_EESH_, symObjAddr: 0x541BC, symBinAddr: 0x1000559A8, symSize: 0x0 }
  - { offset: 0x4D707, size: 0x8, addend: 0x0, symName: __ZNSt3__119__allocator_destroyB8ne190107INS_9allocatorIN7testing7MatcherIRKNS_12basic_stringIcNS_11char_traitsIcEENS1_IcEEEEEEEEPSB_SD_EEvRT_T0_T1_, symObjAddr: 0x54580, symBinAddr: 0x100055D6C, symSize: 0x0 }
  - { offset: 0x4D76A, size: 0x8, addend: 0x0, symName: __ZNSt3__114__construct_atB8ne190107IN7testing7MatcherIRKNS_12basic_stringIcNS_11char_traitsIcEENS_9allocatorIcEEEEEEJRKSB_EPSB_EEPT_SG_DpOT0_, symObjAddr: 0x549F8, symBinAddr: 0x1000561E4, symSize: 0x0 }
  - { offset: 0x4D7BD, size: 0x8, addend: 0x0, symName: __ZNSt3__112construct_atB8ne190107IN7testing7MatcherIRKNS_12basic_stringIcNS_11char_traitsIcEENS_9allocatorIcEEEEEEJRKSB_EPSB_EEPT_SG_DpOT0_, symObjAddr: 0x54A6C, symBinAddr: 0x100056258, symSize: 0x0 }
  - { offset: 0x4D82F, size: 0x8, addend: 0x0, symName: __ZNSt3__122__cxx_atomic_fetch_addB8ne190107IiEET_PNS_22__cxx_atomic_base_implIS1_EES1_NS_12memory_orderE, symObjAddr: 0x55214, symBinAddr: 0x100056A00, symSize: 0x0 }
  - { offset: 0x4D885, size: 0x8, addend: 0x0, symName: __ZNSt3__112__destroy_atB8ne190107IN7testing7MatcherIRKNS_12basic_stringIcNS_11char_traitsIcEENS_9allocatorIcEEEEEETnNS_9enable_ifIXntsr8is_arrayIT_EE5valueEiE4typeELi0EEEvPSD_, symObjAddr: 0x5551C, symBinAddr: 0x100056D08, symSize: 0x0 }
  - { offset: 0x4D8BD, size: 0x8, addend: 0x0, symName: __ZNSt3__119__allocator_destroyB8ne190107INS_9allocatorIN7testing7MatcherIRKNS_12basic_stringIcNS_11char_traitsIcEENS1_IcEEEEEEEENS_16reverse_iteratorIPSB_EESF_EEvRT_T0_T1_, symObjAddr: 0x55B08, symBinAddr: 0x1000572F4, symSize: 0x0 }
  - { offset: 0x4D929, size: 0x8, addend: 0x0, symName: __ZNSt3__1neB8ne190107IPN7testing7MatcherIRKNS_12basic_stringIcNS_11char_traitsIcEENS_9allocatorIcEEEEEESC_EEbRKNS_16reverse_iteratorIT_EERKNSD_IT0_EEQrqXnecldtfp_4baseEcldtfp0_4baseERNS_14convertible_toIbEEE, symObjAddr: 0x55DC0, symBinAddr: 0x1000575AC, symSize: 0x0 }
  - { offset: 0x4D975, size: 0x8, addend: 0x0, symName: __ZNSt3__112__to_addressB8ne190107INS_16reverse_iteratorIPN7testing7MatcherIRKNS_12basic_stringIcNS_11char_traitsIcEENS_9allocatorIcEEEEEEEETnNS_9enable_ifIXsr4_AndINS_8is_classIT_EENS_15_IsFancyPointerISH_EEEE5valueEiE4typeELi0EEEu7__decayIDTclsr19__to_address_helperISH_EE6__callclsr3stdE7declvalIRKSH_EEEEESO_, symObjAddr: 0x55E58, symBinAddr: 0x100057644, symSize: 0x0 }
  - { offset: 0x4D9DB, size: 0x8, addend: 0x0, symName: __ZNSt3__14prevB8ne190107IPN7testing7MatcherIRKNS_12basic_stringIcNS_11char_traitsIcEENS_9allocatorIcEEEEEETnNS_9enable_ifIXsr29__has_input_iterator_categoryIT_EE5valueEiE4typeELi0EEESE_SE_NS_15iterator_traitsISE_E15difference_typeE, symObjAddr: 0x561F8, symBinAddr: 0x1000579E4, symSize: 0x0 }
  - { offset: 0x4DA2B, size: 0x8, addend: 0x0, symName: __ZNSt3__19__advanceB8ne190107IPN7testing7MatcherIRKNS_12basic_stringIcNS_11char_traitsIcEENS_9allocatorIcEEEEEEEEvRT_NS_15iterator_traitsISD_E15difference_typeENS_26random_access_iterator_tagE, symObjAddr: 0x56464, symBinAddr: 0x100057C50, symSize: 0x0 }
  - { offset: 0x4DA75, size: 0x8, addend: 0x0, symName: __ZNSt3__114__construct_atB8ne190107INS_12basic_stringIcNS_11char_traitsIcEENS_9allocatorIcEEEEJEPS6_EEPT_S9_DpOT0_, symObjAddr: 0x5B598, symBinAddr: 0x10005CD84, symSize: 0x0 }
  - { offset: 0x4DAB5, size: 0x8, addend: 0x0, symName: __ZNSt3__112construct_atB8ne190107INS_12basic_stringIcNS_11char_traitsIcEENS_9allocatorIcEEEEJEPS6_EEPT_S9_DpOT0_, symObjAddr: 0x5B5C4, symBinAddr: 0x10005CDB0, symSize: 0x0 }
  - { offset: 0x4DB15, size: 0x8, addend: 0x0, symName: __ZNSt3__112__to_addressB8ne190107INS_10shared_ptrIN7testing8internal26ParameterizedTestSuiteInfoIN12_GLOBAL__N_115CaesarDec_CleanEE8TestInfoEEEEEPT_SB_, symObjAddr: 0x5ED4C, symBinAddr: 0x100060538, symSize: 0x0 }
  - { offset: 0x4DB4B, size: 0x8, addend: 0x0, symName: __ZNSt3__131__annotate_contiguous_containerB8ne190107INS_9allocatorINS_10shared_ptrIN7testing8internal26ParameterizedTestSuiteInfoIN12_GLOBAL__N_115CaesarDec_CleanEE8TestInfoEEEEEEEvPKvSD_SD_SD_, symObjAddr: 0x5F68C, symBinAddr: 0x100060E78, symSize: 0x0 }
  - { offset: 0x4DBA6, size: 0x8, addend: 0x0, symName: __ZNSt3__114__construct_atB8ne190107INS_10shared_ptrIN7testing8internal26ParameterizedTestSuiteInfoIN12_GLOBAL__N_115CaesarDec_CleanEE8TestInfoEEEJPS8_EPS9_EEPT_SD_DpOT0_, symObjAddr: 0x5FA54, symBinAddr: 0x100061240, symSize: 0x0 }
  - { offset: 0x4DC20, size: 0x8, addend: 0x0, symName: __ZNSt3__112construct_atB8ne190107INS_10shared_ptrIN7testing8internal26ParameterizedTestSuiteInfoIN12_GLOBAL__N_115CaesarDec_CleanEE8TestInfoEEEJPS8_EPS9_EEPT_SD_DpOT0_, symObjAddr: 0x5FAC8, symBinAddr: 0x1000612B4, symSize: 0x0 }
  - { offset: 0x4E710, size: 0x8, addend: 0x0, symName: __ZNSt3__119__allocate_at_leastB8ne190107INS_9allocatorINS_10shared_ptrIN7testing8internal26ParameterizedTestSuiteInfoIN12_GLOBAL__N_115CaesarDec_CleanEE8TestInfoEEEEEEENS_19__allocation_resultINS_16allocator_traitsIT_E7pointerEEERSE_m, symObjAddr: 0x655EC, symBinAddr: 0x100066DD8, symSize: 0x0 }
  - { offset: 0x4E754, size: 0x8, addend: 0x0, symName: __ZNSt3__134__uninitialized_allocator_relocateB8ne190107INS_9allocatorINS_10shared_ptrIN7testing8internal26ParameterizedTestSuiteInfoIN12_GLOBAL__N_115CaesarDec_CleanEE8TestInfoEEEEESA_EEvRT_PT0_SF_SF_, symObjAddr: 0x65FF0, symBinAddr: 0x1000677DC, symSize: 0x0 }
  - { offset: 0x4E7BD, size: 0x8, addend: 0x0, symName: __ZNSt3__14swapB8ne190107IPNS_10shared_ptrIN7testing8internal26ParameterizedTestSuiteInfoIN12_GLOBAL__N_115CaesarDec_CleanEE8TestInfoEEEEENS_9enable_ifIXaasr21is_move_constructibleIT_EE5valuesr18is_move_assignableISC_EE5valueEvE4typeERSC_SF_, symObjAddr: 0x660A0, symBinAddr: 0x10006788C, symSize: 0x0 }
  - { offset: 0x4E80F, size: 0x8, addend: 0x0, symName: __ZNSt3__112__destroy_atB8ne190107INS_10shared_ptrIN7testing8internal26ParameterizedTestSuiteInfoIN12_GLOBAL__N_115CaesarDec_CleanEE8TestInfoEEETnNS_9enable_ifIXntsr8is_arrayIT_EE5valueEiE4typeELi0EEEvPSB_, symObjAddr: 0x669EC, symBinAddr: 0x1000681D8, symSize: 0x0 }
  - { offset: 0x4E847, size: 0x8, addend: 0x0, symName: __ZNSt3__134__libcpp_atomic_refcount_decrementB8ne190107IlEET_RS1_, symObjAddr: 0x67004, symBinAddr: 0x1000687F0, symSize: 0x0 }
  - { offset: 0x4E87C, size: 0x8, addend: 0x0, symName: __ZNSt3__13getB8ne190107ILm0EJNS_12basic_stringIcNS_11char_traitsIcEENS_9allocatorIcEEEES6_EEERKNS_13tuple_elementIXT_ENS_5tupleIJDpT0_EEEE4typeERKSB_, symObjAddr: 0x6A270, symBinAddr: 0x10006BA5C, symSize: 0x0 }
  - { offset: 0x4E8C4, size: 0x8, addend: 0x0, symName: __ZNSt3__13getB8ne190107ILm1EJNS_12basic_stringIcNS_11char_traitsIcEENS_9allocatorIcEEEES6_EEERKNS_13tuple_elementIXT_ENS_5tupleIJDpT0_EEEE4typeERKSB_, symObjAddr: 0x6A330, symBinAddr: 0x10006BB1C, symSize: 0x0 }
  - { offset: 0x4E90C, size: 0x8, addend: 0x0, symName: __ZNSt3__1eqB8ne190107INS_9allocatorIcEEEEbRKNS_12basic_stringIcNS_11char_traitsIcEET_EES9_, symObjAddr: 0x6E544, symBinAddr: 0x10006FD30, symSize: 0x0 }
  - { offset: 0x4E961, size: 0x8, addend: 0x0, symName: __ZNSt3__13getB8ne190107ILm1EJPKN7testing8internal11MatcherBaseIRKNS_12basic_stringIcNS_11char_traitsIcEENS_9allocatorIcEEEEEEPKNS1_16MatcherInterfaceISB_EEEEEONS_13tuple_elementIXT_ENS_5tupleIJDpT0_EEEE4typeEOSN_, symObjAddr: 0x70820, symBinAddr: 0x10007200C, symSize: 0x0 }
  - { offset: 0x4E9A9, size: 0x8, addend: 0x0, symName: __ZNSt3__110make_tupleB8ne190107IJPKN7testing8internal11MatcherBaseIRKNS_12basic_stringIcNS_11char_traitsIcEENS_9allocatorIcEEEEEEPKNS1_16MatcherInterfaceISB_EEEEENS_5tupleIJDpNS_18__unwrap_ref_decayIT_E4typeEEEEDpOSL_, symObjAddr: 0x708F0, symBinAddr: 0x1000720DC, symSize: 0x0 }
  - { offset: 0x4EE06, size: 0x8, addend: 0x0, symName: __ZNSt3__110make_tupleB8ne190107IJRA1_KcS3_EEENS_5tupleIJDpNS_18__unwrap_ref_decayIT_E4typeEEEEDpOS6_, symObjAddr: 0x72C60, symBinAddr: 0x10007444C, symSize: 0x0 }
  - { offset: 0x4EE55, size: 0x8, addend: 0x0, symName: __ZNSt3__110make_tupleB8ne190107IJRA17_KcS3_EEENS_5tupleIJDpNS_18__unwrap_ref_decayIT_E4typeEEEEDpOS6_, symObjAddr: 0x72E88, symBinAddr: 0x100074674, symSize: 0x0 }
  - { offset: 0x4EEA4, size: 0x8, addend: 0x0, symName: __ZNSt3__110make_tupleB8ne190107IJRA24_KcRA1_S1_EEENS_5tupleIJDpNS_18__unwrap_ref_decayIT_E4typeEEEEDpOS8_, symObjAddr: 0x730B0, symBinAddr: 0x10007489C, symSize: 0x0 }
  - { offset: 0x4EEF3, size: 0x8, addend: 0x0, symName: __ZNSt3__110make_tupleB8ne190107IJRA6_KcRA4_S1_EEENS_5tupleIJDpNS_18__unwrap_ref_decayIT_E4typeEEEEDpOS8_, symObjAddr: 0x732D8, symBinAddr: 0x100074AC4, symSize: 0x0 }
  - { offset: 0x4EF68, size: 0x8, addend: 0x0, symName: __ZNSt3__18distanceB8ne190107INS_11__wrap_iterIPKNS_5tupleIJNS_12basic_stringIcNS_11char_traitsIcEENS_9allocatorIcEEEES8_EEEEEEENS_15iterator_traitsIT_E15difference_typeESE_SE_, symObjAddr: 0x75FB8, symBinAddr: 0x1000777A4, symSize: 0x0 }
  - { offset: 0x4EFAB, size: 0x8, addend: 0x0, symName: __ZNSt3__110__distanceB8ne190107INS_11__wrap_iterIPKNS_5tupleIJNS_12basic_stringIcNS_11char_traitsIcEENS_9allocatorIcEEEES8_EEEEEEENS_15iterator_traitsIT_E15difference_typeESE_SE_NS_26random_access_iterator_tagE, symObjAddr: 0x766A8, symBinAddr: 0x100077E94, symSize: 0x0 }
  - { offset: 0x4F002, size: 0x8, addend: 0x0, symName: __ZNSt3__1miB8ne190107IPKNS_5tupleIJNS_12basic_stringIcNS_11char_traitsIcEENS_9allocatorIcEEEES7_EEESA_EEDTmicldtfp_4baseEcldtfp0_4baseEERKNS_11__wrap_iterIT_EERKNSC_IT0_EE, symObjAddr: 0x76890, symBinAddr: 0x10007807C, symSize: 0x0 }
  - { offset: 0x4F04E, size: 0x8, addend: 0x0, symName: __ZNSt3__122__make_exception_guardB8ne190107INS_6vectorINS_5tupleIJNS_12basic_stringIcNS_11char_traitsIcEENS_9allocatorIcEEEES8_EEENS6_IS9_EEE16__destroy_vectorEEENS_28__exception_guard_exceptionsIT_EESE_, symObjAddr: 0x769C8, symBinAddr: 0x1000781B4, symSize: 0x0 }
  - { offset: 0x4F083, size: 0x8, addend: 0x0, symName: __ZNSt3__119__allocate_at_leastB8ne190107INS_9allocatorINS_5tupleIJNS_12basic_stringIcNS_11char_traitsIcEENS1_IcEEEES7_EEEEEEENS_19__allocation_resultINS_16allocator_traitsIT_E7pointerEEERSC_m, symObjAddr: 0x77A10, symBinAddr: 0x1000791FC, symSize: 0x0 }
  - { offset: 0x4F0C7, size: 0x8, addend: 0x0, symName: __ZNSt3__131__annotate_contiguous_containerB8ne190107INS_9allocatorINS_5tupleIJNS_12basic_stringIcNS_11char_traitsIcEENS1_IcEEEES7_EEEEEEEvPKvSB_SB_SB_, symObjAddr: 0x786A8, symBinAddr: 0x100079E94, symSize: 0x0 }
  - { offset: 0x4F123, size: 0x8, addend: 0x0, symName: __ZNSt3__112__to_addressB8ne190107INS_5tupleIJNS_12basic_stringIcNS_11char_traitsIcEENS_9allocatorIcEEEES7_EEEEEPT_SA_, symObjAddr: 0x786FC, symBinAddr: 0x100079EE8, symSize: 0x0 }
  - { offset: 0x4F158, size: 0x8, addend: 0x0, symName: __ZNSt3__130__uninitialized_allocator_copyB8ne190107INS_9allocatorINS_5tupleIJNS_12basic_stringIcNS_11char_traitsIcEENS1_IcEEEES7_EEEEENS_11__wrap_iterIPKS8_EESD_PS8_EET2_RT_T0_T1_SF_, symObjAddr: 0x789DC, symBinAddr: 0x10007A1C8, symSize: 0x0 }
  - { offset: 0x4F1FE, size: 0x8, addend: 0x0, symName: __ZNSt3__114__unwrap_rangeB8ne190107INS_11__wrap_iterIPKNS_5tupleIJNS_12basic_stringIcNS_11char_traitsIcEENS_9allocatorIcEEEES8_EEEEESC_EEDaT_T0_, symObjAddr: 0x793F4, symBinAddr: 0x10007ABE0, symSize: 0x0 }
  - { offset: 0x4F24A, size: 0x8, addend: 0x0, symName: __ZNSt3__135__uninitialized_allocator_copy_implB8ne190107INS_9allocatorINS_5tupleIJNS_12basic_stringIcNS_11char_traitsIcEENS1_IcEEEES7_EEEEEPKS8_SB_PS8_EET2_RT_T0_T1_SD_, symObjAddr: 0x79468, symBinAddr: 0x10007AC54, symSize: 0x0 }
  - { offset: 0x4F2F6, size: 0x8, addend: 0x0, symName: __ZNSt3__113__unwrap_iterB8ne190107IPNS_5tupleIJNS_12basic_stringIcNS_11char_traitsIcEENS_9allocatorIcEEEES7_EEENS_18__unwrap_iter_implIS9_Lb1EEETnNS_9enable_ifIXsr21is_copy_constructibleIT_EE5valueEiE4typeELi0EEEDTclsrT0_8__unwrapclsr3stdE7declvalISD_EEEESD_, symObjAddr: 0x79990, symBinAddr: 0x10007B17C, symSize: 0x0 }
  - { offset: 0x4F33B, size: 0x8, addend: 0x0, symName: __ZNSt3__113__rewrap_iterB8ne190107IPNS_5tupleIJNS_12basic_stringIcNS_11char_traitsIcEENS_9allocatorIcEEEES7_EEES9_NS_18__unwrap_iter_implIS9_Lb1EEEEET_SC_T0_, symObjAddr: 0x799BC, symBinAddr: 0x10007B1A8, symSize: 0x0 }
  - { offset: 0x4F493, size: 0x8, addend: 0x0, symName: __ZNSt3__113__unwrap_iterB8ne190107INS_11__wrap_iterIPKNS_5tupleIJNS_12basic_stringIcNS_11char_traitsIcEENS_9allocatorIcEEEES8_EEEEENS_18__unwrap_iter_implISC_Lb1EEETnNS_9enable_ifIXsr21is_copy_constructibleIT_EE5valueEiE4typeELi0EEEDTclsrT0_8__unwrapclsr3stdE7declvalISG_EEEESG_, symObjAddr: 0x79C98, symBinAddr: 0x10007B484, symSize: 0x0 }
  - { offset: 0x4F52C, size: 0x8, addend: 0x0, symName: __ZNSt3__112__to_addressB8ne190107INS_11__wrap_iterIPKNS_5tupleIJNS_12basic_stringIcNS_11char_traitsIcEENS_9allocatorIcEEEES8_EEEEETnNS_9enable_ifIXsr4_AndINS_8is_classIT_EENS_15_IsFancyPointerISF_EEEE5valueEiE4typeELi0EEEu7__decayIDTclsr19__to_address_helperISF_EE6__callclsr3stdE7declvalIRKSF_EEEEESM_, symObjAddr: 0x79EF0, symBinAddr: 0x10007B6DC, symSize: 0x0 }
  - { offset: 0x4F613, size: 0x8, addend: 0x0, symName: __ZNSt3__112__to_addressB8ne190107IKNS_5tupleIJNS_12basic_stringIcNS_11char_traitsIcEENS_9allocatorIcEEEES7_EEEEEPT_SB_, symObjAddr: 0x7A13C, symBinAddr: 0x10007B928, symSize: 0x0 }
  - { offset: 0x4F648, size: 0x8, addend: 0x0, symName: __ZNSt3__122__make_exception_guardB8ne190107INS_29_AllocatorDestroyRangeReverseINS_9allocatorINS_5tupleIJNS_12basic_stringIcNS_11char_traitsIcEENS2_IcEEEES8_EEEEEPS9_EEEENS_28__exception_guard_exceptionsIT_EESE_, symObjAddr: 0x7A330, symBinAddr: 0x10007BB1C, symSize: 0x0 }
  - { offset: 0x4F67F, size: 0x8, addend: 0x0, symName: __ZNSt3__114__construct_atB8ne190107INS_5tupleIJNS_12basic_stringIcNS_11char_traitsIcEENS_9allocatorIcEEEES7_EEEJRKS8_EPS8_EEPT_SD_DpOT0_, symObjAddr: 0x7AA70, symBinAddr: 0x10007C25C, symSize: 0x0 }
  - { offset: 0x4F6F9, size: 0x8, addend: 0x0, symName: __ZNSt3__112construct_atB8ne190107INS_5tupleIJNS_12basic_stringIcNS_11char_traitsIcEENS_9allocatorIcEEEES7_EEEJRKS8_EPS8_EEPT_SD_DpOT0_, symObjAddr: 0x7AAE4, symBinAddr: 0x10007C2D0, symSize: 0x0 }
  - { offset: 0x4F76B, size: 0x8, addend: 0x0, symName: __ZNSt3__119__allocator_destroyB8ne190107INS_9allocatorINS_5tupleIJNS_12basic_stringIcNS_11char_traitsIcEENS1_IcEEEES7_EEEEENS_16reverse_iteratorIPS8_EESC_EEvRT_T0_T1_, symObjAddr: 0x7B060, symBinAddr: 0x10007C84C, symSize: 0x0 }
  - { offset: 0x4F7D7, size: 0x8, addend: 0x0, symName: __ZNSt3__1neB8ne190107IPNS_5tupleIJNS_12basic_stringIcNS_11char_traitsIcEENS_9allocatorIcEEEES7_EEES9_EEbRKNS_16reverse_iteratorIT_EERKNSA_IT0_EEQrqXnecldtfp_4baseEcldtfp0_4baseERNS_14convertible_toIbEEE, symObjAddr: 0x7B318, symBinAddr: 0x10007CB04, symSize: 0x0 }
  - { offset: 0x4F823, size: 0x8, addend: 0x0, symName: __ZNSt3__112__to_addressB8ne190107INS_16reverse_iteratorIPNS_5tupleIJNS_12basic_stringIcNS_11char_traitsIcEENS_9allocatorIcEEEES8_EEEEETnNS_9enable_ifIXsr4_AndINS_8is_classIT_EENS_15_IsFancyPointerISE_EEEE5valueEiE4typeELi0EEEu7__decayIDTclsr19__to_address_helperISE_EE6__callclsr3stdE7declvalIRKSE_EEEEESL_, symObjAddr: 0x7B3E0, symBinAddr: 0x10007CBCC, symSize: 0x0 }
  - { offset: 0x4F860, size: 0x8, addend: 0x0, symName: __ZNSt3__112__destroy_atB8ne190107INS_5tupleIJNS_12basic_stringIcNS_11char_traitsIcEENS_9allocatorIcEEEES7_EEETnNS_9enable_ifIXntsr8is_arrayIT_EE5valueEiE4typeELi0EEEvPSA_, symObjAddr: 0x7B664, symBinAddr: 0x10007CE50, symSize: 0x0 }
  - { offset: 0x4F8C2, size: 0x8, addend: 0x0, symName: __ZNSt3__14prevB8ne190107IPNS_5tupleIJNS_12basic_stringIcNS_11char_traitsIcEENS_9allocatorIcEEEES7_EEETnNS_9enable_ifIXsr29__has_input_iterator_categoryIT_EE5valueEiE4typeELi0EEESB_SB_NS_15iterator_traitsISB_E15difference_typeE, symObjAddr: 0x7B7E4, symBinAddr: 0x10007CFD0, symSize: 0x0 }
  - { offset: 0x4F912, size: 0x8, addend: 0x0, symName: __ZNSt3__19__advanceB8ne190107IPNS_5tupleIJNS_12basic_stringIcNS_11char_traitsIcEENS_9allocatorIcEEEES7_EEEEEvRT_NS_15iterator_traitsISA_E15difference_typeENS_26random_access_iterator_tagE, symObjAddr: 0x7BA50, symBinAddr: 0x10007D23C, symSize: 0x0 }
  - { offset: 0x4F9B0, size: 0x8, addend: 0x0, symName: __ZNSt3__14endlB8ne190107IcNS_11char_traitsIcEEEERNS_13basic_ostreamIT_T0_EES7_, symObjAddr: 0x7F5E8, symBinAddr: 0x100080DD4, symSize: 0x0 }
  - { offset: 0x4F9F0, size: 0x8, addend: 0x0, symName: __ZNSt3__1eqB8ne190107IPKNS_5tupleIJNS_12basic_stringIcNS_11char_traitsIcEENS_9allocatorIcEEEES7_EEEEEbRKNS_11__wrap_iterIT_EESF_, symObjAddr: 0x7F938, symBinAddr: 0x100081124, symSize: 0x0 }
  - { offset: 0x50489, size: 0x8, addend: 0x0, symName: __ZNSt3__13getB8ne190107ILm0EJPKcS2_EEERKNS_13tuple_elementIXT_ENS_5tupleIJDpT0_EEEE4typeERKS7_, symObjAddr: 0x83A04, symBinAddr: 0x1000851F0, symSize: 0x0 }
  - { offset: 0x504D0, size: 0x8, addend: 0x0, symName: __ZNSt3__13getB8ne190107ILm1EJPKcS2_EEERKNS_13tuple_elementIXT_ENS_5tupleIJDpT0_EEEE4typeERKS7_, symObjAddr: 0x83BAC, symBinAddr: 0x100085398, symSize: 0x0 }
  - { offset: 0x50517, size: 0x8, addend: 0x0, symName: __ZNSt3__130__uninitialized_allocator_copyB8ne190107INS_9allocatorINS_5tupleIJNS_12basic_stringIcNS_11char_traitsIcEENS1_IcEEEES7_EEEEEPKS8_SB_PS8_EET2_RT_T0_T1_SD_, symObjAddr: 0x849D4, symBinAddr: 0x1000861C0, symSize: 0x0 }
  - { offset: 0x505BD, size: 0x8, addend: 0x0, symName: __ZNSt3__114__unwrap_rangeB8ne190107IPKNS_5tupleIJNS_12basic_stringIcNS_11char_traitsIcEENS_9allocatorIcEEEES7_EEESA_EEDaT_T0_, symObjAddr: 0x84C40, symBinAddr: 0x10008642C, symSize: 0x0 }
  - { offset: 0x5063F, size: 0x8, addend: 0x0, symName: __ZNSt3__113__unwrap_iterB8ne190107IPKNS_5tupleIJNS_12basic_stringIcNS_11char_traitsIcEENS_9allocatorIcEEEES7_EEENS_18__unwrap_iter_implISA_Lb1EEETnNS_9enable_ifIXsr21is_copy_constructibleIT_EE5valueEiE4typeELi0EEEDTclsrT0_8__unwrapclsr3stdE7declvalISE_EEEESE_, symObjAddr: 0x84ED4, symBinAddr: 0x1000866C0, symSize: 0x0 }
  - { offset: 0x506D8, size: 0x8, addend: 0x0, symName: __ZNSt3__110make_tupleB8ne190107IJN7testing8internal10ValueArrayIJNS_5tupleIJPKcS6_EEES7_S7_S7_EEEEEENS4_IJDpNS_18__unwrap_ref_decayIT_E4typeEEEEDpOSA_, symObjAddr: 0x8525C, symBinAddr: 0x100086A48, symSize: 0x0 }
  - { offset: 0x50727, size: 0x8, addend: 0x0, symName: __ZNSt3__112__to_addressB8ne190107INS_10shared_ptrIN7testing8internal26ParameterizedTestSuiteInfoIN12_GLOBAL__N_121CaesarDec_SplitSpacesEE8TestInfoEEEEEPT_SB_, symObjAddr: 0x86B80, symBinAddr: 0x10008836C, symSize: 0x0 }
  - { offset: 0x5075D, size: 0x8, addend: 0x0, symName: __ZNSt3__131__annotate_contiguous_containerB8ne190107INS_9allocatorINS_10shared_ptrIN7testing8internal26ParameterizedTestSuiteInfoIN12_GLOBAL__N_121CaesarDec_SplitSpacesEE8TestInfoEEEEEEEvPKvSD_SD_SD_, symObjAddr: 0x874C0, symBinAddr: 0x100088CAC, symSize: 0x0 }
  - { offset: 0x507B8, size: 0x8, addend: 0x0, symName: __ZNSt3__114__construct_atB8ne190107INS_10shared_ptrIN7testing8internal26ParameterizedTestSuiteInfoIN12_GLOBAL__N_121CaesarDec_SplitSpacesEE8TestInfoEEEJPS8_EPS9_EEPT_SD_DpOT0_, symObjAddr: 0x87888, symBinAddr: 0x100089074, symSize: 0x0 }
  - { offset: 0x50832, size: 0x8, addend: 0x0, symName: __ZNSt3__112construct_atB8ne190107INS_10shared_ptrIN7testing8internal26ParameterizedTestSuiteInfoIN12_GLOBAL__N_121CaesarDec_SplitSpacesEE8TestInfoEEEJPS8_EPS9_EEPT_SD_DpOT0_, symObjAddr: 0x878FC, symBinAddr: 0x1000890E8, symSize: 0x0 }
  - { offset: 0x51322, size: 0x8, addend: 0x0, symName: __ZNSt3__119__allocate_at_leastB8ne190107INS_9allocatorINS_10shared_ptrIN7testing8internal26ParameterizedTestSuiteInfoIN12_GLOBAL__N_121CaesarDec_SplitSpacesEE8TestInfoEEEEEEENS_19__allocation_resultINS_16allocator_traitsIT_E7pointerEEERSE_m, symObjAddr: 0x8CFA4, symBinAddr: 0x10008E790, symSize: 0x0 }
  - { offset: 0x51366, size: 0x8, addend: 0x0, symName: __ZNSt3__134__uninitialized_allocator_relocateB8ne190107INS_9allocatorINS_10shared_ptrIN7testing8internal26ParameterizedTestSuiteInfoIN12_GLOBAL__N_121CaesarDec_SplitSpacesEE8TestInfoEEEEESA_EEvRT_PT0_SF_SF_, symObjAddr: 0x8D9A8, symBinAddr: 0x10008F194, symSize: 0x0 }
  - { offset: 0x513CF, size: 0x8, addend: 0x0, symName: __ZNSt3__14swapB8ne190107IPNS_10shared_ptrIN7testing8internal26ParameterizedTestSuiteInfoIN12_GLOBAL__N_121CaesarDec_SplitSpacesEE8TestInfoEEEEENS_9enable_ifIXaasr21is_move_constructibleIT_EE5valuesr18is_move_assignableISC_EE5valueEvE4typeERSC_SF_, symObjAddr: 0x8DA58, symBinAddr: 0x10008F244, symSize: 0x0 }
  - { offset: 0x51421, size: 0x8, addend: 0x0, symName: __ZNSt3__112__destroy_atB8ne190107INS_10shared_ptrIN7testing8internal26ParameterizedTestSuiteInfoIN12_GLOBAL__N_121CaesarDec_SplitSpacesEE8TestInfoEEETnNS_9enable_ifIXntsr8is_arrayIT_EE5valueEiE4typeELi0EEEvPSB_, symObjAddr: 0x8E3A4, symBinAddr: 0x10008FB90, symSize: 0x0 }
  - { offset: 0x51459, size: 0x8, addend: 0x0, symName: __ZNSt3__130__uninitialized_allocator_copyB8ne190107INS_9allocatorINS_12basic_stringIcNS_11char_traitsIcEENS1_IcEEEEEEPS6_S8_S8_EET2_RT_T0_T1_S9_, symObjAddr: 0x90900, symBinAddr: 0x1000920EC, symSize: 0x0 }
  - { offset: 0x514FF, size: 0x8, addend: 0x0, symName: __ZNSt3__114__unwrap_rangeB8ne190107IPNS_12basic_stringIcNS_11char_traitsIcEENS_9allocatorIcEEEES7_EEDaT_T0_, symObjAddr: 0x90B6C, symBinAddr: 0x100092358, symSize: 0x0 }
  - { offset: 0x5154B, size: 0x8, addend: 0x0, symName: __ZNSt3__135__uninitialized_allocator_copy_implB8ne190107INS_9allocatorINS_12basic_stringIcNS_11char_traitsIcEENS1_IcEEEEEEPS6_S8_S8_EET2_RT_T0_T1_S9_, symObjAddr: 0x90BB0, symBinAddr: 0x10009239C, symSize: 0x0 }
  - { offset: 0x516FA, size: 0x8, addend: 0x0, symName: __ZNSt3__114__construct_atB8ne190107INS_12basic_stringIcNS_11char_traitsIcEENS_9allocatorIcEEEEJRS6_EPS6_EEPT_SA_DpOT0_, symObjAddr: 0x915EC, symBinAddr: 0x100092DD8, symSize: 0x0 }
  - { offset: 0x5174D, size: 0x8, addend: 0x0, symName: __ZNSt3__112construct_atB8ne190107INS_12basic_stringIcNS_11char_traitsIcEENS_9allocatorIcEEEEJRS6_EPS6_EEPT_SA_DpOT0_, symObjAddr: 0x91660, symBinAddr: 0x100092E4C, symSize: 0x0 }
  - { offset: 0x517BF, size: 0x8, addend: 0x0, symName: __ZNSt3__13getB8ne190107ILm0EJNS_12basic_stringIcNS_11char_traitsIcEENS_9allocatorIcEEEENS_6vectorIS6_NS4_IS6_EEEEEEERKNS_13tuple_elementIXT_ENS_5tupleIJDpT0_EEEE4typeERKSE_, symObjAddr: 0x93130, symBinAddr: 0x10009491C, symSize: 0x0 }
  - { offset: 0x51807, size: 0x8, addend: 0x0, symName: __ZNSt3__13getB8ne190107ILm1EJNS_12basic_stringIcNS_11char_traitsIcEENS_9allocatorIcEEEENS_6vectorIS6_NS4_IS6_EEEEEEERKNS_13tuple_elementIXT_ENS_5tupleIJDpT0_EEEE4typeERKSE_, symObjAddr: 0x931F0, symBinAddr: 0x1000949DC, symSize: 0x0 }
  - { offset: 0x5184F, size: 0x8, addend: 0x0, symName: __ZNSt3__18distanceB8ne190107INS_11__wrap_iterIPKNS_12basic_stringIcNS_11char_traitsIcEENS_9allocatorIcEEEEEEEENS_15iterator_traitsIT_E15difference_typeESC_SC_, symObjAddr: 0x94C24, symBinAddr: 0x100096410, symSize: 0x0 }
  - { offset: 0x51892, size: 0x8, addend: 0x0, symName: __ZNSt3__110__distanceB8ne190107INS_11__wrap_iterIPKNS_12basic_stringIcNS_11char_traitsIcEENS_9allocatorIcEEEEEEEENS_15iterator_traitsIT_E15difference_typeESC_SC_NS_26random_access_iterator_tagE, symObjAddr: 0x9503C, symBinAddr: 0x100096828, symSize: 0x0 }
  - { offset: 0x518E9, size: 0x8, addend: 0x0, symName: __ZNSt3__1miB8ne190107IPKNS_12basic_stringIcNS_11char_traitsIcEENS_9allocatorIcEEEES8_EEDTmicldtfp_4baseEcldtfp0_4baseEERKNS_11__wrap_iterIT_EERKNSA_IT0_EE, symObjAddr: 0x95224, symBinAddr: 0x100096A10, symSize: 0x0 }
  - { offset: 0x51935, size: 0x8, addend: 0x0, symName: __ZNSt3__130__uninitialized_allocator_copyB8ne190107INS_9allocatorINS_12basic_stringIcNS_11char_traitsIcEENS1_IcEEEEEENS_11__wrap_iterIPKS6_EESB_PS6_EET2_RT_T0_T1_SD_, symObjAddr: 0x956C8, symBinAddr: 0x100096EB4, symSize: 0x0 }
  - { offset: 0x519DB, size: 0x8, addend: 0x0, symName: __ZNSt3__114__unwrap_rangeB8ne190107INS_11__wrap_iterIPKNS_12basic_stringIcNS_11char_traitsIcEENS_9allocatorIcEEEEEESA_EEDaT_T0_, symObjAddr: 0x95980, symBinAddr: 0x10009716C, symSize: 0x0 }
  - { offset: 0x51A5D, size: 0x8, addend: 0x0, symName: __ZNSt3__113__unwrap_iterB8ne190107INS_11__wrap_iterIPKNS_12basic_stringIcNS_11char_traitsIcEENS_9allocatorIcEEEEEENS_18__unwrap_iter_implISA_Lb1EEETnNS_9enable_ifIXsr21is_copy_constructibleIT_EE5valueEiE4typeELi0EEEDTclsrT0_8__unwrapclsr3stdE7declvalISE_EEEESE_, symObjAddr: 0x95C80, symBinAddr: 0x10009746C, symSize: 0x0 }
  - { offset: 0x51AF6, size: 0x8, addend: 0x0, symName: __ZNSt3__112__to_addressB8ne190107INS_11__wrap_iterIPKNS_12basic_stringIcNS_11char_traitsIcEENS_9allocatorIcEEEEEETnNS_9enable_ifIXsr4_AndINS_8is_classIT_EENS_15_IsFancyPointerISD_EEEE5valueEiE4typeELi0EEEu7__decayIDTclsr19__to_address_helperISD_EE6__callclsr3stdE7declvalIRKSD_EEEEESK_, symObjAddr: 0x95E64, symBinAddr: 0x100097650, symSize: 0x0 }
  - { offset: 0x51BDC, size: 0x8, addend: 0x0, symName: __ZNSt3__110make_tupleB8ne190107IJRA1_KcNS_6vectorINS_12basic_stringIcNS_11char_traitsIcEENS_9allocatorIcEEEENS8_ISA_EEEEEEENS_5tupleIJDpNS_18__unwrap_ref_decayIT_E4typeEEEEDpOSF_, symObjAddr: 0x97494, symBinAddr: 0x100098C80, symSize: 0x0 }
  - { offset: 0x51C29, size: 0x8, addend: 0x0, symName: __ZNSt3__110make_tupleB8ne190107IJRA3_KcNS_6vectorINS_12basic_stringIcNS_11char_traitsIcEENS_9allocatorIcEEEENS8_ISA_EEEEEEENS_5tupleIJDpNS_18__unwrap_ref_decayIT_E4typeEEEEDpOSF_, symObjAddr: 0x97564, symBinAddr: 0x100098D50, symSize: 0x0 }
  - { offset: 0x51C76, size: 0x8, addend: 0x0, symName: __ZNSt3__110make_tupleB8ne190107IJRA9_KcNS_6vectorINS_12basic_stringIcNS_11char_traitsIcEENS_9allocatorIcEEEENS8_ISA_EEEEEEENS_5tupleIJDpNS_18__unwrap_ref_decayIT_E4typeEEEEDpOSF_, symObjAddr: 0x97634, symBinAddr: 0x100098E20, symSize: 0x0 }
  - { offset: 0x51CC3, size: 0x8, addend: 0x0, symName: __ZNSt3__110make_tupleB8ne190107IJRA10_KcNS_6vectorINS_12basic_stringIcNS_11char_traitsIcEENS_9allocatorIcEEEENS8_ISA_EEEEEEENS_5tupleIJDpNS_18__unwrap_ref_decayIT_E4typeEEEEDpOSF_, symObjAddr: 0x97704, symBinAddr: 0x100098EF0, symSize: 0x0 }
  - { offset: 0x51D10, size: 0x8, addend: 0x0, symName: __ZNSt3__110make_tupleB8ne190107IJRA32_KcNS_6vectorINS_12basic_stringIcNS_11char_traitsIcEENS_9allocatorIcEEEENS8_ISA_EEEEEEENS_5tupleIJDpNS_18__unwrap_ref_decayIT_E4typeEEEEDpOSF_, symObjAddr: 0x977D4, symBinAddr: 0x100098FC0, symSize: 0x0 }
  - { offset: 0x51D5D, size: 0x8, addend: 0x0, symName: __ZNSt3__110make_tupleB8ne190107IJRA11_KcNS_6vectorINS_12basic_stringIcNS_11char_traitsIcEENS_9allocatorIcEEEENS8_ISA_EEEEEEENS_5tupleIJDpNS_18__unwrap_ref_decayIT_E4typeEEEEDpOSF_, symObjAddr: 0x978A4, symBinAddr: 0x100099090, symSize: 0x0 }
  - { offset: 0x51DAA, size: 0x8, addend: 0x0, symName: __ZNSt3__110make_tupleB8ne190107IJRA31_KcNS_6vectorINS_12basic_stringIcNS_11char_traitsIcEENS_9allocatorIcEEEENS8_ISA_EEEEEEENS_5tupleIJDpNS_18__unwrap_ref_decayIT_E4typeEEEEDpOSF_, symObjAddr: 0x97974, symBinAddr: 0x100099160, symSize: 0x0 }
  - { offset: 0x51E1D, size: 0x8, addend: 0x0, symName: __ZNSt3__18distanceB8ne190107INS_11__wrap_iterIPKNS_5tupleIJNS_12basic_stringIcNS_11char_traitsIcEENS_9allocatorIcEEEENS_6vectorIS8_NS6_IS8_EEEEEEEEEEENS_15iterator_traitsIT_E15difference_typeESH_SH_, symObjAddr: 0x9D158, symBinAddr: 0x10009E944, symSize: 0x0 }
  - { offset: 0x51E60, size: 0x8, addend: 0x0, symName: __ZNSt3__110__distanceB8ne190107INS_11__wrap_iterIPKNS_5tupleIJNS_12basic_stringIcNS_11char_traitsIcEENS_9allocatorIcEEEENS_6vectorIS8_NS6_IS8_EEEEEEEEEEENS_15iterator_traitsIT_E15difference_typeESH_SH_NS_26random_access_iterator_tagE, symObjAddr: 0x9D848, symBinAddr: 0x10009F034, symSize: 0x0 }
  - { offset: 0x51EB7, size: 0x8, addend: 0x0, symName: __ZNSt3__1miB8ne190107IPKNS_5tupleIJNS_12basic_stringIcNS_11char_traitsIcEENS_9allocatorIcEEEENS_6vectorIS7_NS5_IS7_EEEEEEESD_EEDTmicldtfp_4baseEcldtfp0_4baseEERKNS_11__wrap_iterIT_EERKNSF_IT0_EE, symObjAddr: 0x9DA30, symBinAddr: 0x10009F21C, symSize: 0x0 }
  - { offset: 0x51F03, size: 0x8, addend: 0x0, symName: __ZNSt3__122__make_exception_guardB8ne190107INS_6vectorINS_5tupleIJNS_12basic_stringIcNS_11char_traitsIcEENS_9allocatorIcEEEENS1_IS8_NS6_IS8_EEEEEEENS6_ISB_EEE16__destroy_vectorEEENS_28__exception_guard_exceptionsIT_EESG_, symObjAddr: 0x9DB68, symBinAddr: 0x10009F354, symSize: 0x0 }
  - { offset: 0x51F38, size: 0x8, addend: 0x0, symName: __ZNSt3__119__allocate_at_leastB8ne190107INS_9allocatorINS_5tupleIJNS_12basic_stringIcNS_11char_traitsIcEENS1_IcEEEENS_6vectorIS7_NS1_IS7_EEEEEEEEEEENS_19__allocation_resultINS_16allocator_traitsIT_E7pointerEEERSF_m, symObjAddr: 0x9EBB0, symBinAddr: 0x1000A039C, symSize: 0x0 }
  - { offset: 0x51F7C, size: 0x8, addend: 0x0, symName: __ZNSt3__131__annotate_contiguous_containerB8ne190107INS_9allocatorINS_5tupleIJNS_12basic_stringIcNS_11char_traitsIcEENS1_IcEEEENS_6vectorIS7_NS1_IS7_EEEEEEEEEEEvPKvSE_SE_SE_, symObjAddr: 0x9F848, symBinAddr: 0x1000A1034, symSize: 0x0 }
  - { offset: 0x51FD8, size: 0x8, addend: 0x0, symName: __ZNSt3__112__to_addressB8ne190107INS_5tupleIJNS_12basic_stringIcNS_11char_traitsIcEENS_9allocatorIcEEEENS_6vectorIS7_NS5_IS7_EEEEEEEEEPT_SD_, symObjAddr: 0x9F89C, symBinAddr: 0x1000A1088, symSize: 0x0 }
  - { offset: 0x5200D, size: 0x8, addend: 0x0, symName: __ZNSt3__130__uninitialized_allocator_copyB8ne190107INS_9allocatorINS_5tupleIJNS_12basic_stringIcNS_11char_traitsIcEENS1_IcEEEENS_6vectorIS7_NS1_IS7_EEEEEEEEENS_11__wrap_iterIPKSB_EESG_PSB_EET2_RT_T0_T1_SI_, symObjAddr: 0x9FB7C, symBinAddr: 0x1000A1368, symSize: 0x0 }
  - { offset: 0x520B3, size: 0x8, addend: 0x0, symName: __ZNSt3__114__unwrap_rangeB8ne190107INS_11__wrap_iterIPKNS_5tupleIJNS_12basic_stringIcNS_11char_traitsIcEENS_9allocatorIcEEEENS_6vectorIS8_NS6_IS8_EEEEEEEEESF_EEDaT_T0_, symObjAddr: 0xA0594, symBinAddr: 0x1000A1D80, symSize: 0x0 }
  - { offset: 0x520FF, size: 0x8, addend: 0x0, symName: __ZNSt3__135__uninitialized_allocator_copy_implB8ne190107INS_9allocatorINS_5tupleIJNS_12basic_stringIcNS_11char_traitsIcEENS1_IcEEEENS_6vectorIS7_NS1_IS7_EEEEEEEEEPKSB_SE_PSB_EET2_RT_T0_T1_SG_, symObjAddr: 0xA0608, symBinAddr: 0x1000A1DF4, symSize: 0x0 }
  - { offset: 0x521AB, size: 0x8, addend: 0x0, symName: __ZNSt3__113__unwrap_iterB8ne190107IPNS_5tupleIJNS_12basic_stringIcNS_11char_traitsIcEENS_9allocatorIcEEEENS_6vectorIS7_NS5_IS7_EEEEEEENS_18__unwrap_iter_implISC_Lb1EEETnNS_9enable_ifIXsr21is_copy_constructibleIT_EE5valueEiE4typeELi0EEEDTclsrT0_8__unwrapclsr3stdE7declvalISG_EEEESG_, symObjAddr: 0xA0B30, symBinAddr: 0x1000A231C, symSize: 0x0 }
  - { offset: 0x521F0, size: 0x8, addend: 0x0, symName: __ZNSt3__113__rewrap_iterB8ne190107IPNS_5tupleIJNS_12basic_stringIcNS_11char_traitsIcEENS_9allocatorIcEEEENS_6vectorIS7_NS5_IS7_EEEEEEESC_NS_18__unwrap_iter_implISC_Lb1EEEEET_SF_T0_, symObjAddr: 0xA0B5C, symBinAddr: 0x1000A2348, symSize: 0x0 }
  - { offset: 0x52348, size: 0x8, addend: 0x0, symName: __ZNSt3__113__unwrap_iterB8ne190107INS_11__wrap_iterIPKNS_5tupleIJNS_12basic_stringIcNS_11char_traitsIcEENS_9allocatorIcEEEENS_6vectorIS8_NS6_IS8_EEEEEEEEENS_18__unwrap_iter_implISF_Lb1EEETnNS_9enable_ifIXsr21is_copy_constructibleIT_EE5valueEiE4typeELi0EEEDTclsrT0_8__unwrapclsr3stdE7declvalISJ_EEEESJ_, symObjAddr: 0xA0E38, symBinAddr: 0x1000A2624, symSize: 0x0 }
  - { offset: 0x523E1, size: 0x8, addend: 0x0, symName: __ZNSt3__112__to_addressB8ne190107INS_11__wrap_iterIPKNS_5tupleIJNS_12basic_stringIcNS_11char_traitsIcEENS_9allocatorIcEEEENS_6vectorIS8_NS6_IS8_EEEEEEEEETnNS_9enable_ifIXsr4_AndINS_8is_classIT_EENS_15_IsFancyPointerISI_EEEE5valueEiE4typeELi0EEEu7__decayIDTclsr19__to_address_helperISI_EE6__callclsr3stdE7declvalIRKSI_EEEEESP_, symObjAddr: 0xA1090, symBinAddr: 0x1000A287C, symSize: 0x0 }
  - { offset: 0x524C8, size: 0x8, addend: 0x0, symName: __ZNSt3__112__to_addressB8ne190107IKNS_5tupleIJNS_12basic_stringIcNS_11char_traitsIcEENS_9allocatorIcEEEENS_6vectorIS7_NS5_IS7_EEEEEEEEEPT_SE_, symObjAddr: 0xA12DC, symBinAddr: 0x1000A2AC8, symSize: 0x0 }
  - { offset: 0x524FD, size: 0x8, addend: 0x0, symName: __ZNSt3__122__make_exception_guardB8ne190107INS_29_AllocatorDestroyRangeReverseINS_9allocatorINS_5tupleIJNS_12basic_stringIcNS_11char_traitsIcEENS2_IcEEEENS_6vectorIS8_NS2_IS8_EEEEEEEEEPSC_EEEENS_28__exception_guard_exceptionsIT_EESH_, symObjAddr: 0xA14D0, symBinAddr: 0x1000A2CBC, symSize: 0x0 }
  - { offset: 0x52534, size: 0x8, addend: 0x0, symName: __ZNSt3__114__construct_atB8ne190107INS_5tupleIJNS_12basic_stringIcNS_11char_traitsIcEENS_9allocatorIcEEEENS_6vectorIS7_NS5_IS7_EEEEEEEJRKSB_EPSB_EEPT_SG_DpOT0_, symObjAddr: 0xA1C10, symBinAddr: 0x1000A33FC, symSize: 0x0 }
  - { offset: 0x525AE, size: 0x8, addend: 0x0, symName: __ZNSt3__112construct_atB8ne190107INS_5tupleIJNS_12basic_stringIcNS_11char_traitsIcEENS_9allocatorIcEEEENS_6vectorIS7_NS5_IS7_EEEEEEEJRKSB_EPSB_EEPT_SG_DpOT0_, symObjAddr: 0xA1C84, symBinAddr: 0x1000A3470, symSize: 0x0 }
  - { offset: 0x52620, size: 0x8, addend: 0x0, symName: __ZNSt3__119__allocator_destroyB8ne190107INS_9allocatorINS_5tupleIJNS_12basic_stringIcNS_11char_traitsIcEENS1_IcEEEENS_6vectorIS7_NS1_IS7_EEEEEEEEENS_16reverse_iteratorIPSB_EESF_EEvRT_T0_T1_, symObjAddr: 0xA2200, symBinAddr: 0x1000A39EC, symSize: 0x0 }
  - { offset: 0x5268C, size: 0x8, addend: 0x0, symName: __ZNSt3__1neB8ne190107IPNS_5tupleIJNS_12basic_stringIcNS_11char_traitsIcEENS_9allocatorIcEEEENS_6vectorIS7_NS5_IS7_EEEEEEESC_EEbRKNS_16reverse_iteratorIT_EERKNSD_IT0_EEQrqXnecldtfp_4baseEcldtfp0_4baseERNS_14convertible_toIbEEE, symObjAddr: 0xA24B8, symBinAddr: 0x1000A3CA4, symSize: 0x0 }
  - { offset: 0x526D8, size: 0x8, addend: 0x0, symName: __ZNSt3__112__to_addressB8ne190107INS_16reverse_iteratorIPNS_5tupleIJNS_12basic_stringIcNS_11char_traitsIcEENS_9allocatorIcEEEENS_6vectorIS8_NS6_IS8_EEEEEEEEETnNS_9enable_ifIXsr4_AndINS_8is_classIT_EENS_15_IsFancyPointerISH_EEEE5valueEiE4typeELi0EEEu7__decayIDTclsr19__to_address_helperISH_EE6__callclsr3stdE7declvalIRKSH_EEEEESO_, symObjAddr: 0xA2580, symBinAddr: 0x1000A3D6C, symSize: 0x0 }
  - { offset: 0x52715, size: 0x8, addend: 0x0, symName: __ZNSt3__112__destroy_atB8ne190107INS_5tupleIJNS_12basic_stringIcNS_11char_traitsIcEENS_9allocatorIcEEEENS_6vectorIS7_NS5_IS7_EEEEEEETnNS_9enable_ifIXntsr8is_arrayIT_EE5valueEiE4typeELi0EEEvPSD_, symObjAddr: 0xA2804, symBinAddr: 0x1000A3FF0, symSize: 0x0 }
  - { offset: 0x52777, size: 0x8, addend: 0x0, symName: __ZNSt3__14prevB8ne190107IPNS_5tupleIJNS_12basic_stringIcNS_11char_traitsIcEENS_9allocatorIcEEEENS_6vectorIS7_NS5_IS7_EEEEEEETnNS_9enable_ifIXsr29__has_input_iterator_categoryIT_EE5valueEiE4typeELi0EEESE_SE_NS_15iterator_traitsISE_E15difference_typeE, symObjAddr: 0xA2984, symBinAddr: 0x1000A4170, symSize: 0x0 }
  - { offset: 0x527C7, size: 0x8, addend: 0x0, symName: __ZNSt3__19__advanceB8ne190107IPNS_5tupleIJNS_12basic_stringIcNS_11char_traitsIcEENS_9allocatorIcEEEENS_6vectorIS7_NS5_IS7_EEEEEEEEEvRT_NS_15iterator_traitsISD_E15difference_typeENS_26random_access_iterator_tagE, symObjAddr: 0xA2BF0, symBinAddr: 0x1000A43DC, symSize: 0x0 }
  - { offset: 0x52865, size: 0x8, addend: 0x0, symName: __ZNSt3__1eqB8ne190107IPKNS_5tupleIJNS_12basic_stringIcNS_11char_traitsIcEENS_9allocatorIcEEEENS_6vectorIS7_NS5_IS7_EEEEEEEEEbRKNS_11__wrap_iterIT_EESI_, symObjAddr: 0xA6664, symBinAddr: 0x1000A7E50, symSize: 0x0 }
  - { offset: 0x532FE, size: 0x8, addend: 0x0, symName: __ZNSt3__13getB8ne190107ILm0EJPKcNS_6vectorINS_12basic_stringIcNS_11char_traitsIcEENS_9allocatorIcEEEENS7_IS9_EEEEEEERKNS_13tuple_elementIXT_ENS_5tupleIJDpT0_EEEE4typeERKSG_, symObjAddr: 0xAA970, symBinAddr: 0x1000AC15C, symSize: 0x0 }
  - { offset: 0x53345, size: 0x8, addend: 0x0, symName: __ZNSt3__13getB8ne190107ILm1EJPKcNS_6vectorINS_12basic_stringIcNS_11char_traitsIcEENS_9allocatorIcEEEENS7_IS9_EEEEEEERKNS_13tuple_elementIXT_ENS_5tupleIJDpT0_EEEE4typeERKSG_, symObjAddr: 0xAAA30, symBinAddr: 0x1000AC21C, symSize: 0x0 }
  - { offset: 0x5338C, size: 0x8, addend: 0x0, symName: __ZNSt3__130__uninitialized_allocator_copyB8ne190107INS_9allocatorINS_5tupleIJNS_12basic_stringIcNS_11char_traitsIcEENS1_IcEEEENS_6vectorIS7_NS1_IS7_EEEEEEEEEPKSB_SE_PSB_EET2_RT_T0_T1_SG_, symObjAddr: 0xAB6FC, symBinAddr: 0x1000ACEE8, symSize: 0x0 }
  - { offset: 0x53432, size: 0x8, addend: 0x0, symName: __ZNSt3__114__unwrap_rangeB8ne190107IPKNS_5tupleIJNS_12basic_stringIcNS_11char_traitsIcEENS_9allocatorIcEEEENS_6vectorIS7_NS5_IS7_EEEEEEESD_EEDaT_T0_, symObjAddr: 0xAB968, symBinAddr: 0x1000AD154, symSize: 0x0 }
  - { offset: 0x534B4, size: 0x8, addend: 0x0, symName: __ZNSt3__113__unwrap_iterB8ne190107IPKNS_5tupleIJNS_12basic_stringIcNS_11char_traitsIcEENS_9allocatorIcEEEENS_6vectorIS7_NS5_IS7_EEEEEEENS_18__unwrap_iter_implISD_Lb1EEETnNS_9enable_ifIXsr21is_copy_constructibleIT_EE5valueEiE4typeELi0EEEDTclsrT0_8__unwrapclsr3stdE7declvalISH_EEEESH_, symObjAddr: 0xABBFC, symBinAddr: 0x1000AD3E8, symSize: 0x0 }
  - { offset: 0x5354D, size: 0x8, addend: 0x0, symName: __ZNSt3__110make_tupleB8ne190107IJN7testing8internal10ValueArrayIJNS_5tupleIJPKcNS_6vectorINS_12basic_stringIcNS_11char_traitsIcEENS_9allocatorIcEEEENSB_ISD_EEEEEEESG_SG_SG_SG_SG_SG_EEEEEENS4_IJDpNS_18__unwrap_ref_decayIT_E4typeEEEEDpOSJ_, symObjAddr: 0xAC2D0, symBinAddr: 0x1000ADABC, symSize: 0x0 }
  - { offset: 0x5359C, size: 0x8, addend: 0x0, symName: __ZNSt3__112__to_addressB8ne190107INS_10shared_ptrIN7testing8internal26ParameterizedTestSuiteInfoIN12_GLOBAL__N_124CaesarDec_JoinWithSpacesEE8TestInfoEEEEEPT_SB_, symObjAddr: 0xAEC38, symBinAddr: 0x1000B0424, symSize: 0x0 }
  - { offset: 0x535D2, size: 0x8, addend: 0x0, symName: __ZNSt3__131__annotate_contiguous_containerB8ne190107INS_9allocatorINS_10shared_ptrIN7testing8internal26ParameterizedTestSuiteInfoIN12_GLOBAL__N_124CaesarDec_JoinWithSpacesEE8TestInfoEEEEEEEvPKvSD_SD_SD_, symObjAddr: 0xAF578, symBinAddr: 0x1000B0D64, symSize: 0x0 }
  - { offset: 0x5362D, size: 0x8, addend: 0x0, symName: __ZNSt3__114__construct_atB8ne190107INS_10shared_ptrIN7testing8internal26ParameterizedTestSuiteInfoIN12_GLOBAL__N_124CaesarDec_JoinWithSpacesEE8TestInfoEEEJPS8_EPS9_EEPT_SD_DpOT0_, symObjAddr: 0xAF940, symBinAddr: 0x1000B112C, symSize: 0x0 }
  - { offset: 0x536A7, size: 0x8, addend: 0x0, symName: __ZNSt3__112construct_atB8ne190107INS_10shared_ptrIN7testing8internal26ParameterizedTestSuiteInfoIN12_GLOBAL__N_124CaesarDec_JoinWithSpacesEE8TestInfoEEEJPS8_EPS9_EEPT_SD_DpOT0_, symObjAddr: 0xAF9B4, symBinAddr: 0x1000B11A0, symSize: 0x0 }
  - { offset: 0x54197, size: 0x8, addend: 0x0, symName: __ZNSt3__119__allocate_at_leastB8ne190107INS_9allocatorINS_10shared_ptrIN7testing8internal26ParameterizedTestSuiteInfoIN12_GLOBAL__N_124CaesarDec_JoinWithSpacesEE8TestInfoEEEEEEENS_19__allocation_resultINS_16allocator_traitsIT_E7pointerEEERSE_m, symObjAddr: 0xB505C, symBinAddr: 0x1000B6848, symSize: 0x0 }
  - { offset: 0x541DB, size: 0x8, addend: 0x0, symName: __ZNSt3__134__uninitialized_allocator_relocateB8ne190107INS_9allocatorINS_10shared_ptrIN7testing8internal26ParameterizedTestSuiteInfoIN12_GLOBAL__N_124CaesarDec_JoinWithSpacesEE8TestInfoEEEEESA_EEvRT_PT0_SF_SF_, symObjAddr: 0xB5A60, symBinAddr: 0x1000B724C, symSize: 0x0 }
  - { offset: 0x54244, size: 0x8, addend: 0x0, symName: __ZNSt3__14swapB8ne190107IPNS_10shared_ptrIN7testing8internal26ParameterizedTestSuiteInfoIN12_GLOBAL__N_124CaesarDec_JoinWithSpacesEE8TestInfoEEEEENS_9enable_ifIXaasr21is_move_constructibleIT_EE5valuesr18is_move_assignableISC_EE5valueEvE4typeERSC_SF_, symObjAddr: 0xB5B10, symBinAddr: 0x1000B72FC, symSize: 0x0 }
  - { offset: 0x54296, size: 0x8, addend: 0x0, symName: __ZNSt3__112__destroy_atB8ne190107INS_10shared_ptrIN7testing8internal26ParameterizedTestSuiteInfoIN12_GLOBAL__N_124CaesarDec_JoinWithSpacesEE8TestInfoEEETnNS_9enable_ifIXntsr8is_arrayIT_EE5valueEiE4typeELi0EEEvPSB_, symObjAddr: 0xB645C, symBinAddr: 0x1000B7C48, symSize: 0x0 }
  - { offset: 0x542CE, size: 0x8, addend: 0x0, symName: __ZNSt3__13getB8ne190107ILm0EJNS_6vectorINS_12basic_stringIcNS_11char_traitsIcEENS_9allocatorIcEEEENS5_IS7_EEEES7_EEERKNS_13tuple_elementIXT_ENS_5tupleIJDpT0_EEEE4typeERKSE_, symObjAddr: 0xB95E4, symBinAddr: 0x1000BADD0, symSize: 0x0 }
  - { offset: 0x54316, size: 0x8, addend: 0x0, symName: __ZNSt3__13getB8ne190107ILm1EJNS_6vectorINS_12basic_stringIcNS_11char_traitsIcEENS_9allocatorIcEEEENS5_IS7_EEEES7_EEERKNS_13tuple_elementIXT_ENS_5tupleIJDpT0_EEEE4typeERKSE_, symObjAddr: 0xB96A4, symBinAddr: 0x1000BAE90, symSize: 0x0 }
  - { offset: 0x5435E, size: 0x8, addend: 0x0, symName: __ZNSt3__110make_tupleB8ne190107IJNS_6vectorINS_12basic_stringIcNS_11char_traitsIcEENS_9allocatorIcEEEENS5_IS7_EEEERA1_KcEEENS_5tupleIJDpNS_18__unwrap_ref_decayIT_E4typeEEEEDpOSF_, symObjAddr: 0xB9D7C, symBinAddr: 0x1000BB568, symSize: 0x0 }
  - { offset: 0x543AB, size: 0x8, addend: 0x0, symName: __ZNSt3__110make_tupleB8ne190107IJNS_6vectorINS_12basic_stringIcNS_11char_traitsIcEENS_9allocatorIcEEEENS5_IS7_EEEERA5_KcEEENS_5tupleIJDpNS_18__unwrap_ref_decayIT_E4typeEEEEDpOSF_, symObjAddr: 0xB9E4C, symBinAddr: 0x1000BB638, symSize: 0x0 }
  - { offset: 0x543F8, size: 0x8, addend: 0x0, symName: __ZNSt3__110make_tupleB8ne190107IJNS_6vectorINS_12basic_stringIcNS_11char_traitsIcEENS_9allocatorIcEEEENS5_IS7_EEEERA11_KcEEENS_5tupleIJDpNS_18__unwrap_ref_decayIT_E4typeEEEEDpOSF_, symObjAddr: 0xB9F1C, symBinAddr: 0x1000BB708, symSize: 0x0 }
  - { offset: 0x54445, size: 0x8, addend: 0x0, symName: __ZNSt3__110make_tupleB8ne190107IJNS_6vectorINS_12basic_stringIcNS_11char_traitsIcEENS_9allocatorIcEEEENS5_IS7_EEEERA24_KcEEENS_5tupleIJDpNS_18__unwrap_ref_decayIT_E4typeEEEEDpOSF_, symObjAddr: 0xB9FEC, symBinAddr: 0x1000BB7D8, symSize: 0x0 }
  - { offset: 0x544AC, size: 0x8, addend: 0x0, symName: __ZNSt3__18distanceB8ne190107INS_11__wrap_iterIPKNS_5tupleIJNS_6vectorINS_12basic_stringIcNS_11char_traitsIcEENS_9allocatorIcEEEENS7_IS9_EEEES9_EEEEEEENS_15iterator_traitsIT_E15difference_typeESH_SH_, symObjAddr: 0xBDB20, symBinAddr: 0x1000BF30C, symSize: 0x0 }
  - { offset: 0x544EF, size: 0x8, addend: 0x0, symName: __ZNSt3__110__distanceB8ne190107INS_11__wrap_iterIPKNS_5tupleIJNS_6vectorINS_12basic_stringIcNS_11char_traitsIcEENS_9allocatorIcEEEENS7_IS9_EEEES9_EEEEEEENS_15iterator_traitsIT_E15difference_typeESH_SH_NS_26random_access_iterator_tagE, symObjAddr: 0xBE210, symBinAddr: 0x1000BF9FC, symSize: 0x0 }
  - { offset: 0x54546, size: 0x8, addend: 0x0, symName: __ZNSt3__1miB8ne190107IPKNS_5tupleIJNS_6vectorINS_12basic_stringIcNS_11char_traitsIcEENS_9allocatorIcEEEENS6_IS8_EEEES8_EEESD_EEDTmicldtfp_4baseEcldtfp0_4baseEERKNS_11__wrap_iterIT_EERKNSF_IT0_EE, symObjAddr: 0xBE3F8, symBinAddr: 0x1000BFBE4, symSize: 0x0 }
  - { offset: 0x54592, size: 0x8, addend: 0x0, symName: __ZNSt3__122__make_exception_guardB8ne190107INS_6vectorINS_5tupleIJNS1_INS_12basic_stringIcNS_11char_traitsIcEENS_9allocatorIcEEEENS6_IS8_EEEES8_EEENS6_ISB_EEE16__destroy_vectorEEENS_28__exception_guard_exceptionsIT_EESG_, symObjAddr: 0xBE530, symBinAddr: 0x1000BFD1C, symSize: 0x0 }
  - { offset: 0x545C7, size: 0x8, addend: 0x0, symName: __ZNSt3__119__allocate_at_leastB8ne190107INS_9allocatorINS_5tupleIJNS_6vectorINS_12basic_stringIcNS_11char_traitsIcEENS1_IcEEEENS1_IS8_EEEES8_EEEEEEENS_19__allocation_resultINS_16allocator_traitsIT_E7pointerEEERSF_m, symObjAddr: 0xBF578, symBinAddr: 0x1000C0D64, symSize: 0x0 }
  - { offset: 0x5460B, size: 0x8, addend: 0x0, symName: __ZNSt3__131__annotate_contiguous_containerB8ne190107INS_9allocatorINS_5tupleIJNS_6vectorINS_12basic_stringIcNS_11char_traitsIcEENS1_IcEEEENS1_IS8_EEEES8_EEEEEEEvPKvSE_SE_SE_, symObjAddr: 0xC0210, symBinAddr: 0x1000C19FC, symSize: 0x0 }
  - { offset: 0x54667, size: 0x8, addend: 0x0, symName: __ZNSt3__112__to_addressB8ne190107INS_5tupleIJNS_6vectorINS_12basic_stringIcNS_11char_traitsIcEENS_9allocatorIcEEEENS6_IS8_EEEES8_EEEEEPT_SD_, symObjAddr: 0xC0264, symBinAddr: 0x1000C1A50, symSize: 0x0 }
  - { offset: 0x5469C, size: 0x8, addend: 0x0, symName: __ZNSt3__130__uninitialized_allocator_copyB8ne190107INS_9allocatorINS_5tupleIJNS_6vectorINS_12basic_stringIcNS_11char_traitsIcEENS1_IcEEEENS1_IS8_EEEES8_EEEEENS_11__wrap_iterIPKSB_EESG_PSB_EET2_RT_T0_T1_SI_, symObjAddr: 0xC0544, symBinAddr: 0x1000C1D30, symSize: 0x0 }
  - { offset: 0x54742, size: 0x8, addend: 0x0, symName: __ZNSt3__114__unwrap_rangeB8ne190107INS_11__wrap_iterIPKNS_5tupleIJNS_6vectorINS_12basic_stringIcNS_11char_traitsIcEENS_9allocatorIcEEEENS7_IS9_EEEES9_EEEEESF_EEDaT_T0_, symObjAddr: 0xC0F5C, symBinAddr: 0x1000C2748, symSize: 0x0 }
  - { offset: 0x5478E, size: 0x8, addend: 0x0, symName: __ZNSt3__135__uninitialized_allocator_copy_implB8ne190107INS_9allocatorINS_5tupleIJNS_6vectorINS_12basic_stringIcNS_11char_traitsIcEENS1_IcEEEENS1_IS8_EEEES8_EEEEEPKSB_SE_PSB_EET2_RT_T0_T1_SG_, symObjAddr: 0xC0FD0, symBinAddr: 0x1000C27BC, symSize: 0x0 }
  - { offset: 0x5483A, size: 0x8, addend: 0x0, symName: __ZNSt3__113__unwrap_iterB8ne190107IPNS_5tupleIJNS_6vectorINS_12basic_stringIcNS_11char_traitsIcEENS_9allocatorIcEEEENS6_IS8_EEEES8_EEENS_18__unwrap_iter_implISC_Lb1EEETnNS_9enable_ifIXsr21is_copy_constructibleIT_EE5valueEiE4typeELi0EEEDTclsrT0_8__unwrapclsr3stdE7declvalISG_EEEESG_, symObjAddr: 0xC14F8, symBinAddr: 0x1000C2CE4, symSize: 0x0 }
  - { offset: 0x5487F, size: 0x8, addend: 0x0, symName: __ZNSt3__113__rewrap_iterB8ne190107IPNS_5tupleIJNS_6vectorINS_12basic_stringIcNS_11char_traitsIcEENS_9allocatorIcEEEENS6_IS8_EEEES8_EEESC_NS_18__unwrap_iter_implISC_Lb1EEEEET_SF_T0_, symObjAddr: 0xC1524, symBinAddr: 0x1000C2D10, symSize: 0x0 }
  - { offset: 0x549D7, size: 0x8, addend: 0x0, symName: __ZNSt3__113__unwrap_iterB8ne190107INS_11__wrap_iterIPKNS_5tupleIJNS_6vectorINS_12basic_stringIcNS_11char_traitsIcEENS_9allocatorIcEEEENS7_IS9_EEEES9_EEEEENS_18__unwrap_iter_implISF_Lb1EEETnNS_9enable_ifIXsr21is_copy_constructibleIT_EE5valueEiE4typeELi0EEEDTclsrT0_8__unwrapclsr3stdE7declvalISJ_EEEESJ_, symObjAddr: 0xC1800, symBinAddr: 0x1000C2FEC, symSize: 0x0 }
  - { offset: 0x54A70, size: 0x8, addend: 0x0, symName: __ZNSt3__112__to_addressB8ne190107INS_11__wrap_iterIPKNS_5tupleIJNS_6vectorINS_12basic_stringIcNS_11char_traitsIcEENS_9allocatorIcEEEENS7_IS9_EEEES9_EEEEETnNS_9enable_ifIXsr4_AndINS_8is_classIT_EENS_15_IsFancyPointerISI_EEEE5valueEiE4typeELi0EEEu7__decayIDTclsr19__to_address_helperISI_EE6__callclsr3stdE7declvalIRKSI_EEEEESP_, symObjAddr: 0xC1A58, symBinAddr: 0x1000C3244, symSize: 0x0 }
  - { offset: 0x54B57, size: 0x8, addend: 0x0, symName: __ZNSt3__112__to_addressB8ne190107IKNS_5tupleIJNS_6vectorINS_12basic_stringIcNS_11char_traitsIcEENS_9allocatorIcEEEENS6_IS8_EEEES8_EEEEEPT_SE_, symObjAddr: 0xC1CA4, symBinAddr: 0x1000C3490, symSize: 0x0 }
  - { offset: 0x54B8C, size: 0x8, addend: 0x0, symName: __ZNSt3__122__make_exception_guardB8ne190107INS_29_AllocatorDestroyRangeReverseINS_9allocatorINS_5tupleIJNS_6vectorINS_12basic_stringIcNS_11char_traitsIcEENS2_IcEEEENS2_IS9_EEEES9_EEEEEPSC_EEEENS_28__exception_guard_exceptionsIT_EESH_, symObjAddr: 0xC1E98, symBinAddr: 0x1000C3684, symSize: 0x0 }
  - { offset: 0x54BC3, size: 0x8, addend: 0x0, symName: __ZNSt3__114__construct_atB8ne190107INS_5tupleIJNS_6vectorINS_12basic_stringIcNS_11char_traitsIcEENS_9allocatorIcEEEENS6_IS8_EEEES8_EEEJRKSB_EPSB_EEPT_SG_DpOT0_, symObjAddr: 0xC25D8, symBinAddr: 0x1000C3DC4, symSize: 0x0 }
  - { offset: 0x54C3D, size: 0x8, addend: 0x0, symName: __ZNSt3__112construct_atB8ne190107INS_5tupleIJNS_6vectorINS_12basic_stringIcNS_11char_traitsIcEENS_9allocatorIcEEEENS6_IS8_EEEES8_EEEJRKSB_EPSB_EEPT_SG_DpOT0_, symObjAddr: 0xC264C, symBinAddr: 0x1000C3E38, symSize: 0x0 }
  - { offset: 0x54CAF, size: 0x8, addend: 0x0, symName: __ZNSt3__119__allocator_destroyB8ne190107INS_9allocatorINS_5tupleIJNS_6vectorINS_12basic_stringIcNS_11char_traitsIcEENS1_IcEEEENS1_IS8_EEEES8_EEEEENS_16reverse_iteratorIPSB_EESF_EEvRT_T0_T1_, symObjAddr: 0xC2BC8, symBinAddr: 0x1000C43B4, symSize: 0x0 }
  - { offset: 0x54D1B, size: 0x8, addend: 0x0, symName: __ZNSt3__1neB8ne190107IPNS_5tupleIJNS_6vectorINS_12basic_stringIcNS_11char_traitsIcEENS_9allocatorIcEEEENS6_IS8_EEEES8_EEESC_EEbRKNS_16reverse_iteratorIT_EERKNSD_IT0_EEQrqXnecldtfp_4baseEcldtfp0_4baseERNS_14convertible_toIbEEE, symObjAddr: 0xC2E80, symBinAddr: 0x1000C466C, symSize: 0x0 }
  - { offset: 0x54D67, size: 0x8, addend: 0x0, symName: __ZNSt3__112__to_addressB8ne190107INS_16reverse_iteratorIPNS_5tupleIJNS_6vectorINS_12basic_stringIcNS_11char_traitsIcEENS_9allocatorIcEEEENS7_IS9_EEEES9_EEEEETnNS_9enable_ifIXsr4_AndINS_8is_classIT_EENS_15_IsFancyPointerISH_EEEE5valueEiE4typeELi0EEEu7__decayIDTclsr19__to_address_helperISH_EE6__callclsr3stdE7declvalIRKSH_EEEEESO_, symObjAddr: 0xC2F48, symBinAddr: 0x1000C4734, symSize: 0x0 }
  - { offset: 0x54DA4, size: 0x8, addend: 0x0, symName: __ZNSt3__112__destroy_atB8ne190107INS_5tupleIJNS_6vectorINS_12basic_stringIcNS_11char_traitsIcEENS_9allocatorIcEEEENS6_IS8_EEEES8_EEETnNS_9enable_ifIXntsr8is_arrayIT_EE5valueEiE4typeELi0EEEvPSD_, symObjAddr: 0xC31CC, symBinAddr: 0x1000C49B8, symSize: 0x0 }
  - { offset: 0x54E06, size: 0x8, addend: 0x0, symName: __ZNSt3__14prevB8ne190107IPNS_5tupleIJNS_6vectorINS_12basic_stringIcNS_11char_traitsIcEENS_9allocatorIcEEEENS6_IS8_EEEES8_EEETnNS_9enable_ifIXsr29__has_input_iterator_categoryIT_EE5valueEiE4typeELi0EEESE_SE_NS_15iterator_traitsISE_E15difference_typeE, symObjAddr: 0xC334C, symBinAddr: 0x1000C4B38, symSize: 0x0 }
  - { offset: 0x54E56, size: 0x8, addend: 0x0, symName: __ZNSt3__19__advanceB8ne190107IPNS_5tupleIJNS_6vectorINS_12basic_stringIcNS_11char_traitsIcEENS_9allocatorIcEEEENS6_IS8_EEEES8_EEEEEvRT_NS_15iterator_traitsISD_E15difference_typeENS_26random_access_iterator_tagE, symObjAddr: 0xC35B8, symBinAddr: 0x1000C4DA4, symSize: 0x0 }
  - { offset: 0x54EF4, size: 0x8, addend: 0x0, symName: __ZNSt3__1eqB8ne190107IPKNS_5tupleIJNS_6vectorINS_12basic_stringIcNS_11char_traitsIcEENS_9allocatorIcEEEENS6_IS8_EEEES8_EEEEEbRKNS_11__wrap_iterIT_EESI_, symObjAddr: 0xC702C, symBinAddr: 0x1000C8818, symSize: 0x0 }
  - { offset: 0x5598D, size: 0x8, addend: 0x0, symName: __ZNSt3__13getB8ne190107ILm0EJNS_6vectorINS_12basic_stringIcNS_11char_traitsIcEENS_9allocatorIcEEEENS5_IS7_EEEEPKcEEERKNS_13tuple_elementIXT_ENS_5tupleIJDpT0_EEEE4typeERKSG_, symObjAddr: 0xCB0F8, symBinAddr: 0x1000CC8E4, symSize: 0x0 }
  - { offset: 0x559D4, size: 0x8, addend: 0x0, symName: __ZNSt3__13getB8ne190107ILm1EJNS_6vectorINS_12basic_stringIcNS_11char_traitsIcEENS_9allocatorIcEEEENS5_IS7_EEEEPKcEEERKNS_13tuple_elementIXT_ENS_5tupleIJDpT0_EEEE4typeERKSG_, symObjAddr: 0xCB25C, symBinAddr: 0x1000CCA48, symSize: 0x0 }
  - { offset: 0x55A1B, size: 0x8, addend: 0x0, symName: __ZNSt3__130__uninitialized_allocator_copyB8ne190107INS_9allocatorINS_5tupleIJNS_6vectorINS_12basic_stringIcNS_11char_traitsIcEENS1_IcEEEENS1_IS8_EEEES8_EEEEEPKSB_SE_PSB_EET2_RT_T0_T1_SG_, symObjAddr: 0xCBE84, symBinAddr: 0x1000CD670, symSize: 0x0 }
  - { offset: 0x55AC1, size: 0x8, addend: 0x0, symName: __ZNSt3__114__unwrap_rangeB8ne190107IPKNS_5tupleIJNS_6vectorINS_12basic_stringIcNS_11char_traitsIcEENS_9allocatorIcEEEENS6_IS8_EEEES8_EEESD_EEDaT_T0_, symObjAddr: 0xCC0F0, symBinAddr: 0x1000CD8DC, symSize: 0x0 }
  - { offset: 0x55B43, size: 0x8, addend: 0x0, symName: __ZNSt3__113__unwrap_iterB8ne190107IPKNS_5tupleIJNS_6vectorINS_12basic_stringIcNS_11char_traitsIcEENS_9allocatorIcEEEENS6_IS8_EEEES8_EEENS_18__unwrap_iter_implISD_Lb1EEETnNS_9enable_ifIXsr21is_copy_constructibleIT_EE5valueEiE4typeELi0EEEDTclsrT0_8__unwrapclsr3stdE7declvalISH_EEEESH_, symObjAddr: 0xCC384, symBinAddr: 0x1000CDB70, symSize: 0x0 }
  - { offset: 0x55BDC, size: 0x8, addend: 0x0, symName: __ZNSt3__110make_tupleB8ne190107IJN7testing8internal10ValueArrayIJNS_5tupleIJNS_6vectorINS_12basic_stringIcNS_11char_traitsIcEENS_9allocatorIcEEEENS9_ISB_EEEEPKcEEESG_SG_SG_EEEEEENS4_IJDpNS_18__unwrap_ref_decayIT_E4typeEEEEDpOSJ_, symObjAddr: 0xCCA30, symBinAddr: 0x1000CE21C, symSize: 0x0 }
  - { offset: 0x55C2B, size: 0x8, addend: 0x0, symName: __ZNSt3__112__to_addressB8ne190107INS_10shared_ptrIN7testing8internal26ParameterizedTestSuiteInfoIN12_GLOBAL__N_120CaesarDec_NumWordsInEE8TestInfoEEEEEPT_SB_, symObjAddr: 0xCEED0, symBinAddr: 0x1000D06BC, symSize: 0x0 }
  - { offset: 0x55C61, size: 0x8, addend: 0x0, symName: __ZNSt3__131__annotate_contiguous_containerB8ne190107INS_9allocatorINS_10shared_ptrIN7testing8internal26ParameterizedTestSuiteInfoIN12_GLOBAL__N_120CaesarDec_NumWordsInEE8TestInfoEEEEEEEvPKvSD_SD_SD_, symObjAddr: 0xCF810, symBinAddr: 0x1000D0FFC, symSize: 0x0 }
  - { offset: 0x55CBC, size: 0x8, addend: 0x0, symName: __ZNSt3__114__construct_atB8ne190107INS_10shared_ptrIN7testing8internal26ParameterizedTestSuiteInfoIN12_GLOBAL__N_120CaesarDec_NumWordsInEE8TestInfoEEEJPS8_EPS9_EEPT_SD_DpOT0_, symObjAddr: 0xCFBD8, symBinAddr: 0x1000D13C4, symSize: 0x0 }
  - { offset: 0x55D36, size: 0x8, addend: 0x0, symName: __ZNSt3__112construct_atB8ne190107INS_10shared_ptrIN7testing8internal26ParameterizedTestSuiteInfoIN12_GLOBAL__N_120CaesarDec_NumWordsInEE8TestInfoEEEJPS8_EPS9_EEPT_SD_DpOT0_, symObjAddr: 0xCFC4C, symBinAddr: 0x1000D1438, symSize: 0x0 }
  - { offset: 0x56826, size: 0x8, addend: 0x0, symName: __ZNSt3__119__allocate_at_leastB8ne190107INS_9allocatorINS_10shared_ptrIN7testing8internal26ParameterizedTestSuiteInfoIN12_GLOBAL__N_120CaesarDec_NumWordsInEE8TestInfoEEEEEEENS_19__allocation_resultINS_16allocator_traitsIT_E7pointerEEERSE_m, symObjAddr: 0xD52F4, symBinAddr: 0x1000D6AE0, symSize: 0x0 }
  - { offset: 0x5686A, size: 0x8, addend: 0x0, symName: __ZNSt3__134__uninitialized_allocator_relocateB8ne190107INS_9allocatorINS_10shared_ptrIN7testing8internal26ParameterizedTestSuiteInfoIN12_GLOBAL__N_120CaesarDec_NumWordsInEE8TestInfoEEEEESA_EEvRT_PT0_SF_SF_, symObjAddr: 0xD5CF8, symBinAddr: 0x1000D74E4, symSize: 0x0 }
  - { offset: 0x568D3, size: 0x8, addend: 0x0, symName: __ZNSt3__14swapB8ne190107IPNS_10shared_ptrIN7testing8internal26ParameterizedTestSuiteInfoIN12_GLOBAL__N_120CaesarDec_NumWordsInEE8TestInfoEEEEENS_9enable_ifIXaasr21is_move_constructibleIT_EE5valuesr18is_move_assignableISC_EE5valueEvE4typeERSC_SF_, symObjAddr: 0xD5DA8, symBinAddr: 0x1000D7594, symSize: 0x0 }
  - { offset: 0x56925, size: 0x8, addend: 0x0, symName: __ZNSt3__112__destroy_atB8ne190107INS_10shared_ptrIN7testing8internal26ParameterizedTestSuiteInfoIN12_GLOBAL__N_120CaesarDec_NumWordsInEE8TestInfoEEETnNS_9enable_ifIXntsr8is_arrayIT_EE5valueEiE4typeELi0EEEvPSB_, symObjAddr: 0xD66F4, symBinAddr: 0x1000D7EE0, symSize: 0x0 }
  - { offset: 0x5695D, size: 0x8, addend: 0x0, symName: __ZNSt3__13getB8ne190107ILm0EJNS_6vectorINS_12basic_stringIcNS_11char_traitsIcEENS_9allocatorIcEEEENS5_IS7_EEEES9_iEEERKNS_13tuple_elementIXT_ENS_5tupleIJDpT0_EEEE4typeERKSE_, symObjAddr: 0xD97C8, symBinAddr: 0x1000DAFB4, symSize: 0x0 }
  - { offset: 0x569AA, size: 0x8, addend: 0x0, symName: __ZNSt3__13getB8ne190107ILm1EJNS_6vectorINS_12basic_stringIcNS_11char_traitsIcEENS_9allocatorIcEEEENS5_IS7_EEEES9_iEEERKNS_13tuple_elementIXT_ENS_5tupleIJDpT0_EEEE4typeERKSE_, symObjAddr: 0xD9888, symBinAddr: 0x1000DB074, symSize: 0x0 }
  - { offset: 0x569F7, size: 0x8, addend: 0x0, symName: __ZNSt3__13getB8ne190107ILm2EJNS_6vectorINS_12basic_stringIcNS_11char_traitsIcEENS_9allocatorIcEEEENS5_IS7_EEEES9_iEEERKNS_13tuple_elementIXT_ENS_5tupleIJDpT0_EEEE4typeERKSE_, symObjAddr: 0xD9958, symBinAddr: 0x1000DB144, symSize: 0x0 }
  - { offset: 0x56A44, size: 0x8, addend: 0x0, symName: __ZNSt3__13getB8ne190107ILm0EJPKN7testing8internal11MatcherBaseIRKiEEPKNS2_9EqMatcherIiEEEEEONS_13tuple_elementIXT_ENS_5tupleIJDpT0_EEEE4typeEOSH_, symObjAddr: 0xDE4BC, symBinAddr: 0x1000DFCA8, symSize: 0x0 }
  - { offset: 0x56A8C, size: 0x8, addend: 0x0, symName: __ZNSt3__110make_tupleB8ne190107IJPKN7testing8internal11MatcherBaseIRKiEEPKNS2_9EqMatcherIiEEEEENS_5tupleIJDpNS_18__unwrap_ref_decayIT_E4typeEEEEDpOSF_, symObjAddr: 0xDE57C, symBinAddr: 0x1000DFD68, symSize: 0x0 }
  - { offset: 0x56EE9, size: 0x8, addend: 0x0, symName: __ZNSt3__110make_tupleB8ne190107IJNS_6vectorINS_12basic_stringIcNS_11char_traitsIcEENS_9allocatorIcEEEENS5_IS7_EEEES9_iEEENS_5tupleIJDpNS_18__unwrap_ref_decayIT_E4typeEEEEDpOSC_, symObjAddr: 0xE01E8, symBinAddr: 0x1000E19D4, symSize: 0x0 }
  - { offset: 0x56F69, size: 0x8, addend: 0x0, symName: __ZNSt3__18distanceB8ne190107INS_11__wrap_iterIPKNS_5tupleIJNS_6vectorINS_12basic_stringIcNS_11char_traitsIcEENS_9allocatorIcEEEENS7_IS9_EEEESB_iEEEEEEENS_15iterator_traitsIT_E15difference_typeESH_SH_, symObjAddr: 0xE32D4, symBinAddr: 0x1000E4AC0, symSize: 0x0 }
  - { offset: 0x56FAC, size: 0x8, addend: 0x0, symName: __ZNSt3__110__distanceB8ne190107INS_11__wrap_iterIPKNS_5tupleIJNS_6vectorINS_12basic_stringIcNS_11char_traitsIcEENS_9allocatorIcEEEENS7_IS9_EEEESB_iEEEEEEENS_15iterator_traitsIT_E15difference_typeESH_SH_NS_26random_access_iterator_tagE, symObjAddr: 0xE39C4, symBinAddr: 0x1000E51B0, symSize: 0x0 }
  - { offset: 0x57003, size: 0x8, addend: 0x0, symName: __ZNSt3__1miB8ne190107IPKNS_5tupleIJNS_6vectorINS_12basic_stringIcNS_11char_traitsIcEENS_9allocatorIcEEEENS6_IS8_EEEESA_iEEESD_EEDTmicldtfp_4baseEcldtfp0_4baseEERKNS_11__wrap_iterIT_EERKNSF_IT0_EE, symObjAddr: 0xE3BAC, symBinAddr: 0x1000E5398, symSize: 0x0 }
  - { offset: 0x5704F, size: 0x8, addend: 0x0, symName: __ZNSt3__122__make_exception_guardB8ne190107INS_6vectorINS_5tupleIJNS1_INS_12basic_stringIcNS_11char_traitsIcEENS_9allocatorIcEEEENS6_IS8_EEEESA_iEEENS6_ISB_EEE16__destroy_vectorEEENS_28__exception_guard_exceptionsIT_EESG_, symObjAddr: 0xE3CE4, symBinAddr: 0x1000E54D0, symSize: 0x0 }
  - { offset: 0x57084, size: 0x8, addend: 0x0, symName: __ZNSt3__119__allocate_at_leastB8ne190107INS_9allocatorINS_5tupleIJNS_6vectorINS_12basic_stringIcNS_11char_traitsIcEENS1_IcEEEENS1_IS8_EEEESA_iEEEEEEENS_19__allocation_resultINS_16allocator_traitsIT_E7pointerEEERSF_m, symObjAddr: 0xE4D2C, symBinAddr: 0x1000E6518, symSize: 0x0 }
  - { offset: 0x570C8, size: 0x8, addend: 0x0, symName: __ZNSt3__131__annotate_contiguous_containerB8ne190107INS_9allocatorINS_5tupleIJNS_6vectorINS_12basic_stringIcNS_11char_traitsIcEENS1_IcEEEENS1_IS8_EEEESA_iEEEEEEEvPKvSE_SE_SE_, symObjAddr: 0xE59C4, symBinAddr: 0x1000E71B0, symSize: 0x0 }
  - { offset: 0x57124, size: 0x8, addend: 0x0, symName: __ZNSt3__112__to_addressB8ne190107INS_5tupleIJNS_6vectorINS_12basic_stringIcNS_11char_traitsIcEENS_9allocatorIcEEEENS6_IS8_EEEESA_iEEEEEPT_SD_, symObjAddr: 0xE5A18, symBinAddr: 0x1000E7204, symSize: 0x0 }
  - { offset: 0x57159, size: 0x8, addend: 0x0, symName: __ZNSt3__130__uninitialized_allocator_copyB8ne190107INS_9allocatorINS_5tupleIJNS_6vectorINS_12basic_stringIcNS_11char_traitsIcEENS1_IcEEEENS1_IS8_EEEESA_iEEEEENS_11__wrap_iterIPKSB_EESG_PSB_EET2_RT_T0_T1_SI_, symObjAddr: 0xE5CF8, symBinAddr: 0x1000E74E4, symSize: 0x0 }
  - { offset: 0x571FF, size: 0x8, addend: 0x0, symName: __ZNSt3__114__unwrap_rangeB8ne190107INS_11__wrap_iterIPKNS_5tupleIJNS_6vectorINS_12basic_stringIcNS_11char_traitsIcEENS_9allocatorIcEEEENS7_IS9_EEEESB_iEEEEESF_EEDaT_T0_, symObjAddr: 0xE6710, symBinAddr: 0x1000E7EFC, symSize: 0x0 }
  - { offset: 0x5724B, size: 0x8, addend: 0x0, symName: __ZNSt3__135__uninitialized_allocator_copy_implB8ne190107INS_9allocatorINS_5tupleIJNS_6vectorINS_12basic_stringIcNS_11char_traitsIcEENS1_IcEEEENS1_IS8_EEEESA_iEEEEEPKSB_SE_PSB_EET2_RT_T0_T1_SG_, symObjAddr: 0xE6784, symBinAddr: 0x1000E7F70, symSize: 0x0 }
  - { offset: 0x572F7, size: 0x8, addend: 0x0, symName: __ZNSt3__113__unwrap_iterB8ne190107IPNS_5tupleIJNS_6vectorINS_12basic_stringIcNS_11char_traitsIcEENS_9allocatorIcEEEENS6_IS8_EEEESA_iEEENS_18__unwrap_iter_implISC_Lb1EEETnNS_9enable_ifIXsr21is_copy_constructibleIT_EE5valueEiE4typeELi0EEEDTclsrT0_8__unwrapclsr3stdE7declvalISG_EEEESG_, symObjAddr: 0xE6CAC, symBinAddr: 0x1000E8498, symSize: 0x0 }
  - { offset: 0x5733C, size: 0x8, addend: 0x0, symName: __ZNSt3__113__rewrap_iterB8ne190107IPNS_5tupleIJNS_6vectorINS_12basic_stringIcNS_11char_traitsIcEENS_9allocatorIcEEEENS6_IS8_EEEESA_iEEESC_NS_18__unwrap_iter_implISC_Lb1EEEEET_SF_T0_, symObjAddr: 0xE6CD8, symBinAddr: 0x1000E84C4, symSize: 0x0 }
  - { offset: 0x57494, size: 0x8, addend: 0x0, symName: __ZNSt3__113__unwrap_iterB8ne190107INS_11__wrap_iterIPKNS_5tupleIJNS_6vectorINS_12basic_stringIcNS_11char_traitsIcEENS_9allocatorIcEEEENS7_IS9_EEEESB_iEEEEENS_18__unwrap_iter_implISF_Lb1EEETnNS_9enable_ifIXsr21is_copy_constructibleIT_EE5valueEiE4typeELi0EEEDTclsrT0_8__unwrapclsr3stdE7declvalISJ_EEEESJ_, symObjAddr: 0xE6FB4, symBinAddr: 0x1000E87A0, symSize: 0x0 }
  - { offset: 0x5752D, size: 0x8, addend: 0x0, symName: __ZNSt3__112__to_addressB8ne190107INS_11__wrap_iterIPKNS_5tupleIJNS_6vectorINS_12basic_stringIcNS_11char_traitsIcEENS_9allocatorIcEEEENS7_IS9_EEEESB_iEEEEETnNS_9enable_ifIXsr4_AndINS_8is_classIT_EENS_15_IsFancyPointerISI_EEEE5valueEiE4typeELi0EEEu7__decayIDTclsr19__to_address_helperISI_EE6__callclsr3stdE7declvalIRKSI_EEEEESP_, symObjAddr: 0xE720C, symBinAddr: 0x1000E89F8, symSize: 0x0 }
  - { offset: 0x57614, size: 0x8, addend: 0x0, symName: __ZNSt3__112__to_addressB8ne190107IKNS_5tupleIJNS_6vectorINS_12basic_stringIcNS_11char_traitsIcEENS_9allocatorIcEEEENS6_IS8_EEEESA_iEEEEEPT_SE_, symObjAddr: 0xE7458, symBinAddr: 0x1000E8C44, symSize: 0x0 }
  - { offset: 0x57649, size: 0x8, addend: 0x0, symName: __ZNSt3__122__make_exception_guardB8ne190107INS_29_AllocatorDestroyRangeReverseINS_9allocatorINS_5tupleIJNS_6vectorINS_12basic_stringIcNS_11char_traitsIcEENS2_IcEEEENS2_IS9_EEEESB_iEEEEEPSC_EEEENS_28__exception_guard_exceptionsIT_EESH_, symObjAddr: 0xE764C, symBinAddr: 0x1000E8E38, symSize: 0x0 }
  - { offset: 0x57680, size: 0x8, addend: 0x0, symName: __ZNSt3__114__construct_atB8ne190107INS_5tupleIJNS_6vectorINS_12basic_stringIcNS_11char_traitsIcEENS_9allocatorIcEEEENS6_IS8_EEEESA_iEEEJRKSB_EPSB_EEPT_SG_DpOT0_, symObjAddr: 0xE7D8C, symBinAddr: 0x1000E9578, symSize: 0x0 }
  - { offset: 0x576FA, size: 0x8, addend: 0x0, symName: __ZNSt3__112construct_atB8ne190107INS_5tupleIJNS_6vectorINS_12basic_stringIcNS_11char_traitsIcEENS_9allocatorIcEEEENS6_IS8_EEEESA_iEEEJRKSB_EPSB_EEPT_SG_DpOT0_, symObjAddr: 0xE7E00, symBinAddr: 0x1000E95EC, symSize: 0x0 }
  - { offset: 0x5776C, size: 0x8, addend: 0x0, symName: __ZNSt3__119__allocator_destroyB8ne190107INS_9allocatorINS_5tupleIJNS_6vectorINS_12basic_stringIcNS_11char_traitsIcEENS1_IcEEEENS1_IS8_EEEESA_iEEEEENS_16reverse_iteratorIPSB_EESF_EEvRT_T0_T1_, symObjAddr: 0xE837C, symBinAddr: 0x1000E9B68, symSize: 0x0 }
  - { offset: 0x577D8, size: 0x8, addend: 0x0, symName: __ZNSt3__1neB8ne190107IPNS_5tupleIJNS_6vectorINS_12basic_stringIcNS_11char_traitsIcEENS_9allocatorIcEEEENS6_IS8_EEEESA_iEEESC_EEbRKNS_16reverse_iteratorIT_EERKNSD_IT0_EEQrqXnecldtfp_4baseEcldtfp0_4baseERNS_14convertible_toIbEEE, symObjAddr: 0xE8634, symBinAddr: 0x1000E9E20, symSize: 0x0 }
  - { offset: 0x57824, size: 0x8, addend: 0x0, symName: __ZNSt3__112__to_addressB8ne190107INS_16reverse_iteratorIPNS_5tupleIJNS_6vectorINS_12basic_stringIcNS_11char_traitsIcEENS_9allocatorIcEEEENS7_IS9_EEEESB_iEEEEETnNS_9enable_ifIXsr4_AndINS_8is_classIT_EENS_15_IsFancyPointerISH_EEEE5valueEiE4typeELi0EEEu7__decayIDTclsr19__to_address_helperISH_EE6__callclsr3stdE7declvalIRKSH_EEEEESO_, symObjAddr: 0xE86FC, symBinAddr: 0x1000E9EE8, symSize: 0x0 }
  - { offset: 0x57861, size: 0x8, addend: 0x0, symName: __ZNSt3__112__destroy_atB8ne190107INS_5tupleIJNS_6vectorINS_12basic_stringIcNS_11char_traitsIcEENS_9allocatorIcEEEENS6_IS8_EEEESA_iEEETnNS_9enable_ifIXntsr8is_arrayIT_EE5valueEiE4typeELi0EEEvPSD_, symObjAddr: 0xE8980, symBinAddr: 0x1000EA16C, symSize: 0x0 }
  - { offset: 0x578C3, size: 0x8, addend: 0x0, symName: __ZNSt3__14prevB8ne190107IPNS_5tupleIJNS_6vectorINS_12basic_stringIcNS_11char_traitsIcEENS_9allocatorIcEEEENS6_IS8_EEEESA_iEEETnNS_9enable_ifIXsr29__has_input_iterator_categoryIT_EE5valueEiE4typeELi0EEESE_SE_NS_15iterator_traitsISE_E15difference_typeE, symObjAddr: 0xE8B00, symBinAddr: 0x1000EA2EC, symSize: 0x0 }
  - { offset: 0x57913, size: 0x8, addend: 0x0, symName: __ZNSt3__19__advanceB8ne190107IPNS_5tupleIJNS_6vectorINS_12basic_stringIcNS_11char_traitsIcEENS_9allocatorIcEEEENS6_IS8_EEEESA_iEEEEEvRT_NS_15iterator_traitsISD_E15difference_typeENS_26random_access_iterator_tagE, symObjAddr: 0xE8D6C, symBinAddr: 0x1000EA558, symSize: 0x0 }
  - { offset: 0x579B1, size: 0x8, addend: 0x0, symName: __ZNSt3__1eqB8ne190107IPKNS_5tupleIJNS_6vectorINS_12basic_stringIcNS_11char_traitsIcEENS_9allocatorIcEEEENS6_IS8_EEEESA_iEEEEEbRKNS_11__wrap_iterIT_EESI_, symObjAddr: 0xEC7E0, symBinAddr: 0x1000EDFCC, symSize: 0x0 }
  - { offset: 0x5844A, size: 0x8, addend: 0x0, symName: __ZNSt3__130__uninitialized_allocator_copyB8ne190107INS_9allocatorINS_5tupleIJNS_6vectorINS_12basic_stringIcNS_11char_traitsIcEENS1_IcEEEENS1_IS8_EEEESA_iEEEEEPKSB_SE_PSB_EET2_RT_T0_T1_SG_, symObjAddr: 0xF1084, symBinAddr: 0x1000F2870, symSize: 0x0 }
  - { offset: 0x584F0, size: 0x8, addend: 0x0, symName: __ZNSt3__114__unwrap_rangeB8ne190107IPKNS_5tupleIJNS_6vectorINS_12basic_stringIcNS_11char_traitsIcEENS_9allocatorIcEEEENS6_IS8_EEEESA_iEEESD_EEDaT_T0_, symObjAddr: 0xF12F0, symBinAddr: 0x1000F2ADC, symSize: 0x0 }
  - { offset: 0x58572, size: 0x8, addend: 0x0, symName: __ZNSt3__113__unwrap_iterB8ne190107IPKNS_5tupleIJNS_6vectorINS_12basic_stringIcNS_11char_traitsIcEENS_9allocatorIcEEEENS6_IS8_EEEESA_iEEENS_18__unwrap_iter_implISD_Lb1EEETnNS_9enable_ifIXsr21is_copy_constructibleIT_EE5valueEiE4typeELi0EEEDTclsrT0_8__unwrapclsr3stdE7declvalISH_EEEESH_, symObjAddr: 0xF1584, symBinAddr: 0x1000F2D70, symSize: 0x0 }
  - { offset: 0x5860B, size: 0x8, addend: 0x0, symName: __ZNSt3__110make_tupleB8ne190107IJN7testing8internal10ValueArrayIJNS_5tupleIJNS_6vectorINS_12basic_stringIcNS_11char_traitsIcEENS_9allocatorIcEEEENS9_ISB_EEEESD_iEEESE_SE_SE_EEEEEENS4_IJDpNS_18__unwrap_ref_decayIT_E4typeEEEEDpOSH_, symObjAddr: 0xF1B04, symBinAddr: 0x1000F32F0, symSize: 0x0 }
  - { offset: 0x5865A, size: 0x8, addend: 0x0, symName: __ZNSt3__112__to_addressB8ne190107INS_10shared_ptrIN7testing8internal26ParameterizedTestSuiteInfoIN12_GLOBAL__N_127CaesarDec_CustomDictCommandEE8TestInfoEEEEEPT_SB_, symObjAddr: 0xF3FA4, symBinAddr: 0x1000F5790, symSize: 0x0 }
  - { offset: 0x58690, size: 0x8, addend: 0x0, symName: __ZNSt3__131__annotate_contiguous_containerB8ne190107INS_9allocatorINS_10shared_ptrIN7testing8internal26ParameterizedTestSuiteInfoIN12_GLOBAL__N_127CaesarDec_CustomDictCommandEE8TestInfoEEEEEEEvPKvSD_SD_SD_, symObjAddr: 0xF48E4, symBinAddr: 0x1000F60D0, symSize: 0x0 }
  - { offset: 0x586EB, size: 0x8, addend: 0x0, symName: __ZNSt3__114__construct_atB8ne190107INS_10shared_ptrIN7testing8internal26ParameterizedTestSuiteInfoIN12_GLOBAL__N_127CaesarDec_CustomDictCommandEE8TestInfoEEEJPS8_EPS9_EEPT_SD_DpOT0_, symObjAddr: 0xF4CAC, symBinAddr: 0x1000F6498, symSize: 0x0 }
  - { offset: 0x58765, size: 0x8, addend: 0x0, symName: __ZNSt3__112construct_atB8ne190107INS_10shared_ptrIN7testing8internal26ParameterizedTestSuiteInfoIN12_GLOBAL__N_127CaesarDec_CustomDictCommandEE8TestInfoEEEJPS8_EPS9_EEPT_SD_DpOT0_, symObjAddr: 0xF4D20, symBinAddr: 0x1000F650C, symSize: 0x0 }
  - { offset: 0x59255, size: 0x8, addend: 0x0, symName: __ZNSt3__119__allocate_at_leastB8ne190107INS_9allocatorINS_10shared_ptrIN7testing8internal26ParameterizedTestSuiteInfoIN12_GLOBAL__N_127CaesarDec_CustomDictCommandEE8TestInfoEEEEEEENS_19__allocation_resultINS_16allocator_traitsIT_E7pointerEEERSE_m, symObjAddr: 0xFA3C8, symBinAddr: 0x1000FBBB4, symSize: 0x0 }
  - { offset: 0x59299, size: 0x8, addend: 0x0, symName: __ZNSt3__134__uninitialized_allocator_relocateB8ne190107INS_9allocatorINS_10shared_ptrIN7testing8internal26ParameterizedTestSuiteInfoIN12_GLOBAL__N_127CaesarDec_CustomDictCommandEE8TestInfoEEEEESA_EEvRT_PT0_SF_SF_, symObjAddr: 0xFADCC, symBinAddr: 0x1000FC5B8, symSize: 0x0 }
  - { offset: 0x59302, size: 0x8, addend: 0x0, symName: __ZNSt3__14swapB8ne190107IPNS_10shared_ptrIN7testing8internal26ParameterizedTestSuiteInfoIN12_GLOBAL__N_127CaesarDec_CustomDictCommandEE8TestInfoEEEEENS_9enable_ifIXaasr21is_move_constructibleIT_EE5valuesr18is_move_assignableISC_EE5valueEvE4typeERSC_SF_, symObjAddr: 0xFAE7C, symBinAddr: 0x1000FC668, symSize: 0x0 }
  - { offset: 0x59354, size: 0x8, addend: 0x0, symName: __ZNSt3__112__destroy_atB8ne190107INS_10shared_ptrIN7testing8internal26ParameterizedTestSuiteInfoIN12_GLOBAL__N_127CaesarDec_CustomDictCommandEE8TestInfoEEETnNS_9enable_ifIXntsr8is_arrayIT_EE5valueEiE4typeELi0EEEvPSB_, symObjAddr: 0xFB7C8, symBinAddr: 0x1000FCFB4, symSize: 0x0 }
  - { offset: 0x5938C, size: 0x8, addend: 0x0, symName: __ZNSt3__13getB8ne190107ILm0EJNS_12basic_stringIcNS_11char_traitsIcEENS_9allocatorIcEEEENS_6vectorIS6_NS4_IS6_EEEES6_S6_EEERKNS_13tuple_elementIXT_ENS_5tupleIJDpT0_EEEE4typeERKSE_, symObjAddr: 0x100F14, symBinAddr: 0x100102700, symSize: 0x0 }
  - { offset: 0x593DE, size: 0x8, addend: 0x0, symName: __ZNSt3__13getB8ne190107ILm1EJNS_12basic_stringIcNS_11char_traitsIcEENS_9allocatorIcEEEENS_6vectorIS6_NS4_IS6_EEEES6_S6_EEERKNS_13tuple_elementIXT_ENS_5tupleIJDpT0_EEEE4typeERKSE_, symObjAddr: 0x100FD4, symBinAddr: 0x1001027C0, symSize: 0x0 }
  - { offset: 0x59430, size: 0x8, addend: 0x0, symName: __ZNSt3__13getB8ne190107ILm2EJNS_12basic_stringIcNS_11char_traitsIcEENS_9allocatorIcEEEENS_6vectorIS6_NS4_IS6_EEEES6_S6_EEERKNS_13tuple_elementIXT_ENS_5tupleIJDpT0_EEEE4typeERKSE_, symObjAddr: 0x1010A4, symBinAddr: 0x100102890, symSize: 0x0 }
  - { offset: 0x59482, size: 0x8, addend: 0x0, symName: __ZNSt3__110make_tupleB8ne190107IJRA10_KcNS_6vectorINS_12basic_stringIcNS_11char_traitsIcEENS_9allocatorIcEEEENS8_ISA_EEEERKSA_S3_EEENS_5tupleIJDpNS_18__unwrap_ref_decayIT_E4typeEEEEDpOSH_, symObjAddr: 0x1075D0, symBinAddr: 0x100108DBC, symSize: 0x0 }
  - { offset: 0x594F7, size: 0x8, addend: 0x0, symName: __ZNSt3__110make_tupleB8ne190107IJRA6_KcNS_6vectorINS_12basic_stringIcNS_11char_traitsIcEENS_9allocatorIcEEEENS8_ISA_EEEES3_RA17_S1_EEENS_5tupleIJDpNS_18__unwrap_ref_decayIT_E4typeEEEEDpOSH_, symObjAddr: 0x10770C, symBinAddr: 0x100108EF8, symSize: 0x0 }
  - { offset: 0x5956C, size: 0x8, addend: 0x0, symName: __ZNSt3__110make_tupleB8ne190107IJRA3_KcNS_6vectorINS_12basic_stringIcNS_11char_traitsIcEENS_9allocatorIcEEEENS8_ISA_EEEERA9_S1_RA19_S1_EEENS_5tupleIJDpNS_18__unwrap_ref_decayIT_E4typeEEEEDpOSJ_, symObjAddr: 0x107834, symBinAddr: 0x100109020, symSize: 0x0 }
  - { offset: 0x595E1, size: 0x8, addend: 0x0, symName: __ZNSt3__110make_tupleB8ne190107IJRA7_KcNS_6vectorINS_12basic_stringIcNS_11char_traitsIcEENS_9allocatorIcEEEENS8_ISA_EEEERA14_S1_RA19_S1_EEENS_5tupleIJDpNS_18__unwrap_ref_decayIT_E4typeEEEEDpOSJ_, symObjAddr: 0x10795C, symBinAddr: 0x100109148, symSize: 0x0 }
  - { offset: 0x59656, size: 0x8, addend: 0x0, symName: __ZNSt3__110make_tupleB8ne190107IJRA3_KcNS_6vectorINS_12basic_stringIcNS_11char_traitsIcEENS_9allocatorIcEEEENS8_ISA_EEEERA6_S1_RA27_S1_EEENS_5tupleIJDpNS_18__unwrap_ref_decayIT_E4typeEEEEDpOSJ_, symObjAddr: 0x107A84, symBinAddr: 0x100109270, symSize: 0x0 }
  - { offset: 0x596CB, size: 0x8, addend: 0x0, symName: __ZNSt3__110make_tupleB8ne190107IJRA10_KcNS_6vectorINS_12basic_stringIcNS_11char_traitsIcEENS_9allocatorIcEEEENS8_ISA_EEEERA8_S1_RA18_S1_EEENS_5tupleIJDpNS_18__unwrap_ref_decayIT_E4typeEEEEDpOSJ_, symObjAddr: 0x107BAC, symBinAddr: 0x100109398, symSize: 0x0 }
  - { offset: 0x59740, size: 0x8, addend: 0x0, symName: __ZNSt3__110make_tupleB8ne190107IJRA15_KcNS_6vectorINS_12basic_stringIcNS_11char_traitsIcEENS_9allocatorIcEEEENS8_ISA_EEEES3_RA26_S1_EEENS_5tupleIJDpNS_18__unwrap_ref_decayIT_E4typeEEEEDpOSH_, symObjAddr: 0x107CD4, symBinAddr: 0x1001094C0, symSize: 0x0 }
  - { offset: 0x597B5, size: 0x8, addend: 0x0, symName: __ZNSt3__110make_tupleB8ne190107IJRA10_KcNS_6vectorINS_12basic_stringIcNS_11char_traitsIcEENS_9allocatorIcEEEENS8_ISA_EEEERKSA_RA24_S1_EEENS_5tupleIJDpNS_18__unwrap_ref_decayIT_E4typeEEEEDpOSJ_, symObjAddr: 0x107DFC, symBinAddr: 0x1001095E8, symSize: 0x0 }
  - { offset: 0x5982A, size: 0x8, addend: 0x0, symName: __ZNSt3__110make_tupleB8ne190107IJRA401_KcNS_6vectorINS_12basic_stringIcNS_11char_traitsIcEENS_9allocatorIcEEEENS8_ISA_EEEES3_RA15_S1_EEENS_5tupleIJDpNS_18__unwrap_ref_decayIT_E4typeEEEEDpOSH_, symObjAddr: 0x107F38, symBinAddr: 0x100109724, symSize: 0x0 }
  - { offset: 0x5A7C4, size: 0x8, addend: 0x0, symName: __ZNSt3__18distanceB8ne190107INS_11__wrap_iterIPKNS_5tupleIJNS_12basic_stringIcNS_11char_traitsIcEENS_9allocatorIcEEEENS_6vectorIS8_NS6_IS8_EEEES8_S8_EEEEEEENS_15iterator_traitsIT_E15difference_typeESH_SH_, symObjAddr: 0x10F70C, symBinAddr: 0x100110EF8, symSize: 0x0 }
  - { offset: 0x5A807, size: 0x8, addend: 0x0, symName: __ZNSt3__110__distanceB8ne190107INS_11__wrap_iterIPKNS_5tupleIJNS_12basic_stringIcNS_11char_traitsIcEENS_9allocatorIcEEEENS_6vectorIS8_NS6_IS8_EEEES8_S8_EEEEEEENS_15iterator_traitsIT_E15difference_typeESH_SH_NS_26random_access_iterator_tagE, symObjAddr: 0x10FDFC, symBinAddr: 0x1001115E8, symSize: 0x0 }
  - { offset: 0x5A85E, size: 0x8, addend: 0x0, symName: __ZNSt3__1miB8ne190107IPKNS_5tupleIJNS_12basic_stringIcNS_11char_traitsIcEENS_9allocatorIcEEEENS_6vectorIS7_NS5_IS7_EEEES7_S7_EEESD_EEDTmicldtfp_4baseEcldtfp0_4baseEERKNS_11__wrap_iterIT_EERKNSF_IT0_EE, symObjAddr: 0x10FFE4, symBinAddr: 0x1001117D0, symSize: 0x0 }
  - { offset: 0x5A8AA, size: 0x8, addend: 0x0, symName: __ZNSt3__122__make_exception_guardB8ne190107INS_6vectorINS_5tupleIJNS_12basic_stringIcNS_11char_traitsIcEENS_9allocatorIcEEEENS1_IS8_NS6_IS8_EEEES8_S8_EEENS6_ISB_EEE16__destroy_vectorEEENS_28__exception_guard_exceptionsIT_EESG_, symObjAddr: 0x11011C, symBinAddr: 0x100111908, symSize: 0x0 }
  - { offset: 0x5A8DF, size: 0x8, addend: 0x0, symName: __ZNSt3__119__allocate_at_leastB8ne190107INS_9allocatorINS_5tupleIJNS_12basic_stringIcNS_11char_traitsIcEENS1_IcEEEENS_6vectorIS7_NS1_IS7_EEEES7_S7_EEEEEEENS_19__allocation_resultINS_16allocator_traitsIT_E7pointerEEERSF_m, symObjAddr: 0x111164, symBinAddr: 0x100112950, symSize: 0x0 }
  - { offset: 0x5A923, size: 0x8, addend: 0x0, symName: __ZNSt3__131__annotate_contiguous_containerB8ne190107INS_9allocatorINS_5tupleIJNS_12basic_stringIcNS_11char_traitsIcEENS1_IcEEEENS_6vectorIS7_NS1_IS7_EEEES7_S7_EEEEEEEvPKvSE_SE_SE_, symObjAddr: 0x111DFC, symBinAddr: 0x1001135E8, symSize: 0x0 }
  - { offset: 0x5A97F, size: 0x8, addend: 0x0, symName: __ZNSt3__112__to_addressB8ne190107INS_5tupleIJNS_12basic_stringIcNS_11char_traitsIcEENS_9allocatorIcEEEENS_6vectorIS7_NS5_IS7_EEEES7_S7_EEEEEPT_SD_, symObjAddr: 0x111E50, symBinAddr: 0x10011363C, symSize: 0x0 }
  - { offset: 0x5A9B4, size: 0x8, addend: 0x0, symName: __ZNSt3__130__uninitialized_allocator_copyB8ne190107INS_9allocatorINS_5tupleIJNS_12basic_stringIcNS_11char_traitsIcEENS1_IcEEEENS_6vectorIS7_NS1_IS7_EEEES7_S7_EEEEENS_11__wrap_iterIPKSB_EESG_PSB_EET2_RT_T0_T1_SI_, symObjAddr: 0x112130, symBinAddr: 0x10011391C, symSize: 0x0 }
  - { offset: 0x5AA5A, size: 0x8, addend: 0x0, symName: __ZNSt3__114__unwrap_rangeB8ne190107INS_11__wrap_iterIPKNS_5tupleIJNS_12basic_stringIcNS_11char_traitsIcEENS_9allocatorIcEEEENS_6vectorIS8_NS6_IS8_EEEES8_S8_EEEEESF_EEDaT_T0_, symObjAddr: 0x112B48, symBinAddr: 0x100114334, symSize: 0x0 }
  - { offset: 0x5AAA6, size: 0x8, addend: 0x0, symName: __ZNSt3__135__uninitialized_allocator_copy_implB8ne190107INS_9allocatorINS_5tupleIJNS_12basic_stringIcNS_11char_traitsIcEENS1_IcEEEENS_6vectorIS7_NS1_IS7_EEEES7_S7_EEEEEPKSB_SE_PSB_EET2_RT_T0_T1_SG_, symObjAddr: 0x112BBC, symBinAddr: 0x1001143A8, symSize: 0x0 }
  - { offset: 0x5AB52, size: 0x8, addend: 0x0, symName: __ZNSt3__113__unwrap_iterB8ne190107IPNS_5tupleIJNS_12basic_stringIcNS_11char_traitsIcEENS_9allocatorIcEEEENS_6vectorIS7_NS5_IS7_EEEES7_S7_EEENS_18__unwrap_iter_implISC_Lb1EEETnNS_9enable_ifIXsr21is_copy_constructibleIT_EE5valueEiE4typeELi0EEEDTclsrT0_8__unwrapclsr3stdE7declvalISG_EEEESG_, symObjAddr: 0x1130E4, symBinAddr: 0x1001148D0, symSize: 0x0 }
  - { offset: 0x5AB97, size: 0x8, addend: 0x0, symName: __ZNSt3__113__rewrap_iterB8ne190107IPNS_5tupleIJNS_12basic_stringIcNS_11char_traitsIcEENS_9allocatorIcEEEENS_6vectorIS7_NS5_IS7_EEEES7_S7_EEESC_NS_18__unwrap_iter_implISC_Lb1EEEEET_SF_T0_, symObjAddr: 0x113110, symBinAddr: 0x1001148FC, symSize: 0x0 }
  - { offset: 0x5ACEF, size: 0x8, addend: 0x0, symName: __ZNSt3__113__unwrap_iterB8ne190107INS_11__wrap_iterIPKNS_5tupleIJNS_12basic_stringIcNS_11char_traitsIcEENS_9allocatorIcEEEENS_6vectorIS8_NS6_IS8_EEEES8_S8_EEEEENS_18__unwrap_iter_implISF_Lb1EEETnNS_9enable_ifIXsr21is_copy_constructibleIT_EE5valueEiE4typeELi0EEEDTclsrT0_8__unwrapclsr3stdE7declvalISJ_EEEESJ_, symObjAddr: 0x1133EC, symBinAddr: 0x100114BD8, symSize: 0x0 }
  - { offset: 0x5AD88, size: 0x8, addend: 0x0, symName: __ZNSt3__112__to_addressB8ne190107INS_11__wrap_iterIPKNS_5tupleIJNS_12basic_stringIcNS_11char_traitsIcEENS_9allocatorIcEEEENS_6vectorIS8_NS6_IS8_EEEES8_S8_EEEEETnNS_9enable_ifIXsr4_AndINS_8is_classIT_EENS_15_IsFancyPointerISI_EEEE5valueEiE4typeELi0EEEu7__decayIDTclsr19__to_address_helperISI_EE6__callclsr3stdE7declvalIRKSI_EEEEESP_, symObjAddr: 0x113644, symBinAddr: 0x100114E30, symSize: 0x0 }
  - { offset: 0x5AE6F, size: 0x8, addend: 0x0, symName: __ZNSt3__112__to_addressB8ne190107IKNS_5tupleIJNS_12basic_stringIcNS_11char_traitsIcEENS_9allocatorIcEEEENS_6vectorIS7_NS5_IS7_EEEES7_S7_EEEEEPT_SE_, symObjAddr: 0x113890, symBinAddr: 0x10011507C, symSize: 0x0 }
  - { offset: 0x5AEA4, size: 0x8, addend: 0x0, symName: __ZNSt3__122__make_exception_guardB8ne190107INS_29_AllocatorDestroyRangeReverseINS_9allocatorINS_5tupleIJNS_12basic_stringIcNS_11char_traitsIcEENS2_IcEEEENS_6vectorIS8_NS2_IS8_EEEES8_S8_EEEEEPSC_EEEENS_28__exception_guard_exceptionsIT_EESH_, symObjAddr: 0x113A84, symBinAddr: 0x100115270, symSize: 0x0 }
  - { offset: 0x5AEDB, size: 0x8, addend: 0x0, symName: __ZNSt3__114__construct_atB8ne190107INS_5tupleIJNS_12basic_stringIcNS_11char_traitsIcEENS_9allocatorIcEEEENS_6vectorIS7_NS5_IS7_EEEES7_S7_EEEJRKSB_EPSB_EEPT_SG_DpOT0_, symObjAddr: 0x1141C4, symBinAddr: 0x1001159B0, symSize: 0x0 }
  - { offset: 0x5AF55, size: 0x8, addend: 0x0, symName: __ZNSt3__112construct_atB8ne190107INS_5tupleIJNS_12basic_stringIcNS_11char_traitsIcEENS_9allocatorIcEEEENS_6vectorIS7_NS5_IS7_EEEES7_S7_EEEJRKSB_EPSB_EEPT_SG_DpOT0_, symObjAddr: 0x114238, symBinAddr: 0x100115A24, symSize: 0x0 }
  - { offset: 0x5AFC7, size: 0x8, addend: 0x0, symName: __ZNSt3__119__allocator_destroyB8ne190107INS_9allocatorINS_5tupleIJNS_12basic_stringIcNS_11char_traitsIcEENS1_IcEEEENS_6vectorIS7_NS1_IS7_EEEES7_S7_EEEEENS_16reverse_iteratorIPSB_EESF_EEvRT_T0_T1_, symObjAddr: 0x1147B4, symBinAddr: 0x100115FA0, symSize: 0x0 }
  - { offset: 0x5B033, size: 0x8, addend: 0x0, symName: __ZNSt3__1neB8ne190107IPNS_5tupleIJNS_12basic_stringIcNS_11char_traitsIcEENS_9allocatorIcEEEENS_6vectorIS7_NS5_IS7_EEEES7_S7_EEESC_EEbRKNS_16reverse_iteratorIT_EERKNSD_IT0_EEQrqXnecldtfp_4baseEcldtfp0_4baseERNS_14convertible_toIbEEE, symObjAddr: 0x114A6C, symBinAddr: 0x100116258, symSize: 0x0 }
  - { offset: 0x5B07F, size: 0x8, addend: 0x0, symName: __ZNSt3__112__to_addressB8ne190107INS_16reverse_iteratorIPNS_5tupleIJNS_12basic_stringIcNS_11char_traitsIcEENS_9allocatorIcEEEENS_6vectorIS8_NS6_IS8_EEEES8_S8_EEEEETnNS_9enable_ifIXsr4_AndINS_8is_classIT_EENS_15_IsFancyPointerISH_EEEE5valueEiE4typeELi0EEEu7__decayIDTclsr19__to_address_helperISH_EE6__callclsr3stdE7declvalIRKSH_EEEEESO_, symObjAddr: 0x114B34, symBinAddr: 0x100116320, symSize: 0x0 }
  - { offset: 0x5B0BC, size: 0x8, addend: 0x0, symName: __ZNSt3__112__destroy_atB8ne190107INS_5tupleIJNS_12basic_stringIcNS_11char_traitsIcEENS_9allocatorIcEEEENS_6vectorIS7_NS5_IS7_EEEES7_S7_EEETnNS_9enable_ifIXntsr8is_arrayIT_EE5valueEiE4typeELi0EEEvPSD_, symObjAddr: 0x114DB8, symBinAddr: 0x1001165A4, symSize: 0x0 }
  - { offset: 0x5B11E, size: 0x8, addend: 0x0, symName: __ZNSt3__14prevB8ne190107IPNS_5tupleIJNS_12basic_stringIcNS_11char_traitsIcEENS_9allocatorIcEEEENS_6vectorIS7_NS5_IS7_EEEES7_S7_EEETnNS_9enable_ifIXsr29__has_input_iterator_categoryIT_EE5valueEiE4typeELi0EEESE_SE_NS_15iterator_traitsISE_E15difference_typeE, symObjAddr: 0x114F38, symBinAddr: 0x100116724, symSize: 0x0 }
  - { offset: 0x5B16E, size: 0x8, addend: 0x0, symName: __ZNSt3__19__advanceB8ne190107IPNS_5tupleIJNS_12basic_stringIcNS_11char_traitsIcEENS_9allocatorIcEEEENS_6vectorIS7_NS5_IS7_EEEES7_S7_EEEEEvRT_NS_15iterator_traitsISD_E15difference_typeENS_26random_access_iterator_tagE, symObjAddr: 0x1151A4, symBinAddr: 0x100116990, symSize: 0x0 }
  - { offset: 0x5B20C, size: 0x8, addend: 0x0, symName: __ZNSt3__1eqB8ne190107IPKNS_5tupleIJNS_12basic_stringIcNS_11char_traitsIcEENS_9allocatorIcEEEENS_6vectorIS7_NS5_IS7_EEEES7_S7_EEEEEbRKNS_11__wrap_iterIT_EESI_, symObjAddr: 0x118C18, symBinAddr: 0x10011A404, symSize: 0x0 }
  - { offset: 0x5BCA5, size: 0x8, addend: 0x0, symName: __ZNSt3__13getB8ne190107ILm0EJPKcNS_6vectorINS_12basic_stringIcNS_11char_traitsIcEENS_9allocatorIcEEEENS7_IS9_EEEES9_S2_EEERKNS_13tuple_elementIXT_ENS_5tupleIJDpT0_EEEE4typeERKSG_, symObjAddr: 0x11D2EC, symBinAddr: 0x10011EAD8, symSize: 0x0 }
  - { offset: 0x5BCF6, size: 0x8, addend: 0x0, symName: __ZNSt3__13getB8ne190107ILm1EJPKcNS_6vectorINS_12basic_stringIcNS_11char_traitsIcEENS_9allocatorIcEEEENS7_IS9_EEEES9_S2_EEERKNS_13tuple_elementIXT_ENS_5tupleIJDpT0_EEEE4typeERKSG_, symObjAddr: 0x11D3AC, symBinAddr: 0x10011EB98, symSize: 0x0 }
  - { offset: 0x5BD47, size: 0x8, addend: 0x0, symName: __ZNSt3__13getB8ne190107ILm2EJPKcNS_6vectorINS_12basic_stringIcNS_11char_traitsIcEENS_9allocatorIcEEEENS7_IS9_EEEES9_S2_EEERKNS_13tuple_elementIXT_ENS_5tupleIJDpT0_EEEE4typeERKSG_, symObjAddr: 0x11D47C, symBinAddr: 0x10011EC68, symSize: 0x0 }
  - { offset: 0x5BD98, size: 0x8, addend: 0x0, symName: __ZNSt3__13getB8ne190107ILm3EJPKcNS_6vectorINS_12basic_stringIcNS_11char_traitsIcEENS_9allocatorIcEEEENS7_IS9_EEEES9_S2_EEERKNS_13tuple_elementIXT_ENS_5tupleIJDpT0_EEEE4typeERKSG_, symObjAddr: 0x11D54C, symBinAddr: 0x10011ED38, symSize: 0x0 }
  - { offset: 0x5BDE9, size: 0x8, addend: 0x0, symName: __ZNSt3__13getB8ne190107ILm0EJPKcNS_6vectorINS_12basic_stringIcNS_11char_traitsIcEENS_9allocatorIcEEEENS7_IS9_EEEES2_S2_EEERKNS_13tuple_elementIXT_ENS_5tupleIJDpT0_EEEE4typeERKSG_, symObjAddr: 0x11DC80, symBinAddr: 0x10011F46C, symSize: 0x0 }
  - { offset: 0x5BE3A, size: 0x8, addend: 0x0, symName: __ZNSt3__13getB8ne190107ILm1EJPKcNS_6vectorINS_12basic_stringIcNS_11char_traitsIcEENS_9allocatorIcEEEENS7_IS9_EEEES2_S2_EEERKNS_13tuple_elementIXT_ENS_5tupleIJDpT0_EEEE4typeERKSG_, symObjAddr: 0x11DD40, symBinAddr: 0x10011F52C, symSize: 0x0 }
  - { offset: 0x5BE8B, size: 0x8, addend: 0x0, symName: __ZNSt3__13getB8ne190107ILm2EJPKcNS_6vectorINS_12basic_stringIcNS_11char_traitsIcEENS_9allocatorIcEEEENS7_IS9_EEEES2_S2_EEERKNS_13tuple_elementIXT_ENS_5tupleIJDpT0_EEEE4typeERKSG_, symObjAddr: 0x11DE10, symBinAddr: 0x10011F5FC, symSize: 0x0 }
  - { offset: 0x5BEDC, size: 0x8, addend: 0x0, symName: __ZNSt3__13getB8ne190107ILm3EJPKcNS_6vectorINS_12basic_stringIcNS_11char_traitsIcEENS_9allocatorIcEEEENS7_IS9_EEEES2_S2_EEERKNS_13tuple_elementIXT_ENS_5tupleIJDpT0_EEEE4typeERKSG_, symObjAddr: 0x11DFC8, symBinAddr: 0x10011F7B4, symSize: 0x0 }
  - { offset: 0x5BF2D, size: 0x8, addend: 0x0, symName: __ZNSt3__130__uninitialized_allocator_copyB8ne190107INS_9allocatorINS_5tupleIJNS_12basic_stringIcNS_11char_traitsIcEENS1_IcEEEENS_6vectorIS7_NS1_IS7_EEEES7_S7_EEEEEPKSB_SE_PSB_EET2_RT_T0_T1_SG_, symObjAddr: 0x11EC7C, symBinAddr: 0x100120468, symSize: 0x0 }
  - { offset: 0x5BFD3, size: 0x8, addend: 0x0, symName: __ZNSt3__114__unwrap_rangeB8ne190107IPKNS_5tupleIJNS_12basic_stringIcNS_11char_traitsIcEENS_9allocatorIcEEEENS_6vectorIS7_NS5_IS7_EEEES7_S7_EEESD_EEDaT_T0_, symObjAddr: 0x11EEE8, symBinAddr: 0x1001206D4, symSize: 0x0 }
  - { offset: 0x5C055, size: 0x8, addend: 0x0, symName: __ZNSt3__113__unwrap_iterB8ne190107IPKNS_5tupleIJNS_12basic_stringIcNS_11char_traitsIcEENS_9allocatorIcEEEENS_6vectorIS7_NS5_IS7_EEEES7_S7_EEENS_18__unwrap_iter_implISD_Lb1EEETnNS_9enable_ifIXsr21is_copy_constructibleIT_EE5valueEiE4typeELi0EEEDTclsrT0_8__unwrapclsr3stdE7declvalISH_EEEESH_, symObjAddr: 0x11F17C, symBinAddr: 0x100120968, symSize: 0x0 }
  - { offset: 0x5C0EE, size: 0x8, addend: 0x0, symName: '__ZNSt3__110make_tupleB8ne190107IJN7testing8internal10ValueArrayIJNS_5tupleIJPKcNS_6vectorINS_12basic_stringIcNS_11char_traitsIcEENS_9allocatorIcEEEENSB_ISD_EEEESD_S6_EEENS4_IJS6_SF_S6_S6_EEESH_SH_SH_SH_SH_SG_SH_EEEZN12_GLOBAL__N_151gtest_CaesarDec_CustomDictCommand_EvalGenerateName_ERKNS1_13TestParamInfoINS4_IJSD_SF_SD_SD_EEEEEE3$_0EEENS4_IJDpNS_18__unwrap_ref_decayIT_E4typeEEEEDpOSR_', symObjAddr: 0x11F8FC, symBinAddr: 0x1001210E8, symSize: 0x0 }
  - { offset: 0x5C56B, size: 0x8, addend: 0x0, symName: __ZNSt3__13getB8ne190107ILm3EJNS_12basic_stringIcNS_11char_traitsIcEENS_9allocatorIcEEEENS_6vectorIS6_NS4_IS6_EEEES6_S6_EEERNS_13tuple_elementIXT_ENS_5tupleIJDpT0_EEEE4typeERSE_, symObjAddr: 0x121478, symBinAddr: 0x100122C64, symSize: 0x0 }
  - { offset: 0x5C5BE, size: 0x8, addend: 0x0, symName: __ZNSt3__112__to_addressB8ne190107INS_10shared_ptrIN7testing8internal26ParameterizedTestSuiteInfoIN12_GLOBAL__N_129CaesarDec_FullDictMainCommandEE8TestInfoEEEEEPT_SB_, symObjAddr: 0x122B94, symBinAddr: 0x100124380, symSize: 0x0 }
  - { offset: 0x5C5F4, size: 0x8, addend: 0x0, symName: __ZNSt3__131__annotate_contiguous_containerB8ne190107INS_9allocatorINS_10shared_ptrIN7testing8internal26ParameterizedTestSuiteInfoIN12_GLOBAL__N_129CaesarDec_FullDictMainCommandEE8TestInfoEEEEEEEvPKvSD_SD_SD_, symObjAddr: 0x1234D4, symBinAddr: 0x100124CC0, symSize: 0x0 }
  - { offset: 0x5C64F, size: 0x8, addend: 0x0, symName: __ZNSt3__114__construct_atB8ne190107INS_10shared_ptrIN7testing8internal26ParameterizedTestSuiteInfoIN12_GLOBAL__N_129CaesarDec_FullDictMainCommandEE8TestInfoEEEJPS8_EPS9_EEPT_SD_DpOT0_, symObjAddr: 0x12389C, symBinAddr: 0x100125088, symSize: 0x0 }
  - { offset: 0x5C6C9, size: 0x8, addend: 0x0, symName: __ZNSt3__112construct_atB8ne190107INS_10shared_ptrIN7testing8internal26ParameterizedTestSuiteInfoIN12_GLOBAL__N_129CaesarDec_FullDictMainCommandEE8TestInfoEEEJPS8_EPS9_EEPT_SD_DpOT0_, symObjAddr: 0x123910, symBinAddr: 0x1001250FC, symSize: 0x0 }
  - { offset: 0x5D1B9, size: 0x8, addend: 0x0, symName: __ZNSt3__119__allocate_at_leastB8ne190107INS_9allocatorINS_10shared_ptrIN7testing8internal26ParameterizedTestSuiteInfoIN12_GLOBAL__N_129CaesarDec_FullDictMainCommandEE8TestInfoEEEEEEENS_19__allocation_resultINS_16allocator_traitsIT_E7pointerEEERSE_m, symObjAddr: 0x128FB8, symBinAddr: 0x10012A7A4, symSize: 0x0 }
  - { offset: 0x5D1FD, size: 0x8, addend: 0x0, symName: __ZNSt3__134__uninitialized_allocator_relocateB8ne190107INS_9allocatorINS_10shared_ptrIN7testing8internal26ParameterizedTestSuiteInfoIN12_GLOBAL__N_129CaesarDec_FullDictMainCommandEE8TestInfoEEEEESA_EEvRT_PT0_SF_SF_, symObjAddr: 0x1299BC, symBinAddr: 0x10012B1A8, symSize: 0x0 }
  - { offset: 0x5D266, size: 0x8, addend: 0x0, symName: __ZNSt3__14swapB8ne190107IPNS_10shared_ptrIN7testing8internal26ParameterizedTestSuiteInfoIN12_GLOBAL__N_129CaesarDec_FullDictMainCommandEE8TestInfoEEEEENS_9enable_ifIXaasr21is_move_constructibleIT_EE5valuesr18is_move_assignableISC_EE5valueEvE4typeERSC_SF_, symObjAddr: 0x129A6C, symBinAddr: 0x10012B258, symSize: 0x0 }
  - { offset: 0x5D2B8, size: 0x8, addend: 0x0, symName: __ZNSt3__112__destroy_atB8ne190107INS_10shared_ptrIN7testing8internal26ParameterizedTestSuiteInfoIN12_GLOBAL__N_129CaesarDec_FullDictMainCommandEE8TestInfoEEETnNS_9enable_ifIXntsr8is_arrayIT_EE5valueEiE4typeELi0EEEvPSB_, symObjAddr: 0x12A3B8, symBinAddr: 0x10012BBA4, symSize: 0x0 }
  - { offset: 0x5D2F0, size: 0x8, addend: 0x0, symName: __ZNSt3__13getB8ne190107ILm0EJNS_12basic_stringIcNS_11char_traitsIcEENS_9allocatorIcEEEES6_S6_EEERKNS_13tuple_elementIXT_ENS_5tupleIJDpT0_EEEE4typeERKSB_, symObjAddr: 0x12E3F4, symBinAddr: 0x10012FBE0, symSize: 0x0 }
  - { offset: 0x5D33D, size: 0x8, addend: 0x0, symName: __ZNSt3__13getB8ne190107ILm1EJNS_12basic_stringIcNS_11char_traitsIcEENS_9allocatorIcEEEES6_S6_EEERKNS_13tuple_elementIXT_ENS_5tupleIJDpT0_EEEE4typeERKSB_, symObjAddr: 0x12E4B4, symBinAddr: 0x10012FCA0, symSize: 0x0 }
  - { offset: 0x5D38A, size: 0x8, addend: 0x0, symName: __ZNSt3__110make_tupleB8ne190107IJRA6_KcS3_RA17_S1_EEENS_5tupleIJDpNS_18__unwrap_ref_decayIT_E4typeEEEEDpOS8_, symObjAddr: 0x12EC14, symBinAddr: 0x100130400, symSize: 0x0 }
  - { offset: 0x5D3EE, size: 0x8, addend: 0x0, symName: __ZNSt3__110make_tupleB8ne190107IJRA7_KcRA14_S1_RA18_S1_EEENS_5tupleIJDpNS_18__unwrap_ref_decayIT_E4typeEEEEDpOSA_, symObjAddr: 0x12EE8C, symBinAddr: 0x100130678, symSize: 0x0 }
  - { offset: 0x5D452, size: 0x8, addend: 0x0, symName: __ZNSt3__110make_tupleB8ne190107IJRA7_KcRA14_S1_RA23_S1_EEENS_5tupleIJDpNS_18__unwrap_ref_decayIT_E4typeEEEEDpOSA_, symObjAddr: 0x12F104, symBinAddr: 0x1001308F0, symSize: 0x0 }
  - { offset: 0x5D4B6, size: 0x8, addend: 0x0, symName: __ZNSt3__110make_tupleB8ne190107IJRA36_KcS3_RA13_S1_EEENS_5tupleIJDpNS_18__unwrap_ref_decayIT_E4typeEEEEDpOS8_, symObjAddr: 0x12F37C, symBinAddr: 0x100130B68, symSize: 0x0 }
  - { offset: 0x5D51A, size: 0x8, addend: 0x0, symName: __ZNSt3__110make_tupleB8ne190107IJRA8_KcRKNS_12basic_stringIcNS_11char_traitsIcEENS_9allocatorIcEEEES3_EEENS_5tupleIJDpNS_18__unwrap_ref_decayIT_E4typeEEEEDpOSE_, symObjAddr: 0x12F5F4, symBinAddr: 0x100130DE0, symSize: 0x0 }
  - { offset: 0x5DA1E, size: 0x8, addend: 0x0, symName: __ZNSt3__18distanceB8ne190107INS_11__wrap_iterIPKNS_5tupleIJNS_12basic_stringIcNS_11char_traitsIcEENS_9allocatorIcEEEES8_S8_EEEEEEENS_15iterator_traitsIT_E15difference_typeESE_SE_, symObjAddr: 0x132E8C, symBinAddr: 0x100134678, symSize: 0x0 }
  - { offset: 0x5DA61, size: 0x8, addend: 0x0, symName: __ZNSt3__110__distanceB8ne190107INS_11__wrap_iterIPKNS_5tupleIJNS_12basic_stringIcNS_11char_traitsIcEENS_9allocatorIcEEEES8_S8_EEEEEEENS_15iterator_traitsIT_E15difference_typeESE_SE_NS_26random_access_iterator_tagE, symObjAddr: 0x13357C, symBinAddr: 0x100134D68, symSize: 0x0 }
  - { offset: 0x5DAB8, size: 0x8, addend: 0x0, symName: __ZNSt3__1miB8ne190107IPKNS_5tupleIJNS_12basic_stringIcNS_11char_traitsIcEENS_9allocatorIcEEEES7_S7_EEESA_EEDTmicldtfp_4baseEcldtfp0_4baseEERKNS_11__wrap_iterIT_EERKNSC_IT0_EE, symObjAddr: 0x133764, symBinAddr: 0x100134F50, symSize: 0x0 }
  - { offset: 0x5DB04, size: 0x8, addend: 0x0, symName: __ZNSt3__122__make_exception_guardB8ne190107INS_6vectorINS_5tupleIJNS_12basic_stringIcNS_11char_traitsIcEENS_9allocatorIcEEEES8_S8_EEENS6_IS9_EEE16__destroy_vectorEEENS_28__exception_guard_exceptionsIT_EESE_, symObjAddr: 0x13389C, symBinAddr: 0x100135088, symSize: 0x0 }
  - { offset: 0x5DB39, size: 0x8, addend: 0x0, symName: __ZNSt3__119__allocate_at_leastB8ne190107INS_9allocatorINS_5tupleIJNS_12basic_stringIcNS_11char_traitsIcEENS1_IcEEEES7_S7_EEEEEEENS_19__allocation_resultINS_16allocator_traitsIT_E7pointerEEERSC_m, symObjAddr: 0x1348E4, symBinAddr: 0x1001360D0, symSize: 0x0 }
  - { offset: 0x5DB7D, size: 0x8, addend: 0x0, symName: __ZNSt3__131__annotate_contiguous_containerB8ne190107INS_9allocatorINS_5tupleIJNS_12basic_stringIcNS_11char_traitsIcEENS1_IcEEEES7_S7_EEEEEEEvPKvSB_SB_SB_, symObjAddr: 0x13557C, symBinAddr: 0x100136D68, symSize: 0x0 }
  - { offset: 0x5DBD9, size: 0x8, addend: 0x0, symName: __ZNSt3__112__to_addressB8ne190107INS_5tupleIJNS_12basic_stringIcNS_11char_traitsIcEENS_9allocatorIcEEEES7_S7_EEEEEPT_SA_, symObjAddr: 0x1355D0, symBinAddr: 0x100136DBC, symSize: 0x0 }
  - { offset: 0x5DC0E, size: 0x8, addend: 0x0, symName: __ZNSt3__130__uninitialized_allocator_copyB8ne190107INS_9allocatorINS_5tupleIJNS_12basic_stringIcNS_11char_traitsIcEENS1_IcEEEES7_S7_EEEEENS_11__wrap_iterIPKS8_EESD_PS8_EET2_RT_T0_T1_SF_, symObjAddr: 0x1358B0, symBinAddr: 0x10013709C, symSize: 0x0 }
  - { offset: 0x5DCB4, size: 0x8, addend: 0x0, symName: __ZNSt3__114__unwrap_rangeB8ne190107INS_11__wrap_iterIPKNS_5tupleIJNS_12basic_stringIcNS_11char_traitsIcEENS_9allocatorIcEEEES8_S8_EEEEESC_EEDaT_T0_, symObjAddr: 0x1362C8, symBinAddr: 0x100137AB4, symSize: 0x0 }
  - { offset: 0x5DD00, size: 0x8, addend: 0x0, symName: __ZNSt3__135__uninitialized_allocator_copy_implB8ne190107INS_9allocatorINS_5tupleIJNS_12basic_stringIcNS_11char_traitsIcEENS1_IcEEEES7_S7_EEEEEPKS8_SB_PS8_EET2_RT_T0_T1_SD_, symObjAddr: 0x13633C, symBinAddr: 0x100137B28, symSize: 0x0 }
  - { offset: 0x5DDAC, size: 0x8, addend: 0x0, symName: __ZNSt3__113__unwrap_iterB8ne190107IPNS_5tupleIJNS_12basic_stringIcNS_11char_traitsIcEENS_9allocatorIcEEEES7_S7_EEENS_18__unwrap_iter_implIS9_Lb1EEETnNS_9enable_ifIXsr21is_copy_constructibleIT_EE5valueEiE4typeELi0EEEDTclsrT0_8__unwrapclsr3stdE7declvalISD_EEEESD_, symObjAddr: 0x136864, symBinAddr: 0x100138050, symSize: 0x0 }
  - { offset: 0x5DDF1, size: 0x8, addend: 0x0, symName: __ZNSt3__113__rewrap_iterB8ne190107IPNS_5tupleIJNS_12basic_stringIcNS_11char_traitsIcEENS_9allocatorIcEEEES7_S7_EEES9_NS_18__unwrap_iter_implIS9_Lb1EEEEET_SC_T0_, symObjAddr: 0x136890, symBinAddr: 0x10013807C, symSize: 0x0 }
  - { offset: 0x5DF49, size: 0x8, addend: 0x0, symName: __ZNSt3__113__unwrap_iterB8ne190107INS_11__wrap_iterIPKNS_5tupleIJNS_12basic_stringIcNS_11char_traitsIcEENS_9allocatorIcEEEES8_S8_EEEEENS_18__unwrap_iter_implISC_Lb1EEETnNS_9enable_ifIXsr21is_copy_constructibleIT_EE5valueEiE4typeELi0EEEDTclsrT0_8__unwrapclsr3stdE7declvalISG_EEEESG_, symObjAddr: 0x136B6C, symBinAddr: 0x100138358, symSize: 0x0 }
  - { offset: 0x5DFE2, size: 0x8, addend: 0x0, symName: __ZNSt3__112__to_addressB8ne190107INS_11__wrap_iterIPKNS_5tupleIJNS_12basic_stringIcNS_11char_traitsIcEENS_9allocatorIcEEEES8_S8_EEEEETnNS_9enable_ifIXsr4_AndINS_8is_classIT_EENS_15_IsFancyPointerISF_EEEE5valueEiE4typeELi0EEEu7__decayIDTclsr19__to_address_helperISF_EE6__callclsr3stdE7declvalIRKSF_EEEEESM_, symObjAddr: 0x136DC4, symBinAddr: 0x1001385B0, symSize: 0x0 }
  - { offset: 0x5E0C9, size: 0x8, addend: 0x0, symName: __ZNSt3__112__to_addressB8ne190107IKNS_5tupleIJNS_12basic_stringIcNS_11char_traitsIcEENS_9allocatorIcEEEES7_S7_EEEEEPT_SB_, symObjAddr: 0x137010, symBinAddr: 0x1001387FC, symSize: 0x0 }
  - { offset: 0x5E0FE, size: 0x8, addend: 0x0, symName: __ZNSt3__122__make_exception_guardB8ne190107INS_29_AllocatorDestroyRangeReverseINS_9allocatorINS_5tupleIJNS_12basic_stringIcNS_11char_traitsIcEENS2_IcEEEES8_S8_EEEEEPS9_EEEENS_28__exception_guard_exceptionsIT_EESE_, symObjAddr: 0x137204, symBinAddr: 0x1001389F0, symSize: 0x0 }
  - { offset: 0x5E135, size: 0x8, addend: 0x0, symName: __ZNSt3__114__construct_atB8ne190107INS_5tupleIJNS_12basic_stringIcNS_11char_traitsIcEENS_9allocatorIcEEEES7_S7_EEEJRKS8_EPS8_EEPT_SD_DpOT0_, symObjAddr: 0x137944, symBinAddr: 0x100139130, symSize: 0x0 }
  - { offset: 0x5E1AF, size: 0x8, addend: 0x0, symName: __ZNSt3__112construct_atB8ne190107INS_5tupleIJNS_12basic_stringIcNS_11char_traitsIcEENS_9allocatorIcEEEES7_S7_EEEJRKS8_EPS8_EEPT_SD_DpOT0_, symObjAddr: 0x1379B8, symBinAddr: 0x1001391A4, symSize: 0x0 }
  - { offset: 0x5E221, size: 0x8, addend: 0x0, symName: __ZNSt3__119__allocator_destroyB8ne190107INS_9allocatorINS_5tupleIJNS_12basic_stringIcNS_11char_traitsIcEENS1_IcEEEES7_S7_EEEEENS_16reverse_iteratorIPS8_EESC_EEvRT_T0_T1_, symObjAddr: 0x137F34, symBinAddr: 0x100139720, symSize: 0x0 }
  - { offset: 0x5E28D, size: 0x8, addend: 0x0, symName: __ZNSt3__1neB8ne190107IPNS_5tupleIJNS_12basic_stringIcNS_11char_traitsIcEENS_9allocatorIcEEEES7_S7_EEES9_EEbRKNS_16reverse_iteratorIT_EERKNSA_IT0_EEQrqXnecldtfp_4baseEcldtfp0_4baseERNS_14convertible_toIbEEE, symObjAddr: 0x1381EC, symBinAddr: 0x1001399D8, symSize: 0x0 }
  - { offset: 0x5E2D9, size: 0x8, addend: 0x0, symName: __ZNSt3__112__to_addressB8ne190107INS_16reverse_iteratorIPNS_5tupleIJNS_12basic_stringIcNS_11char_traitsIcEENS_9allocatorIcEEEES8_S8_EEEEETnNS_9enable_ifIXsr4_AndINS_8is_classIT_EENS_15_IsFancyPointerISE_EEEE5valueEiE4typeELi0EEEu7__decayIDTclsr19__to_address_helperISE_EE6__callclsr3stdE7declvalIRKSE_EEEEESL_, symObjAddr: 0x1382B4, symBinAddr: 0x100139AA0, symSize: 0x0 }
  - { offset: 0x5E316, size: 0x8, addend: 0x0, symName: __ZNSt3__112__destroy_atB8ne190107INS_5tupleIJNS_12basic_stringIcNS_11char_traitsIcEENS_9allocatorIcEEEES7_S7_EEETnNS_9enable_ifIXntsr8is_arrayIT_EE5valueEiE4typeELi0EEEvPSA_, symObjAddr: 0x138538, symBinAddr: 0x100139D24, symSize: 0x0 }
  - { offset: 0x5E378, size: 0x8, addend: 0x0, symName: __ZNSt3__14prevB8ne190107IPNS_5tupleIJNS_12basic_stringIcNS_11char_traitsIcEENS_9allocatorIcEEEES7_S7_EEETnNS_9enable_ifIXsr29__has_input_iterator_categoryIT_EE5valueEiE4typeELi0EEESB_SB_NS_15iterator_traitsISB_E15difference_typeE, symObjAddr: 0x1386B8, symBinAddr: 0x100139EA4, symSize: 0x0 }
  - { offset: 0x5E3C8, size: 0x8, addend: 0x0, symName: __ZNSt3__19__advanceB8ne190107IPNS_5tupleIJNS_12basic_stringIcNS_11char_traitsIcEENS_9allocatorIcEEEES7_S7_EEEEEvRT_NS_15iterator_traitsISA_E15difference_typeENS_26random_access_iterator_tagE, symObjAddr: 0x138924, symBinAddr: 0x10013A110, symSize: 0x0 }
  - { offset: 0x5E466, size: 0x8, addend: 0x0, symName: __ZNSt3__1eqB8ne190107IPKNS_5tupleIJNS_12basic_stringIcNS_11char_traitsIcEENS_9allocatorIcEEEES7_S7_EEEEEbRKNS_11__wrap_iterIT_EESF_, symObjAddr: 0x13C398, symBinAddr: 0x10013DB84, symSize: 0x0 }
  - { offset: 0x5EEFF, size: 0x8, addend: 0x0, symName: __ZNSt3__13getB8ne190107ILm0EJPKcS2_S2_EEERKNS_13tuple_elementIXT_ENS_5tupleIJDpT0_EEEE4typeERKS7_, symObjAddr: 0x140678, symBinAddr: 0x100141E64, symSize: 0x0 }
  - { offset: 0x5EF4B, size: 0x8, addend: 0x0, symName: __ZNSt3__13getB8ne190107ILm1EJPKcS2_S2_EEERKNS_13tuple_elementIXT_ENS_5tupleIJDpT0_EEEE4typeERKS7_, symObjAddr: 0x140738, symBinAddr: 0x100141F24, symSize: 0x0 }
  - { offset: 0x5EF97, size: 0x8, addend: 0x0, symName: __ZNSt3__13getB8ne190107ILm2EJPKcS2_S2_EEERKNS_13tuple_elementIXT_ENS_5tupleIJDpT0_EEEE4typeERKS7_, symObjAddr: 0x140808, symBinAddr: 0x100141FF4, symSize: 0x0 }
  - { offset: 0x5EFE3, size: 0x8, addend: 0x0, symName: __ZNSt3__13getB8ne190107ILm0EJPKcNS_12basic_stringIcNS_11char_traitsIcEENS_9allocatorIcEEEES2_EEERKNS_13tuple_elementIXT_ENS_5tupleIJDpT0_EEEE4typeERKSD_, symObjAddr: 0x140CD4, symBinAddr: 0x1001424C0, symSize: 0x0 }
  - { offset: 0x5F02F, size: 0x8, addend: 0x0, symName: __ZNSt3__13getB8ne190107ILm1EJPKcNS_12basic_stringIcNS_11char_traitsIcEENS_9allocatorIcEEEES2_EEERKNS_13tuple_elementIXT_ENS_5tupleIJDpT0_EEEE4typeERKSD_, symObjAddr: 0x140D94, symBinAddr: 0x100142580, symSize: 0x0 }
  - { offset: 0x5F07B, size: 0x8, addend: 0x0, symName: __ZNSt3__13getB8ne190107ILm2EJPKcNS_12basic_stringIcNS_11char_traitsIcEENS_9allocatorIcEEEES2_EEERKNS_13tuple_elementIXT_ENS_5tupleIJDpT0_EEEE4typeERKSD_, symObjAddr: 0x140E64, symBinAddr: 0x100142650, symSize: 0x0 }
  - { offset: 0x5F0C7, size: 0x8, addend: 0x0, symName: __ZNSt3__130__uninitialized_allocator_copyB8ne190107INS_9allocatorINS_5tupleIJNS_12basic_stringIcNS_11char_traitsIcEENS1_IcEEEES7_S7_EEEEEPKS8_SB_PS8_EET2_RT_T0_T1_SD_, symObjAddr: 0x141A8C, symBinAddr: 0x100143278, symSize: 0x0 }
  - { offset: 0x5F16D, size: 0x8, addend: 0x0, symName: __ZNSt3__114__unwrap_rangeB8ne190107IPKNS_5tupleIJNS_12basic_stringIcNS_11char_traitsIcEENS_9allocatorIcEEEES7_S7_EEESA_EEDaT_T0_, symObjAddr: 0x141CF8, symBinAddr: 0x1001434E4, symSize: 0x0 }
  - { offset: 0x5F1EF, size: 0x8, addend: 0x0, symName: __ZNSt3__113__unwrap_iterB8ne190107IPKNS_5tupleIJNS_12basic_stringIcNS_11char_traitsIcEENS_9allocatorIcEEEES7_S7_EEENS_18__unwrap_iter_implISA_Lb1EEETnNS_9enable_ifIXsr21is_copy_constructibleIT_EE5valueEiE4typeELi0EEEDTclsrT0_8__unwrapclsr3stdE7declvalISE_EEEESE_, symObjAddr: 0x141F8C, symBinAddr: 0x100143778, symSize: 0x0 }
  - { offset: 0x5F288, size: 0x8, addend: 0x0, symName: '__ZNSt3__110make_tupleB8ne190107IJN7testing8internal10ValueArrayIJNS_5tupleIJPKcS6_S6_EEES7_S7_S7_NS4_IJS6_NS_12basic_stringIcNS_11char_traitsIcEENS_9allocatorIcEEEES6_EEEEEEZN12_GLOBAL__N_153gtest_CaesarDec_FullDictMainCommand_EvalGenerateName_ERKNS1_13TestParamInfoINS4_IJSD_SD_SD_EEEEEE3$_0EEENS4_IJDpNS_18__unwrap_ref_decayIT_E4typeEEEEDpOSO_', symObjAddr: 0x142574, symBinAddr: 0x100143D60, symSize: 0x0 }
  - { offset: 0x5F702, size: 0x8, addend: 0x0, symName: __ZNSt3__13getB8ne190107ILm2EJNS_12basic_stringIcNS_11char_traitsIcEENS_9allocatorIcEEEES6_S6_EEERNS_13tuple_elementIXT_ENS_5tupleIJDpT0_EEEE4typeERSB_, symObjAddr: 0x143594, symBinAddr: 0x100144D80, symSize: 0x0 }
  - { offset: 0x5F74F, size: 0x8, addend: 0x0, symName: __ZNSt3__1eqB8ne190107ERKNS_19__hash_map_iteratorINS_15__hash_iteratorIPNS_11__hash_nodeINS_17__hash_value_typeINS_12basic_stringIcNS_11char_traitsIcEENS_9allocatorIcEEEEmEEPvEEEEEESH_, symObjAddr: 0x1439D4, symBinAddr: 0x1001451C0, symSize: 0x0 }
  - { offset: 0x5F78C, size: 0x8, addend: 0x0, symName: __ZNSt3__116__constrain_hashB8ne190107Emm, symObjAddr: 0x1454FC, symBinAddr: 0x100146CE8, symSize: 0x0 }
  - { offset: 0x5F7C6, size: 0x8, addend: 0x0, symName: __ZNSt3__116__do_string_hashB8ne190107IPKcEEmT_S3_, symObjAddr: 0x1461AC, symBinAddr: 0x100147998, symSize: 0x0 }
  - { offset: 0x5F80E, size: 0x8, addend: 0x0, symName: __ZNSt3__110__loadwordB8ne190107ImEET_PKv, symObjAddr: 0x148D94, symBinAddr: 0x10014A580, symSize: 0x0 }
  - { offset: 0x5F851, size: 0x8, addend: 0x0, symName: __ZNSt3__14swapB8ne190107ImEENS_9enable_ifIXaasr21is_move_constructibleIT_EE5valuesr18is_move_assignableIS2_EE5valueEvE4typeERS2_S5_, symObjAddr: 0x14940C, symBinAddr: 0x10014ABF8, symSize: 0x0 }
  - { offset: 0x5F8A2, size: 0x8, addend: 0x0, symName: __ZNSt3__110__loadwordB8ne190107IjEET_PKv, symObjAddr: 0x1496FC, symBinAddr: 0x10014AEE8, symSize: 0x0 }
  - { offset: 0x5F8E5, size: 0x8, addend: 0x0, symName: __ZNSt3__17launderB8ne190107IKNS_4pairIKNS_12basic_stringIcNS_11char_traitsIcEENS_9allocatorIcEEEEmEEEEPT_SC_, symObjAddr: 0x14A520, symBinAddr: 0x10014BD0C, symSize: 0x0 }
  - { offset: 0x5F91C, size: 0x8, addend: 0x0, symName: __ZNSt3__19__launderB8ne190107IKNS_4pairIKNS_12basic_stringIcNS_11char_traitsIcEENS_9allocatorIcEEEEmEEEEPT_SC_, symObjAddr: 0x14A54C, symBinAddr: 0x10014BD38, symSize: 0x0 }
  - { offset: 0x5F987, size: 0x8, addend: 0x0, symName: __ZNSt3__1eqB8ne190107ERKNS_15__hash_iteratorIPNS_11__hash_nodeINS_17__hash_value_typeINS_12basic_stringIcNS_11char_traitsIcEENS_9allocatorIcEEEEmEEPvEEEESF_, symObjAddr: 0x14A6AC, symBinAddr: 0x10014BE98, symSize: 0x0 }
  - { offset: 0x5FA2C, size: 0x8, addend: 0x0, symName: __ZNSt3__17launderB8ne190107INS_4pairIKNS_12basic_stringIcNS_11char_traitsIcEENS_9allocatorIcEEEEmEEEEPT_SB_, symObjAddr: 0x14A9C8, symBinAddr: 0x10014C1B4, symSize: 0x0 }
  - { offset: 0x5FA63, size: 0x8, addend: 0x0, symName: __ZNSt3__19__launderB8ne190107INS_4pairIKNS_12basic_stringIcNS_11char_traitsIcEENS_9allocatorIcEEEEmEEEEPT_SB_, symObjAddr: 0x14A9F4, symBinAddr: 0x10014C1E0, symSize: 0x0 }
  - { offset: 0x5FA9B, size: 0x8, addend: 0x0, symName: __ZNSt3__112__to_addressB8ne190107IN7testing8internal26ParameterizedTestSuiteInfoIN12_GLOBAL__N_115CaesarDec_CleanEE17InstantiationInfoEEEPT_S9_, symObjAddr: 0x14EFA4, symBinAddr: 0x100150790, symSize: 0x0 }
  - { offset: 0x5FAD1, size: 0x8, addend: 0x0, symName: __ZNSt3__112__destroy_atB8ne190107IN7testing8internal26ParameterizedTestSuiteInfoIN12_GLOBAL__N_115CaesarDec_CleanEE17InstantiationInfoETnNS_9enable_ifIXntsr8is_arrayIT_EE5valueEiE4typeELi0EEEvPS9_, symObjAddr: 0x14EFC0, symBinAddr: 0x1001507AC, symSize: 0x0 }
  - { offset: 0x5FB0A, size: 0x8, addend: 0x0, symName: __ZNSt3__131__annotate_contiguous_containerB8ne190107INS_9allocatorIN7testing8internal26ParameterizedTestSuiteInfoIN12_GLOBAL__N_115CaesarDec_CleanEE17InstantiationInfoEEEEEvPKvSB_SB_SB_, symObjAddr: 0x14F3B8, symBinAddr: 0x100150BA4, symSize: 0x0 }
  - { offset: 0x5FB65, size: 0x8, addend: 0x0, symName: __ZNSt3__1eqB8ne190107IPNS_10shared_ptrIN7testing8internal26ParameterizedTestSuiteInfoIN12_GLOBAL__N_115CaesarDec_CleanEE8TestInfoEEEEEbRKNS_11__wrap_iterIT_EESF_, symObjAddr: 0x1502F8, symBinAddr: 0x100151AE4, symSize: 0x0 }
  - { offset: 0x5FBA8, size: 0x8, addend: 0x0, symName: __ZNSt3__1eqB8ne190107IPN7testing8internal26ParameterizedTestSuiteInfoIN12_GLOBAL__N_115CaesarDec_CleanEE17InstantiationInfoEEEbRKNS_11__wrap_iterIT_EESD_, symObjAddr: 0x1505B8, symBinAddr: 0x100151DA4, symSize: 0x0 }
  - { offset: 0x5FBEB, size: 0x8, addend: 0x0, symName: __ZNSt3__1plB8ne190107IcNS_11char_traitsIcEENS_9allocatorIcEEEENS_12basic_stringIT_T0_T1_EERKS9_PKS6_, symObjAddr: 0x150724, symBinAddr: 0x100151F10, symSize: 0x0 }
  - { offset: 0x609E9, size: 0x8, addend: 0x0, symName: __ZNSt3__119__constexpr_memmoveB8ne190107IcKcTnNS_9enable_ifIXsr23__is_always_bitcastableIT0_T_EE5valueEiE4typeELi0EEEPS4_S7_PS3_NS_15__element_countE, symObjAddr: 0x154EA4, symBinAddr: 0x100156690, symSize: 0x0 }
  - { offset: 0x60A58, size: 0x8, addend: 0x0, symName: __ZNSt3__16fill_nB8ne190107IPcmcEET_S2_T0_RKT1_, symObjAddr: 0x154F0C, symBinAddr: 0x1001566F8, symSize: 0x0 }
  - { offset: 0x60ABB, size: 0x8, addend: 0x0, symName: __ZNSt3__18__fill_nB8ne190107IPcmcEET_S2_T0_RKT1_, symObjAddr: 0x154F80, symBinAddr: 0x10015676C, symSize: 0x0 }
  - { offset: 0x60B1F, size: 0x8, addend: 0x0, symName: __ZNSt3__121__convert_to_integralB8ne190107Em, symObjAddr: 0x155130, symBinAddr: 0x10015691C, symSize: 0x0 }
  - { offset: 0x60B80, size: 0x8, addend: 0x0, symName: __ZNSt3__1ltB8ne190107ENS_15strong_orderingENS_20_CmpUnspecifiedParamE, symObjAddr: 0x158168, symBinAddr: 0x100159954, symSize: 0x0 }
  - { offset: 0x60BB7, size: 0x8, addend: 0x0, symName: __ZNSt3__1ssB8ne190107IcNS_11char_traitsIcEENS_9allocatorIcEEEEDaRKNS_12basic_stringIT_T0_T1_EESB_, symObjAddr: 0x158190, symBinAddr: 0x10015997C, symSize: 0x0 }
  - { offset: 0x60C2B, size: 0x8, addend: 0x0, symName: __ZNSt3__1ssB8ne190107IcNS_11char_traitsIcEEEEDaNS_17basic_string_viewIT_T0_EENS_13type_identityIS6_E4typeE, symObjAddr: 0x15829C, symBinAddr: 0x100159A88, symSize: 0x0 }
  - { offset: 0x60C9E, size: 0x8, addend: 0x0, symName: __ZNSt3__114__construct_atB8ne190107INS_12basic_stringIcNS_11char_traitsIcEENS_9allocatorIcEEEEJS6_EPS6_EEPT_S9_DpOT0_, symObjAddr: 0x15C044, symBinAddr: 0x10015D830, symSize: 0x0 }
  - { offset: 0x60CF1, size: 0x8, addend: 0x0, symName: __ZNSt3__112construct_atB8ne190107INS_12basic_stringIcNS_11char_traitsIcEENS_9allocatorIcEEEEJS6_EPS6_EEPT_S9_DpOT0_, symObjAddr: 0x15C0B8, symBinAddr: 0x10015D8A4, symSize: 0x0 }
  - { offset: 0x60D63, size: 0x8, addend: 0x0, symName: __ZNSt3__127__tree_balance_after_insertB8ne190107IPNS_16__tree_node_baseIPvEEEEvT_S5_, symObjAddr: 0x15C4A0, symBinAddr: 0x10015DC8C, symSize: 0x0 }
  - { offset: 0x60DD7, size: 0x8, addend: 0x0, symName: __ZNSt3__120__tree_is_left_childB8ne190107IPNS_16__tree_node_baseIPvEEEEbT_, symObjAddr: 0x15DAB4, symBinAddr: 0x10015F2A0, symSize: 0x0 }
  - { offset: 0x60E0D, size: 0x8, addend: 0x0, symName: __ZNSt3__118__tree_left_rotateB8ne190107IPNS_16__tree_node_baseIPvEEEEvT_, symObjAddr: 0x15DC58, symBinAddr: 0x10015F444, symSize: 0x0 }
  - { offset: 0x60E4C, size: 0x8, addend: 0x0, symName: __ZNSt3__119__tree_right_rotateB8ne190107IPNS_16__tree_node_baseIPvEEEEvT_, symObjAddr: 0x15E5B8, symBinAddr: 0x10015FDA4, symSize: 0x0 }
  - { offset: 0x60E8F, size: 0x8, addend: 0x0, symName: __ZNSt3__116__is_hash_power2B8ne190107Em, symObjAddr: 0x163874, symBinAddr: 0x100165060, symSize: 0x0 }
  - { offset: 0x60EC1, size: 0x8, addend: 0x0, symName: __ZNSt3__16__math4ceilB8ne190107Ef, symObjAddr: 0x1638C8, symBinAddr: 0x1001650B4, symSize: 0x0 }
  - { offset: 0x60F66, size: 0x8, addend: 0x0, symName: __ZNSt3__114__construct_atB8ne190107INS_11__hash_nodeINS_17__hash_value_typeINS_12basic_stringIcNS_11char_traitsIcEENS_9allocatorIcEEEEmEEPvEEJDnRmEPSB_EEPT_SF_DpOT0_, symObjAddr: 0x164124, symBinAddr: 0x100165910, symSize: 0x0 }
  - { offset: 0x60FF3, size: 0x8, addend: 0x0, symName: __ZNSt3__112construct_atB8ne190107INS_11__hash_nodeINS_17__hash_value_typeINS_12basic_stringIcNS_11char_traitsIcEENS_9allocatorIcEEEEmEEPvEEJDnRmEPSB_EEPT_SF_DpOT0_, symObjAddr: 0x164E4C, symBinAddr: 0x100166638, symSize: 0x0 }
  - { offset: 0x61078, size: 0x8, addend: 0x0, symName: __ZNSt3__114__construct_atB8ne190107INS_4pairIKNS_12basic_stringIcNS_11char_traitsIcEENS_9allocatorIcEEEEmEEJS7_mEPS9_EEPT_SC_DpOT0_, symObjAddr: 0x165334, symBinAddr: 0x100166B20, symSize: 0x0 }
  - { offset: 0x61105, size: 0x8, addend: 0x0, symName: __ZNSt3__112construct_atB8ne190107INS_4pairIKNS_12basic_stringIcNS_11char_traitsIcEENS_9allocatorIcEEEEmEEJS7_mEPS9_EEPT_SC_DpOT0_, symObjAddr: 0x1653E8, symBinAddr: 0x100166BD4, symSize: 0x0 }
  - { offset: 0x6118A, size: 0x8, addend: 0x0, symName: __ZNSt3__116__next_hash_pow2B8ne190107Em, symObjAddr: 0x166FA0, symBinAddr: 0x10016878C, symSize: 0x0 }
  - { offset: 0x611B6, size: 0x8, addend: 0x0, symName: __ZNSt3__112__libcpp_clzB8ne190107Em, symObjAddr: 0x167D28, symBinAddr: 0x100169514, symSize: 0x0 }
  - { offset: 0x611E3, size: 0x8, addend: 0x0, symName: __ZNSt3__112__destroy_atB8ne190107INS_11__hash_nodeINS_17__hash_value_typeINS_12basic_stringIcNS_11char_traitsIcEENS_9allocatorIcEEEEmEEPvEETnNS_9enable_ifIXntsr8is_arrayIT_EE5valueEiE4typeELi0EEEvPSD_, symObjAddr: 0x1684C8, symBinAddr: 0x100169CB4, symSize: 0x0 }
  - { offset: 0x6121C, size: 0x8, addend: 0x0, symName: __ZNSt3__112__destroy_atB8ne190107INS_4pairIKNS_12basic_stringIcNS_11char_traitsIcEENS_9allocatorIcEEEEmEETnNS_9enable_ifIXntsr8is_arrayIT_EE5valueEiE4typeELi0EEEvPSB_, symObjAddr: 0x168568, symBinAddr: 0x100169D54, symSize: 0x0 }
  - { offset: 0x61255, size: 0x8, addend: 0x0, symName: __ZNSt3__112__to_addressB8ne190107IPN7testing8internal30ParameterizedTestSuiteInfoBaseEEEPT_S6_, symObjAddr: 0x169824, symBinAddr: 0x10016B010, symSize: 0x0 }
  - { offset: 0x6128B, size: 0x8, addend: 0x0, symName: __ZNSt3__131__annotate_contiguous_containerB8ne190107INS_9allocatorIPN7testing8internal30ParameterizedTestSuiteInfoBaseEEEEEvPKvS8_S8_S8_, symObjAddr: 0x16A084, symBinAddr: 0x10016B870, symSize: 0x0 }
  - { offset: 0x612E6, size: 0x8, addend: 0x0, symName: __ZNSt3__114__construct_atB8ne190107IPN7testing8internal30ParameterizedTestSuiteInfoBaseEJS4_EPS4_EEPT_S7_DpOT0_, symObjAddr: 0x16A44C, symBinAddr: 0x10016BC38, symSize: 0x0 }
  - { offset: 0x61360, size: 0x8, addend: 0x0, symName: __ZNSt3__112construct_atB8ne190107IPN7testing8internal30ParameterizedTestSuiteInfoBaseEJS4_EPS4_EEPT_S7_DpOT0_, symObjAddr: 0x16A4C0, symBinAddr: 0x10016BCAC, symSize: 0x0 }
  - { offset: 0x613D2, size: 0x8, addend: 0x0, symName: __ZNSt3__119__allocate_at_leastB8ne190107INS_9allocatorIPN7testing8internal30ParameterizedTestSuiteInfoBaseEEEEENS_19__allocation_resultINS_16allocator_traitsIT_E7pointerEEERS9_m, symObjAddr: 0x16C350, symBinAddr: 0x10016DB3C, symSize: 0x0 }
  - { offset: 0x61415, size: 0x8, addend: 0x0, symName: __ZNSt3__134__uninitialized_allocator_relocateB8ne190107INS_9allocatorIPN7testing8internal30ParameterizedTestSuiteInfoBaseEEES5_EEvRT_PT0_SA_SA_, symObjAddr: 0x16CD54, symBinAddr: 0x10016E540, symSize: 0x0 }
  - { offset: 0x6147E, size: 0x8, addend: 0x0, symName: __ZNSt3__14swapB8ne190107IPPN7testing8internal30ParameterizedTestSuiteInfoBaseEEENS_9enable_ifIXaasr21is_move_constructibleIT_EE5valuesr18is_move_assignableIS7_EE5valueEvE4typeERS7_SA_, symObjAddr: 0x16CE04, symBinAddr: 0x10016E5F0, symSize: 0x0 }
  - { offset: 0x614D0, size: 0x8, addend: 0x0, symName: __ZNSt3__112__destroy_atB8ne190107IPN7testing8internal30ParameterizedTestSuiteInfoBaseETnNS_9enable_ifIXntsr8is_arrayIT_EE5valueEiE4typeELi0EEEvPS6_, symObjAddr: 0x16D750, symBinAddr: 0x10016EF3C, symSize: 0x0 }
  - { offset: 0x61508, size: 0x8, addend: 0x0, symName: __ZNSt3__114__construct_atB8ne190107IN7testing8internal26ParameterizedTestSuiteInfoIN12_GLOBAL__N_115CaesarDec_CleanEE17InstantiationInfoEJNS_12basic_stringIcNS_11char_traitsIcEENS_9allocatorIcEEEERPFNS2_14ParamGeneratorINS_5tupleIJSD_SD_EEEEEvERPFSD_RKNS1_13TestParamInfoISG_EEERPKcRiEPS7_EEPT_SY_DpOT0_, symObjAddr: 0x16F4B4, symBinAddr: 0x100170CA0, symSize: 0x0 }
  - { offset: 0x615CE, size: 0x8, addend: 0x0, symName: __ZNSt3__112construct_atB8ne190107IN7testing8internal26ParameterizedTestSuiteInfoIN12_GLOBAL__N_115CaesarDec_CleanEE17InstantiationInfoEJNS_12basic_stringIcNS_11char_traitsIcEENS_9allocatorIcEEEERPFNS2_14ParamGeneratorINS_5tupleIJSD_SD_EEEEEvERPFSD_RKNS1_13TestParamInfoISG_EEERPKcRiEPS7_EEPT_SY_DpOT0_, symObjAddr: 0x16F628, symBinAddr: 0x100170E14, symSize: 0x0 }
  - { offset: 0x61693, size: 0x8, addend: 0x0, symName: __ZNSt3__119__allocate_at_leastB8ne190107INS_9allocatorIN7testing8internal26ParameterizedTestSuiteInfoIN12_GLOBAL__N_115CaesarDec_CleanEE17InstantiationInfoEEEEENS_19__allocation_resultINS_16allocator_traitsIT_E7pointerEEERSC_m, symObjAddr: 0x171A00, symBinAddr: 0x1001731EC, symSize: 0x0 }
  - { offset: 0x616D7, size: 0x8, addend: 0x0, symName: __ZNSt3__134__uninitialized_allocator_relocateB8ne190107INS_9allocatorIN7testing8internal26ParameterizedTestSuiteInfoIN12_GLOBAL__N_115CaesarDec_CleanEE17InstantiationInfoEEES8_EEvRT_PT0_SD_SD_, symObjAddr: 0x17215C, symBinAddr: 0x100173948, symSize: 0x0 }
  - { offset: 0x61783, size: 0x8, addend: 0x0, symName: __ZNSt3__14swapB8ne190107IPN7testing8internal26ParameterizedTestSuiteInfoIN12_GLOBAL__N_115CaesarDec_CleanEE17InstantiationInfoEEENS_9enable_ifIXaasr21is_move_constructibleIT_EE5valuesr18is_move_assignableISA_EE5valueEvE4typeERSA_SD_, symObjAddr: 0x1726B0, symBinAddr: 0x100173E9C, symSize: 0x0 }
  - { offset: 0x617D4, size: 0x8, addend: 0x0, symName: __ZNSt3__122__make_exception_guardB8ne190107INS_29_AllocatorDestroyRangeReverseINS_9allocatorIN7testing8internal26ParameterizedTestSuiteInfoIN12_GLOBAL__N_115CaesarDec_CleanEE17InstantiationInfoEEEPS9_EEEENS_28__exception_guard_exceptionsIT_EESE_, symObjAddr: 0x172A48, symBinAddr: 0x100174234, symSize: 0x0 }
  - { offset: 0x6180C, size: 0x8, addend: 0x0, symName: __ZNSt3__119__allocator_destroyB8ne190107INS_9allocatorIN7testing8internal26ParameterizedTestSuiteInfoIN12_GLOBAL__N_115CaesarDec_CleanEE17InstantiationInfoEEEPS8_SA_EEvRT_T0_T1_, symObjAddr: 0x172E0C, symBinAddr: 0x1001745F8, symSize: 0x0 }
  - { offset: 0x6186F, size: 0x8, addend: 0x0, symName: __ZNSt3__114__construct_atB8ne190107IN7testing8internal26ParameterizedTestSuiteInfoIN12_GLOBAL__N_115CaesarDec_CleanEE17InstantiationInfoEJS7_EPS7_EEPT_SA_DpOT0_, symObjAddr: 0x173284, symBinAddr: 0x100174A70, symSize: 0x0 }
  - { offset: 0x618C2, size: 0x8, addend: 0x0, symName: __ZNSt3__112construct_atB8ne190107IN7testing8internal26ParameterizedTestSuiteInfoIN12_GLOBAL__N_115CaesarDec_CleanEE17InstantiationInfoEJS7_EPS7_EEPT_SA_DpOT0_, symObjAddr: 0x1732F8, symBinAddr: 0x100174AE4, symSize: 0x0 }
  - { offset: 0x61935, size: 0x8, addend: 0x0, symName: __ZNSt3__119__allocator_destroyB8ne190107INS_9allocatorIN7testing8internal26ParameterizedTestSuiteInfoIN12_GLOBAL__N_115CaesarDec_CleanEE17InstantiationInfoEEENS_16reverse_iteratorIPS8_EESC_EEvRT_T0_T1_, symObjAddr: 0x1739D0, symBinAddr: 0x1001751BC, symSize: 0x0 }
  - { offset: 0x619A1, size: 0x8, addend: 0x0, symName: __ZNSt3__1neB8ne190107IPN7testing8internal26ParameterizedTestSuiteInfoIN12_GLOBAL__N_115CaesarDec_CleanEE17InstantiationInfoES8_EEbRKNS_16reverse_iteratorIT_EERKNS9_IT0_EEQrqXnecldtfp_4baseEcldtfp0_4baseERNS_14convertible_toIbEEE, symObjAddr: 0x173C88, symBinAddr: 0x100175474, symSize: 0x0 }
  - { offset: 0x619ED, size: 0x8, addend: 0x0, symName: __ZNSt3__112__to_addressB8ne190107INS_16reverse_iteratorIPN7testing8internal26ParameterizedTestSuiteInfoIN12_GLOBAL__N_115CaesarDec_CleanEE17InstantiationInfoEEETnNS_9enable_ifIXsr4_AndINS_8is_classIT_EENS_15_IsFancyPointerISD_EEEE5valueEiE4typeELi0EEEu7__decayIDTclsr19__to_address_helperISD_EE6__callclsr3stdE7declvalIRKSD_EEEEESK_, symObjAddr: 0x173D20, symBinAddr: 0x10017550C, symSize: 0x0 }
  - { offset: 0x61A54, size: 0x8, addend: 0x0, symName: __ZNSt3__14prevB8ne190107IPN7testing8internal26ParameterizedTestSuiteInfoIN12_GLOBAL__N_115CaesarDec_CleanEE17InstantiationInfoETnNS_9enable_ifIXsr29__has_input_iterator_categoryIT_EE5valueEiE4typeELi0EEESA_SA_NS_15iterator_traitsISA_E15difference_typeE, symObjAddr: 0x1740C0, symBinAddr: 0x1001758AC, symSize: 0x0 }
  - { offset: 0x61AA4, size: 0x8, addend: 0x0, symName: __ZNSt3__19__advanceB8ne190107IPN7testing8internal26ParameterizedTestSuiteInfoIN12_GLOBAL__N_115CaesarDec_CleanEE17InstantiationInfoEEEvRT_NS_15iterator_traitsIS9_E15difference_typeENS_26random_access_iterator_tagE, symObjAddr: 0x17432C, symBinAddr: 0x100175B18, symSize: 0x0 }
  - { offset: 0x61AEF, size: 0x8, addend: 0x0, symName: __ZNSt3__112__to_addressB8ne190107IN7testing8internal26ParameterizedTestSuiteInfoIN12_GLOBAL__N_121CaesarDec_SplitSpacesEE17InstantiationInfoEEEPT_S9_, symObjAddr: 0x1795CC, symBinAddr: 0x10017ADB8, symSize: 0x0 }
  - { offset: 0x61B25, size: 0x8, addend: 0x0, symName: __ZNSt3__112__destroy_atB8ne190107IN7testing8internal26ParameterizedTestSuiteInfoIN12_GLOBAL__N_121CaesarDec_SplitSpacesEE17InstantiationInfoETnNS_9enable_ifIXntsr8is_arrayIT_EE5valueEiE4typeELi0EEEvPS9_, symObjAddr: 0x1795E8, symBinAddr: 0x10017ADD4, symSize: 0x0 }
  - { offset: 0x61B5E, size: 0x8, addend: 0x0, symName: __ZNSt3__131__annotate_contiguous_containerB8ne190107INS_9allocatorIN7testing8internal26ParameterizedTestSuiteInfoIN12_GLOBAL__N_121CaesarDec_SplitSpacesEE17InstantiationInfoEEEEEvPKvSB_SB_SB_, symObjAddr: 0x1799E0, symBinAddr: 0x10017B1CC, symSize: 0x0 }
  - { offset: 0x61BB9, size: 0x8, addend: 0x0, symName: __ZNSt3__1eqB8ne190107IPNS_10shared_ptrIN7testing8internal26ParameterizedTestSuiteInfoIN12_GLOBAL__N_121CaesarDec_SplitSpacesEE8TestInfoEEEEEbRKNS_11__wrap_iterIT_EESF_, symObjAddr: 0x17A920, symBinAddr: 0x10017C10C, symSize: 0x0 }
  - { offset: 0x61BFC, size: 0x8, addend: 0x0, symName: __ZNSt3__1eqB8ne190107IPN7testing8internal26ParameterizedTestSuiteInfoIN12_GLOBAL__N_121CaesarDec_SplitSpacesEE17InstantiationInfoEEEbRKNS_11__wrap_iterIT_EESD_, symObjAddr: 0x17ABE0, symBinAddr: 0x10017C3CC, symSize: 0x0 }
  - { offset: 0x61C3F, size: 0x8, addend: 0x0, symName: __ZNSt3__114__construct_atB8ne190107IN7testing8internal26ParameterizedTestSuiteInfoIN12_GLOBAL__N_121CaesarDec_SplitSpacesEE17InstantiationInfoEJNS_12basic_stringIcNS_11char_traitsIcEENS_9allocatorIcEEEERPFNS2_14ParamGeneratorINS_5tupleIJSD_NS_6vectorISD_NSB_ISD_EEEEEEEEEvERPFSD_RKNS1_13TestParamInfoISJ_EEERPKcRiEPS7_EEPT_S11_DpOT0_, symObjAddr: 0x1810F8, symBinAddr: 0x1001828E4, symSize: 0x0 }
  - { offset: 0x61D05, size: 0x8, addend: 0x0, symName: __ZNSt3__112construct_atB8ne190107IN7testing8internal26ParameterizedTestSuiteInfoIN12_GLOBAL__N_121CaesarDec_SplitSpacesEE17InstantiationInfoEJNS_12basic_stringIcNS_11char_traitsIcEENS_9allocatorIcEEEERPFNS2_14ParamGeneratorINS_5tupleIJSD_NS_6vectorISD_NSB_ISD_EEEEEEEEEvERPFSD_RKNS1_13TestParamInfoISJ_EEERPKcRiEPS7_EEPT_S11_DpOT0_, symObjAddr: 0x18126C, symBinAddr: 0x100182A58, symSize: 0x0 }
  - { offset: 0x61DCA, size: 0x8, addend: 0x0, symName: __ZNSt3__119__allocate_at_leastB8ne190107INS_9allocatorIN7testing8internal26ParameterizedTestSuiteInfoIN12_GLOBAL__N_121CaesarDec_SplitSpacesEE17InstantiationInfoEEEEENS_19__allocation_resultINS_16allocator_traitsIT_E7pointerEEERSC_m, symObjAddr: 0x183644, symBinAddr: 0x100184E30, symSize: 0x0 }
  - { offset: 0x61E0E, size: 0x8, addend: 0x0, symName: __ZNSt3__134__uninitialized_allocator_relocateB8ne190107INS_9allocatorIN7testing8internal26ParameterizedTestSuiteInfoIN12_GLOBAL__N_121CaesarDec_SplitSpacesEE17InstantiationInfoEEES8_EEvRT_PT0_SD_SD_, symObjAddr: 0x183DA0, symBinAddr: 0x10018558C, symSize: 0x0 }
  - { offset: 0x61EBA, size: 0x8, addend: 0x0, symName: __ZNSt3__14swapB8ne190107IPN7testing8internal26ParameterizedTestSuiteInfoIN12_GLOBAL__N_121CaesarDec_SplitSpacesEE17InstantiationInfoEEENS_9enable_ifIXaasr21is_move_constructibleIT_EE5valuesr18is_move_assignableISA_EE5valueEvE4typeERSA_SD_, symObjAddr: 0x1842F4, symBinAddr: 0x100185AE0, symSize: 0x0 }
  - { offset: 0x61F0B, size: 0x8, addend: 0x0, symName: __ZNSt3__122__make_exception_guardB8ne190107INS_29_AllocatorDestroyRangeReverseINS_9allocatorIN7testing8internal26ParameterizedTestSuiteInfoIN12_GLOBAL__N_121CaesarDec_SplitSpacesEE17InstantiationInfoEEEPS9_EEEENS_28__exception_guard_exceptionsIT_EESE_, symObjAddr: 0x18468C, symBinAddr: 0x100185E78, symSize: 0x0 }
  - { offset: 0x61F43, size: 0x8, addend: 0x0, symName: __ZNSt3__119__allocator_destroyB8ne190107INS_9allocatorIN7testing8internal26ParameterizedTestSuiteInfoIN12_GLOBAL__N_121CaesarDec_SplitSpacesEE17InstantiationInfoEEEPS8_SA_EEvRT_T0_T1_, symObjAddr: 0x184A50, symBinAddr: 0x10018623C, symSize: 0x0 }
  - { offset: 0x61FA6, size: 0x8, addend: 0x0, symName: __ZNSt3__114__construct_atB8ne190107IN7testing8internal26ParameterizedTestSuiteInfoIN12_GLOBAL__N_121CaesarDec_SplitSpacesEE17InstantiationInfoEJS7_EPS7_EEPT_SA_DpOT0_, symObjAddr: 0x184EC8, symBinAddr: 0x1001866B4, symSize: 0x0 }
  - { offset: 0x61FF9, size: 0x8, addend: 0x0, symName: __ZNSt3__112construct_atB8ne190107IN7testing8internal26ParameterizedTestSuiteInfoIN12_GLOBAL__N_121CaesarDec_SplitSpacesEE17InstantiationInfoEJS7_EPS7_EEPT_SA_DpOT0_, symObjAddr: 0x184F3C, symBinAddr: 0x100186728, symSize: 0x0 }
  - { offset: 0x6206C, size: 0x8, addend: 0x0, symName: __ZNSt3__119__allocator_destroyB8ne190107INS_9allocatorIN7testing8internal26ParameterizedTestSuiteInfoIN12_GLOBAL__N_121CaesarDec_SplitSpacesEE17InstantiationInfoEEENS_16reverse_iteratorIPS8_EESC_EEvRT_T0_T1_, symObjAddr: 0x185614, symBinAddr: 0x100186E00, symSize: 0x0 }
  - { offset: 0x620D8, size: 0x8, addend: 0x0, symName: __ZNSt3__1neB8ne190107IPN7testing8internal26ParameterizedTestSuiteInfoIN12_GLOBAL__N_121CaesarDec_SplitSpacesEE17InstantiationInfoES8_EEbRKNS_16reverse_iteratorIT_EERKNS9_IT0_EEQrqXnecldtfp_4baseEcldtfp0_4baseERNS_14convertible_toIbEEE, symObjAddr: 0x1858CC, symBinAddr: 0x1001870B8, symSize: 0x0 }
  - { offset: 0x62124, size: 0x8, addend: 0x0, symName: __ZNSt3__112__to_addressB8ne190107INS_16reverse_iteratorIPN7testing8internal26ParameterizedTestSuiteInfoIN12_GLOBAL__N_121CaesarDec_SplitSpacesEE17InstantiationInfoEEETnNS_9enable_ifIXsr4_AndINS_8is_classIT_EENS_15_IsFancyPointerISD_EEEE5valueEiE4typeELi0EEEu7__decayIDTclsr19__to_address_helperISD_EE6__callclsr3stdE7declvalIRKSD_EEEEESK_, symObjAddr: 0x185964, symBinAddr: 0x100187150, symSize: 0x0 }
  - { offset: 0x6218B, size: 0x8, addend: 0x0, symName: __ZNSt3__14prevB8ne190107IPN7testing8internal26ParameterizedTestSuiteInfoIN12_GLOBAL__N_121CaesarDec_SplitSpacesEE17InstantiationInfoETnNS_9enable_ifIXsr29__has_input_iterator_categoryIT_EE5valueEiE4typeELi0EEESA_SA_NS_15iterator_traitsISA_E15difference_typeE, symObjAddr: 0x185D04, symBinAddr: 0x1001874F0, symSize: 0x0 }
  - { offset: 0x621DB, size: 0x8, addend: 0x0, symName: __ZNSt3__19__advanceB8ne190107IPN7testing8internal26ParameterizedTestSuiteInfoIN12_GLOBAL__N_121CaesarDec_SplitSpacesEE17InstantiationInfoEEEvRT_NS_15iterator_traitsIS9_E15difference_typeENS_26random_access_iterator_tagE, symObjAddr: 0x185F70, symBinAddr: 0x10018775C, symSize: 0x0 }
  - { offset: 0x62226, size: 0x8, addend: 0x0, symName: __ZNSt3__112__to_addressB8ne190107IN7testing8internal26ParameterizedTestSuiteInfoIN12_GLOBAL__N_124CaesarDec_JoinWithSpacesEE17InstantiationInfoEEEPT_S9_, symObjAddr: 0x18B210, symBinAddr: 0x10018C9FC, symSize: 0x0 }
  - { offset: 0x6225C, size: 0x8, addend: 0x0, symName: __ZNSt3__112__destroy_atB8ne190107IN7testing8internal26ParameterizedTestSuiteInfoIN12_GLOBAL__N_124CaesarDec_JoinWithSpacesEE17InstantiationInfoETnNS_9enable_ifIXntsr8is_arrayIT_EE5valueEiE4typeELi0EEEvPS9_, symObjAddr: 0x18B22C, symBinAddr: 0x10018CA18, symSize: 0x0 }
  - { offset: 0x62295, size: 0x8, addend: 0x0, symName: __ZNSt3__131__annotate_contiguous_containerB8ne190107INS_9allocatorIN7testing8internal26ParameterizedTestSuiteInfoIN12_GLOBAL__N_124CaesarDec_JoinWithSpacesEE17InstantiationInfoEEEEEvPKvSB_SB_SB_, symObjAddr: 0x18B624, symBinAddr: 0x10018CE10, symSize: 0x0 }
  - { offset: 0x622F0, size: 0x8, addend: 0x0, symName: __ZNSt3__1eqB8ne190107IPNS_10shared_ptrIN7testing8internal26ParameterizedTestSuiteInfoIN12_GLOBAL__N_124CaesarDec_JoinWithSpacesEE8TestInfoEEEEEbRKNS_11__wrap_iterIT_EESF_, symObjAddr: 0x18C564, symBinAddr: 0x10018DD50, symSize: 0x0 }
  - { offset: 0x62333, size: 0x8, addend: 0x0, symName: __ZNSt3__1eqB8ne190107IPN7testing8internal26ParameterizedTestSuiteInfoIN12_GLOBAL__N_124CaesarDec_JoinWithSpacesEE17InstantiationInfoEEEbRKNS_11__wrap_iterIT_EESD_, symObjAddr: 0x18C824, symBinAddr: 0x10018E010, symSize: 0x0 }
  - { offset: 0x62376, size: 0x8, addend: 0x0, symName: __ZNSt3__114__construct_atB8ne190107IN7testing8internal26ParameterizedTestSuiteInfoIN12_GLOBAL__N_124CaesarDec_JoinWithSpacesEE17InstantiationInfoEJNS_12basic_stringIcNS_11char_traitsIcEENS_9allocatorIcEEEERPFNS2_14ParamGeneratorINS_5tupleIJNS_6vectorISD_NSB_ISD_EEEESD_EEEEEvERPFSD_RKNS1_13TestParamInfoISJ_EEERPKcRiEPS7_EEPT_S11_DpOT0_, symObjAddr: 0x192D3C, symBinAddr: 0x100194528, symSize: 0x0 }
  - { offset: 0x6243C, size: 0x8, addend: 0x0, symName: __ZNSt3__112construct_atB8ne190107IN7testing8internal26ParameterizedTestSuiteInfoIN12_GLOBAL__N_124CaesarDec_JoinWithSpacesEE17InstantiationInfoEJNS_12basic_stringIcNS_11char_traitsIcEENS_9allocatorIcEEEERPFNS2_14ParamGeneratorINS_5tupleIJNS_6vectorISD_NSB_ISD_EEEESD_EEEEEvERPFSD_RKNS1_13TestParamInfoISJ_EEERPKcRiEPS7_EEPT_S11_DpOT0_, symObjAddr: 0x192EB0, symBinAddr: 0x10019469C, symSize: 0x0 }
  - { offset: 0x62501, size: 0x8, addend: 0x0, symName: __ZNSt3__119__allocate_at_leastB8ne190107INS_9allocatorIN7testing8internal26ParameterizedTestSuiteInfoIN12_GLOBAL__N_124CaesarDec_JoinWithSpacesEE17InstantiationInfoEEEEENS_19__allocation_resultINS_16allocator_traitsIT_E7pointerEEERSC_m, symObjAddr: 0x195288, symBinAddr: 0x100196A74, symSize: 0x0 }
  - { offset: 0x62545, size: 0x8, addend: 0x0, symName: __ZNSt3__134__uninitialized_allocator_relocateB8ne190107INS_9allocatorIN7testing8internal26ParameterizedTestSuiteInfoIN12_GLOBAL__N_124CaesarDec_JoinWithSpacesEE17InstantiationInfoEEES8_EEvRT_PT0_SD_SD_, symObjAddr: 0x1959E4, symBinAddr: 0x1001971D0, symSize: 0x0 }
  - { offset: 0x625F1, size: 0x8, addend: 0x0, symName: __ZNSt3__14swapB8ne190107IPN7testing8internal26ParameterizedTestSuiteInfoIN12_GLOBAL__N_124CaesarDec_JoinWithSpacesEE17InstantiationInfoEEENS_9enable_ifIXaasr21is_move_constructibleIT_EE5valuesr18is_move_assignableISA_EE5valueEvE4typeERSA_SD_, symObjAddr: 0x195F38, symBinAddr: 0x100197724, symSize: 0x0 }
  - { offset: 0x62642, size: 0x8, addend: 0x0, symName: __ZNSt3__122__make_exception_guardB8ne190107INS_29_AllocatorDestroyRangeReverseINS_9allocatorIN7testing8internal26ParameterizedTestSuiteInfoIN12_GLOBAL__N_124CaesarDec_JoinWithSpacesEE17InstantiationInfoEEEPS9_EEEENS_28__exception_guard_exceptionsIT_EESE_, symObjAddr: 0x1962D0, symBinAddr: 0x100197ABC, symSize: 0x0 }
  - { offset: 0x6267A, size: 0x8, addend: 0x0, symName: __ZNSt3__119__allocator_destroyB8ne190107INS_9allocatorIN7testing8internal26ParameterizedTestSuiteInfoIN12_GLOBAL__N_124CaesarDec_JoinWithSpacesEE17InstantiationInfoEEEPS8_SA_EEvRT_T0_T1_, symObjAddr: 0x196694, symBinAddr: 0x100197E80, symSize: 0x0 }
  - { offset: 0x626DD, size: 0x8, addend: 0x0, symName: __ZNSt3__114__construct_atB8ne190107IN7testing8internal26ParameterizedTestSuiteInfoIN12_GLOBAL__N_124CaesarDec_JoinWithSpacesEE17InstantiationInfoEJS7_EPS7_EEPT_SA_DpOT0_, symObjAddr: 0x196B0C, symBinAddr: 0x1001982F8, symSize: 0x0 }
  - { offset: 0x62730, size: 0x8, addend: 0x0, symName: __ZNSt3__112construct_atB8ne190107IN7testing8internal26ParameterizedTestSuiteInfoIN12_GLOBAL__N_124CaesarDec_JoinWithSpacesEE17InstantiationInfoEJS7_EPS7_EEPT_SA_DpOT0_, symObjAddr: 0x196B80, symBinAddr: 0x10019836C, symSize: 0x0 }
  - { offset: 0x627A3, size: 0x8, addend: 0x0, symName: __ZNSt3__119__allocator_destroyB8ne190107INS_9allocatorIN7testing8internal26ParameterizedTestSuiteInfoIN12_GLOBAL__N_124CaesarDec_JoinWithSpacesEE17InstantiationInfoEEENS_16reverse_iteratorIPS8_EESC_EEvRT_T0_T1_, symObjAddr: 0x197258, symBinAddr: 0x100198A44, symSize: 0x0 }
  - { offset: 0x6280F, size: 0x8, addend: 0x0, symName: __ZNSt3__1neB8ne190107IPN7testing8internal26ParameterizedTestSuiteInfoIN12_GLOBAL__N_124CaesarDec_JoinWithSpacesEE17InstantiationInfoES8_EEbRKNS_16reverse_iteratorIT_EERKNS9_IT0_EEQrqXnecldtfp_4baseEcldtfp0_4baseERNS_14convertible_toIbEEE, symObjAddr: 0x197510, symBinAddr: 0x100198CFC, symSize: 0x0 }
  - { offset: 0x6285B, size: 0x8, addend: 0x0, symName: __ZNSt3__112__to_addressB8ne190107INS_16reverse_iteratorIPN7testing8internal26ParameterizedTestSuiteInfoIN12_GLOBAL__N_124CaesarDec_JoinWithSpacesEE17InstantiationInfoEEETnNS_9enable_ifIXsr4_AndINS_8is_classIT_EENS_15_IsFancyPointerISD_EEEE5valueEiE4typeELi0EEEu7__decayIDTclsr19__to_address_helperISD_EE6__callclsr3stdE7declvalIRKSD_EEEEESK_, symObjAddr: 0x1975A8, symBinAddr: 0x100198D94, symSize: 0x0 }
  - { offset: 0x628C2, size: 0x8, addend: 0x0, symName: __ZNSt3__14prevB8ne190107IPN7testing8internal26ParameterizedTestSuiteInfoIN12_GLOBAL__N_124CaesarDec_JoinWithSpacesEE17InstantiationInfoETnNS_9enable_ifIXsr29__has_input_iterator_categoryIT_EE5valueEiE4typeELi0EEESA_SA_NS_15iterator_traitsISA_E15difference_typeE, symObjAddr: 0x197948, symBinAddr: 0x100199134, symSize: 0x0 }
  - { offset: 0x62912, size: 0x8, addend: 0x0, symName: __ZNSt3__19__advanceB8ne190107IPN7testing8internal26ParameterizedTestSuiteInfoIN12_GLOBAL__N_124CaesarDec_JoinWithSpacesEE17InstantiationInfoEEEvRT_NS_15iterator_traitsIS9_E15difference_typeENS_26random_access_iterator_tagE, symObjAddr: 0x197BB4, symBinAddr: 0x1001993A0, symSize: 0x0 }
  - { offset: 0x6295D, size: 0x8, addend: 0x0, symName: __ZNSt3__112__to_addressB8ne190107IN7testing8internal26ParameterizedTestSuiteInfoIN12_GLOBAL__N_120CaesarDec_NumWordsInEE17InstantiationInfoEEEPT_S9_, symObjAddr: 0x19CDFC, symBinAddr: 0x10019E5E8, symSize: 0x0 }
  - { offset: 0x62993, size: 0x8, addend: 0x0, symName: __ZNSt3__112__destroy_atB8ne190107IN7testing8internal26ParameterizedTestSuiteInfoIN12_GLOBAL__N_120CaesarDec_NumWordsInEE17InstantiationInfoETnNS_9enable_ifIXntsr8is_arrayIT_EE5valueEiE4typeELi0EEEvPS9_, symObjAddr: 0x19CE18, symBinAddr: 0x10019E604, symSize: 0x0 }
  - { offset: 0x629CC, size: 0x8, addend: 0x0, symName: __ZNSt3__131__annotate_contiguous_containerB8ne190107INS_9allocatorIN7testing8internal26ParameterizedTestSuiteInfoIN12_GLOBAL__N_120CaesarDec_NumWordsInEE17InstantiationInfoEEEEEvPKvSB_SB_SB_, symObjAddr: 0x19D210, symBinAddr: 0x10019E9FC, symSize: 0x0 }
  - { offset: 0x62A27, size: 0x8, addend: 0x0, symName: __ZNSt3__1eqB8ne190107IPNS_10shared_ptrIN7testing8internal26ParameterizedTestSuiteInfoIN12_GLOBAL__N_120CaesarDec_NumWordsInEE8TestInfoEEEEEbRKNS_11__wrap_iterIT_EESF_, symObjAddr: 0x19E150, symBinAddr: 0x10019F93C, symSize: 0x0 }
  - { offset: 0x62A6A, size: 0x8, addend: 0x0, symName: __ZNSt3__1eqB8ne190107IPN7testing8internal26ParameterizedTestSuiteInfoIN12_GLOBAL__N_120CaesarDec_NumWordsInEE17InstantiationInfoEEEbRKNS_11__wrap_iterIT_EESD_, symObjAddr: 0x19E410, symBinAddr: 0x10019FBFC, symSize: 0x0 }
  - { offset: 0x62AAD, size: 0x8, addend: 0x0, symName: __ZNSt3__114__construct_atB8ne190107IN7testing8internal26ParameterizedTestSuiteInfoIN12_GLOBAL__N_120CaesarDec_NumWordsInEE17InstantiationInfoEJNS_12basic_stringIcNS_11char_traitsIcEENS_9allocatorIcEEEERPFNS2_14ParamGeneratorINS_5tupleIJNS_6vectorISD_NSB_ISD_EEEESI_iEEEEEvERPFSD_RKNS1_13TestParamInfoISJ_EEERPKcRiEPS7_EEPT_S11_DpOT0_, symObjAddr: 0x1A4A5C, symBinAddr: 0x1001A6248, symSize: 0x0 }
  - { offset: 0x62B73, size: 0x8, addend: 0x0, symName: __ZNSt3__112construct_atB8ne190107IN7testing8internal26ParameterizedTestSuiteInfoIN12_GLOBAL__N_120CaesarDec_NumWordsInEE17InstantiationInfoEJNS_12basic_stringIcNS_11char_traitsIcEENS_9allocatorIcEEEERPFNS2_14ParamGeneratorINS_5tupleIJNS_6vectorISD_NSB_ISD_EEEESI_iEEEEEvERPFSD_RKNS1_13TestParamInfoISJ_EEERPKcRiEPS7_EEPT_S11_DpOT0_, symObjAddr: 0x1A4BD0, symBinAddr: 0x1001A63BC, symSize: 0x0 }
  - { offset: 0x62C38, size: 0x8, addend: 0x0, symName: __ZNSt3__119__allocate_at_leastB8ne190107INS_9allocatorIN7testing8internal26ParameterizedTestSuiteInfoIN12_GLOBAL__N_120CaesarDec_NumWordsInEE17InstantiationInfoEEEEENS_19__allocation_resultINS_16allocator_traitsIT_E7pointerEEERSC_m, symObjAddr: 0x1A6FA8, symBinAddr: 0x1001A8794, symSize: 0x0 }
  - { offset: 0x62C7C, size: 0x8, addend: 0x0, symName: __ZNSt3__134__uninitialized_allocator_relocateB8ne190107INS_9allocatorIN7testing8internal26ParameterizedTestSuiteInfoIN12_GLOBAL__N_120CaesarDec_NumWordsInEE17InstantiationInfoEEES8_EEvRT_PT0_SD_SD_, symObjAddr: 0x1A7704, symBinAddr: 0x1001A8EF0, symSize: 0x0 }
  - { offset: 0x62D28, size: 0x8, addend: 0x0, symName: __ZNSt3__14swapB8ne190107IPN7testing8internal26ParameterizedTestSuiteInfoIN12_GLOBAL__N_120CaesarDec_NumWordsInEE17InstantiationInfoEEENS_9enable_ifIXaasr21is_move_constructibleIT_EE5valuesr18is_move_assignableISA_EE5valueEvE4typeERSA_SD_, symObjAddr: 0x1A7C58, symBinAddr: 0x1001A9444, symSize: 0x0 }
  - { offset: 0x62D79, size: 0x8, addend: 0x0, symName: __ZNSt3__122__make_exception_guardB8ne190107INS_29_AllocatorDestroyRangeReverseINS_9allocatorIN7testing8internal26ParameterizedTestSuiteInfoIN12_GLOBAL__N_120CaesarDec_NumWordsInEE17InstantiationInfoEEEPS9_EEEENS_28__exception_guard_exceptionsIT_EESE_, symObjAddr: 0x1A7FF0, symBinAddr: 0x1001A97DC, symSize: 0x0 }
  - { offset: 0x62DB1, size: 0x8, addend: 0x0, symName: __ZNSt3__119__allocator_destroyB8ne190107INS_9allocatorIN7testing8internal26ParameterizedTestSuiteInfoIN12_GLOBAL__N_120CaesarDec_NumWordsInEE17InstantiationInfoEEEPS8_SA_EEvRT_T0_T1_, symObjAddr: 0x1A83B4, symBinAddr: 0x1001A9BA0, symSize: 0x0 }
  - { offset: 0x62E14, size: 0x8, addend: 0x0, symName: __ZNSt3__114__construct_atB8ne190107IN7testing8internal26ParameterizedTestSuiteInfoIN12_GLOBAL__N_120CaesarDec_NumWordsInEE17InstantiationInfoEJS7_EPS7_EEPT_SA_DpOT0_, symObjAddr: 0x1A882C, symBinAddr: 0x1001AA018, symSize: 0x0 }
  - { offset: 0x62E67, size: 0x8, addend: 0x0, symName: __ZNSt3__112construct_atB8ne190107IN7testing8internal26ParameterizedTestSuiteInfoIN12_GLOBAL__N_120CaesarDec_NumWordsInEE17InstantiationInfoEJS7_EPS7_EEPT_SA_DpOT0_, symObjAddr: 0x1A88A0, symBinAddr: 0x1001AA08C, symSize: 0x0 }
  - { offset: 0x62EDA, size: 0x8, addend: 0x0, symName: __ZNSt3__119__allocator_destroyB8ne190107INS_9allocatorIN7testing8internal26ParameterizedTestSuiteInfoIN12_GLOBAL__N_120CaesarDec_NumWordsInEE17InstantiationInfoEEENS_16reverse_iteratorIPS8_EESC_EEvRT_T0_T1_, symObjAddr: 0x1A8F78, symBinAddr: 0x1001AA764, symSize: 0x0 }
  - { offset: 0x62F46, size: 0x8, addend: 0x0, symName: __ZNSt3__1neB8ne190107IPN7testing8internal26ParameterizedTestSuiteInfoIN12_GLOBAL__N_120CaesarDec_NumWordsInEE17InstantiationInfoES8_EEbRKNS_16reverse_iteratorIT_EERKNS9_IT0_EEQrqXnecldtfp_4baseEcldtfp0_4baseERNS_14convertible_toIbEEE, symObjAddr: 0x1A9230, symBinAddr: 0x1001AAA1C, symSize: 0x0 }
  - { offset: 0x62F92, size: 0x8, addend: 0x0, symName: __ZNSt3__112__to_addressB8ne190107INS_16reverse_iteratorIPN7testing8internal26ParameterizedTestSuiteInfoIN12_GLOBAL__N_120CaesarDec_NumWordsInEE17InstantiationInfoEEETnNS_9enable_ifIXsr4_AndINS_8is_classIT_EENS_15_IsFancyPointerISD_EEEE5valueEiE4typeELi0EEEu7__decayIDTclsr19__to_address_helperISD_EE6__callclsr3stdE7declvalIRKSD_EEEEESK_, symObjAddr: 0x1A92C8, symBinAddr: 0x1001AAAB4, symSize: 0x0 }
  - { offset: 0x62FF9, size: 0x8, addend: 0x0, symName: __ZNSt3__14prevB8ne190107IPN7testing8internal26ParameterizedTestSuiteInfoIN12_GLOBAL__N_120CaesarDec_NumWordsInEE17InstantiationInfoETnNS_9enable_ifIXsr29__has_input_iterator_categoryIT_EE5valueEiE4typeELi0EEESA_SA_NS_15iterator_traitsISA_E15difference_typeE, symObjAddr: 0x1A9668, symBinAddr: 0x1001AAE54, symSize: 0x0 }
  - { offset: 0x63049, size: 0x8, addend: 0x0, symName: __ZNSt3__19__advanceB8ne190107IPN7testing8internal26ParameterizedTestSuiteInfoIN12_GLOBAL__N_120CaesarDec_NumWordsInEE17InstantiationInfoEEEvRT_NS_15iterator_traitsIS9_E15difference_typeENS_26random_access_iterator_tagE, symObjAddr: 0x1A98D4, symBinAddr: 0x1001AB0C0, symSize: 0x0 }
  - { offset: 0x63094, size: 0x8, addend: 0x0, symName: __ZNSt3__112__to_addressB8ne190107IN7testing8internal26ParameterizedTestSuiteInfoIN12_GLOBAL__N_127CaesarDec_CustomDictCommandEE17InstantiationInfoEEEPT_S9_, symObjAddr: 0x1AEB80, symBinAddr: 0x1001B036C, symSize: 0x0 }
  - { offset: 0x630CA, size: 0x8, addend: 0x0, symName: __ZNSt3__112__destroy_atB8ne190107IN7testing8internal26ParameterizedTestSuiteInfoIN12_GLOBAL__N_127CaesarDec_CustomDictCommandEE17InstantiationInfoETnNS_9enable_ifIXntsr8is_arrayIT_EE5valueEiE4typeELi0EEEvPS9_, symObjAddr: 0x1AEB9C, symBinAddr: 0x1001B0388, symSize: 0x0 }
  - { offset: 0x63103, size: 0x8, addend: 0x0, symName: __ZNSt3__131__annotate_contiguous_containerB8ne190107INS_9allocatorIN7testing8internal26ParameterizedTestSuiteInfoIN12_GLOBAL__N_127CaesarDec_CustomDictCommandEE17InstantiationInfoEEEEEvPKvSB_SB_SB_, symObjAddr: 0x1AEF94, symBinAddr: 0x1001B0780, symSize: 0x0 }
  - { offset: 0x6315E, size: 0x8, addend: 0x0, symName: __ZNSt3__1eqB8ne190107IPNS_10shared_ptrIN7testing8internal26ParameterizedTestSuiteInfoIN12_GLOBAL__N_127CaesarDec_CustomDictCommandEE8TestInfoEEEEEbRKNS_11__wrap_iterIT_EESF_, symObjAddr: 0x1AFED4, symBinAddr: 0x1001B16C0, symSize: 0x0 }
  - { offset: 0x631A1, size: 0x8, addend: 0x0, symName: __ZNSt3__1eqB8ne190107IPN7testing8internal26ParameterizedTestSuiteInfoIN12_GLOBAL__N_127CaesarDec_CustomDictCommandEE17InstantiationInfoEEEbRKNS_11__wrap_iterIT_EESD_, symObjAddr: 0x1B0194, symBinAddr: 0x1001B1980, symSize: 0x0 }
  - { offset: 0x631E4, size: 0x8, addend: 0x0, symName: __ZNSt3__13getB8ne190107ILm3EJNS_12basic_stringIcNS_11char_traitsIcEENS_9allocatorIcEEEENS_6vectorIS6_NS4_IS6_EEEES6_S6_EEERKNS_13tuple_elementIXT_ENS_5tupleIJDpT0_EEEE4typeERKSE_, symObjAddr: 0x1B4038, symBinAddr: 0x1001B5824, symSize: 0x0 }
  - { offset: 0x63236, size: 0x8, addend: 0x0, symName: __ZNSt3__114__construct_atB8ne190107IN7testing8internal26ParameterizedTestSuiteInfoIN12_GLOBAL__N_127CaesarDec_CustomDictCommandEE17InstantiationInfoEJNS_12basic_stringIcNS_11char_traitsIcEENS_9allocatorIcEEEERPFNS2_14ParamGeneratorINS_5tupleIJSD_NS_6vectorISD_NSB_ISD_EEEESD_SD_EEEEEvERPFSD_RKNS1_13TestParamInfoISJ_EEERPKcRiEPS7_EEPT_S11_DpOT0_, symObjAddr: 0x1B6A70, symBinAddr: 0x1001B825C, symSize: 0x0 }
  - { offset: 0x632FC, size: 0x8, addend: 0x0, symName: __ZNSt3__112construct_atB8ne190107IN7testing8internal26ParameterizedTestSuiteInfoIN12_GLOBAL__N_127CaesarDec_CustomDictCommandEE17InstantiationInfoEJNS_12basic_stringIcNS_11char_traitsIcEENS_9allocatorIcEEEERPFNS2_14ParamGeneratorINS_5tupleIJSD_NS_6vectorISD_NSB_ISD_EEEESD_SD_EEEEEvERPFSD_RKNS1_13TestParamInfoISJ_EEERPKcRiEPS7_EEPT_S11_DpOT0_, symObjAddr: 0x1B6BE4, symBinAddr: 0x1001B83D0, symSize: 0x0 }
  - { offset: 0x633C1, size: 0x8, addend: 0x0, symName: __ZNSt3__119__allocate_at_leastB8ne190107INS_9allocatorIN7testing8internal26ParameterizedTestSuiteInfoIN12_GLOBAL__N_127CaesarDec_CustomDictCommandEE17InstantiationInfoEEEEENS_19__allocation_resultINS_16allocator_traitsIT_E7pointerEEERSC_m, symObjAddr: 0x1B8FBC, symBinAddr: 0x1001BA7A8, symSize: 0x0 }
  - { offset: 0x63405, size: 0x8, addend: 0x0, symName: __ZNSt3__134__uninitialized_allocator_relocateB8ne190107INS_9allocatorIN7testing8internal26ParameterizedTestSuiteInfoIN12_GLOBAL__N_127CaesarDec_CustomDictCommandEE17InstantiationInfoEEES8_EEvRT_PT0_SD_SD_, symObjAddr: 0x1B9718, symBinAddr: 0x1001BAF04, symSize: 0x0 }
  - { offset: 0x634B1, size: 0x8, addend: 0x0, symName: __ZNSt3__14swapB8ne190107IPN7testing8internal26ParameterizedTestSuiteInfoIN12_GLOBAL__N_127CaesarDec_CustomDictCommandEE17InstantiationInfoEEENS_9enable_ifIXaasr21is_move_constructibleIT_EE5valuesr18is_move_assignableISA_EE5valueEvE4typeERSA_SD_, symObjAddr: 0x1B9C6C, symBinAddr: 0x1001BB458, symSize: 0x0 }
  - { offset: 0x63502, size: 0x8, addend: 0x0, symName: __ZNSt3__122__make_exception_guardB8ne190107INS_29_AllocatorDestroyRangeReverseINS_9allocatorIN7testing8internal26ParameterizedTestSuiteInfoIN12_GLOBAL__N_127CaesarDec_CustomDictCommandEE17InstantiationInfoEEEPS9_EEEENS_28__exception_guard_exceptionsIT_EESE_, symObjAddr: 0x1BA004, symBinAddr: 0x1001BB7F0, symSize: 0x0 }
  - { offset: 0x6353A, size: 0x8, addend: 0x0, symName: __ZNSt3__119__allocator_destroyB8ne190107INS_9allocatorIN7testing8internal26ParameterizedTestSuiteInfoIN12_GLOBAL__N_127CaesarDec_CustomDictCommandEE17InstantiationInfoEEEPS8_SA_EEvRT_T0_T1_, symObjAddr: 0x1BA3C8, symBinAddr: 0x1001BBBB4, symSize: 0x0 }
  - { offset: 0x6359D, size: 0x8, addend: 0x0, symName: __ZNSt3__114__construct_atB8ne190107IN7testing8internal26ParameterizedTestSuiteInfoIN12_GLOBAL__N_127CaesarDec_CustomDictCommandEE17InstantiationInfoEJS7_EPS7_EEPT_SA_DpOT0_, symObjAddr: 0x1BA840, symBinAddr: 0x1001BC02C, symSize: 0x0 }
  - { offset: 0x635F0, size: 0x8, addend: 0x0, symName: __ZNSt3__112construct_atB8ne190107IN7testing8internal26ParameterizedTestSuiteInfoIN12_GLOBAL__N_127CaesarDec_CustomDictCommandEE17InstantiationInfoEJS7_EPS7_EEPT_SA_DpOT0_, symObjAddr: 0x1BA8B4, symBinAddr: 0x1001BC0A0, symSize: 0x0 }
  - { offset: 0x63663, size: 0x8, addend: 0x0, symName: __ZNSt3__119__allocator_destroyB8ne190107INS_9allocatorIN7testing8internal26ParameterizedTestSuiteInfoIN12_GLOBAL__N_127CaesarDec_CustomDictCommandEE17InstantiationInfoEEENS_16reverse_iteratorIPS8_EESC_EEvRT_T0_T1_, symObjAddr: 0x1BAF8C, symBinAddr: 0x1001BC778, symSize: 0x0 }
  - { offset: 0x636CF, size: 0x8, addend: 0x0, symName: __ZNSt3__1neB8ne190107IPN7testing8internal26ParameterizedTestSuiteInfoIN12_GLOBAL__N_127CaesarDec_CustomDictCommandEE17InstantiationInfoES8_EEbRKNS_16reverse_iteratorIT_EERKNS9_IT0_EEQrqXnecldtfp_4baseEcldtfp0_4baseERNS_14convertible_toIbEEE, symObjAddr: 0x1BB244, symBinAddr: 0x1001BCA30, symSize: 0x0 }
  - { offset: 0x6371B, size: 0x8, addend: 0x0, symName: __ZNSt3__112__to_addressB8ne190107INS_16reverse_iteratorIPN7testing8internal26ParameterizedTestSuiteInfoIN12_GLOBAL__N_127CaesarDec_CustomDictCommandEE17InstantiationInfoEEETnNS_9enable_ifIXsr4_AndINS_8is_classIT_EENS_15_IsFancyPointerISD_EEEE5valueEiE4typeELi0EEEu7__decayIDTclsr19__to_address_helperISD_EE6__callclsr3stdE7declvalIRKSD_EEEEESK_, symObjAddr: 0x1BB2DC, symBinAddr: 0x1001BCAC8, symSize: 0x0 }
  - { offset: 0x63782, size: 0x8, addend: 0x0, symName: __ZNSt3__14prevB8ne190107IPN7testing8internal26ParameterizedTestSuiteInfoIN12_GLOBAL__N_127CaesarDec_CustomDictCommandEE17InstantiationInfoETnNS_9enable_ifIXsr29__has_input_iterator_categoryIT_EE5valueEiE4typeELi0EEESA_SA_NS_15iterator_traitsISA_E15difference_typeE, symObjAddr: 0x1BB67C, symBinAddr: 0x1001BCE68, symSize: 0x0 }
  - { offset: 0x637D2, size: 0x8, addend: 0x0, symName: __ZNSt3__19__advanceB8ne190107IPN7testing8internal26ParameterizedTestSuiteInfoIN12_GLOBAL__N_127CaesarDec_CustomDictCommandEE17InstantiationInfoEEEvRT_NS_15iterator_traitsIS9_E15difference_typeENS_26random_access_iterator_tagE, symObjAddr: 0x1BB8E8, symBinAddr: 0x1001BD0D4, symSize: 0x0 }
  - { offset: 0x6381D, size: 0x8, addend: 0x0, symName: __ZNSt3__112__to_addressB8ne190107IN7testing8internal26ParameterizedTestSuiteInfoIN12_GLOBAL__N_129CaesarDec_FullDictMainCommandEE17InstantiationInfoEEEPT_S9_, symObjAddr: 0x1C0B60, symBinAddr: 0x1001C234C, symSize: 0x0 }
  - { offset: 0x63853, size: 0x8, addend: 0x0, symName: __ZNSt3__112__destroy_atB8ne190107IN7testing8internal26ParameterizedTestSuiteInfoIN12_GLOBAL__N_129CaesarDec_FullDictMainCommandEE17InstantiationInfoETnNS_9enable_ifIXntsr8is_arrayIT_EE5valueEiE4typeELi0EEEvPS9_, symObjAddr: 0x1C0B7C, symBinAddr: 0x1001C2368, symSize: 0x0 }
  - { offset: 0x6388C, size: 0x8, addend: 0x0, symName: __ZNSt3__131__annotate_contiguous_containerB8ne190107INS_9allocatorIN7testing8internal26ParameterizedTestSuiteInfoIN12_GLOBAL__N_129CaesarDec_FullDictMainCommandEE17InstantiationInfoEEEEEvPKvSB_SB_SB_, symObjAddr: 0x1C0F74, symBinAddr: 0x1001C2760, symSize: 0x0 }
  - { offset: 0x638E7, size: 0x8, addend: 0x0, symName: __ZNSt3__1eqB8ne190107IPNS_10shared_ptrIN7testing8internal26ParameterizedTestSuiteInfoIN12_GLOBAL__N_129CaesarDec_FullDictMainCommandEE8TestInfoEEEEEbRKNS_11__wrap_iterIT_EESF_, symObjAddr: 0x1C1EB4, symBinAddr: 0x1001C36A0, symSize: 0x0 }
  - { offset: 0x6392A, size: 0x8, addend: 0x0, symName: __ZNSt3__1eqB8ne190107IPN7testing8internal26ParameterizedTestSuiteInfoIN12_GLOBAL__N_129CaesarDec_FullDictMainCommandEE17InstantiationInfoEEEbRKNS_11__wrap_iterIT_EESD_, symObjAddr: 0x1C2174, symBinAddr: 0x1001C3960, symSize: 0x0 }
  - { offset: 0x6396D, size: 0x8, addend: 0x0, symName: __ZNSt3__13getB8ne190107ILm2EJNS_12basic_stringIcNS_11char_traitsIcEENS_9allocatorIcEEEES6_S6_EEERKNS_13tuple_elementIXT_ENS_5tupleIJDpT0_EEEE4typeERKSB_, symObjAddr: 0x1C6018, symBinAddr: 0x1001C7804, symSize: 0x0 }
  - { offset: 0x639BA, size: 0x8, addend: 0x0, symName: __ZNSt3__114__construct_atB8ne190107IN7testing8internal26ParameterizedTestSuiteInfoIN12_GLOBAL__N_129CaesarDec_FullDictMainCommandEE17InstantiationInfoEJNS_12basic_stringIcNS_11char_traitsIcEENS_9allocatorIcEEEERPFNS2_14ParamGeneratorINS_5tupleIJSD_SD_SD_EEEEEvERPFSD_RKNS1_13TestParamInfoISG_EEERPKcRiEPS7_EEPT_SY_DpOT0_, symObjAddr: 0x1C8890, symBinAddr: 0x1001CA07C, symSize: 0x0 }
  - { offset: 0x63A80, size: 0x8, addend: 0x0, symName: __ZNSt3__112construct_atB8ne190107IN7testing8internal26ParameterizedTestSuiteInfoIN12_GLOBAL__N_129CaesarDec_FullDictMainCommandEE17InstantiationInfoEJNS_12basic_stringIcNS_11char_traitsIcEENS_9allocatorIcEEEERPFNS2_14ParamGeneratorINS_5tupleIJSD_SD_SD_EEEEEvERPFSD_RKNS1_13TestParamInfoISG_EEERPKcRiEPS7_EEPT_SY_DpOT0_, symObjAddr: 0x1C8A04, symBinAddr: 0x1001CA1F0, symSize: 0x0 }
  - { offset: 0x63B45, size: 0x8, addend: 0x0, symName: __ZNSt3__119__allocate_at_leastB8ne190107INS_9allocatorIN7testing8internal26ParameterizedTestSuiteInfoIN12_GLOBAL__N_129CaesarDec_FullDictMainCommandEE17InstantiationInfoEEEEENS_19__allocation_resultINS_16allocator_traitsIT_E7pointerEEERSC_m, symObjAddr: 0x1CADDC, symBinAddr: 0x1001CC5C8, symSize: 0x0 }
  - { offset: 0x63B89, size: 0x8, addend: 0x0, symName: __ZNSt3__134__uninitialized_allocator_relocateB8ne190107INS_9allocatorIN7testing8internal26ParameterizedTestSuiteInfoIN12_GLOBAL__N_129CaesarDec_FullDictMainCommandEE17InstantiationInfoEEES8_EEvRT_PT0_SD_SD_, symObjAddr: 0x1CB538, symBinAddr: 0x1001CCD24, symSize: 0x0 }
  - { offset: 0x63C35, size: 0x8, addend: 0x0, symName: __ZNSt3__14swapB8ne190107IPN7testing8internal26ParameterizedTestSuiteInfoIN12_GLOBAL__N_129CaesarDec_FullDictMainCommandEE17InstantiationInfoEEENS_9enable_ifIXaasr21is_move_constructibleIT_EE5valuesr18is_move_assignableISA_EE5valueEvE4typeERSA_SD_, symObjAddr: 0x1CBA8C, symBinAddr: 0x1001CD278, symSize: 0x0 }
  - { offset: 0x63C86, size: 0x8, addend: 0x0, symName: __ZNSt3__122__make_exception_guardB8ne190107INS_29_AllocatorDestroyRangeReverseINS_9allocatorIN7testing8internal26ParameterizedTestSuiteInfoIN12_GLOBAL__N_129CaesarDec_FullDictMainCommandEE17InstantiationInfoEEEPS9_EEEENS_28__exception_guard_exceptionsIT_EESE_, symObjAddr: 0x1CBE24, symBinAddr: 0x1001CD610, symSize: 0x0 }
  - { offset: 0x63CBE, size: 0x8, addend: 0x0, symName: __ZNSt3__119__allocator_destroyB8ne190107INS_9allocatorIN7testing8internal26ParameterizedTestSuiteInfoIN12_GLOBAL__N_129CaesarDec_FullDictMainCommandEE17InstantiationInfoEEEPS8_SA_EEvRT_T0_T1_, symObjAddr: 0x1CC1E8, symBinAddr: 0x1001CD9D4, symSize: 0x0 }
  - { offset: 0x63D21, size: 0x8, addend: 0x0, symName: __ZNSt3__114__construct_atB8ne190107IN7testing8internal26ParameterizedTestSuiteInfoIN12_GLOBAL__N_129CaesarDec_FullDictMainCommandEE17InstantiationInfoEJS7_EPS7_EEPT_SA_DpOT0_, symObjAddr: 0x1CC660, symBinAddr: 0x1001CDE4C, symSize: 0x0 }
  - { offset: 0x63D74, size: 0x8, addend: 0x0, symName: __ZNSt3__112construct_atB8ne190107IN7testing8internal26ParameterizedTestSuiteInfoIN12_GLOBAL__N_129CaesarDec_FullDictMainCommandEE17InstantiationInfoEJS7_EPS7_EEPT_SA_DpOT0_, symObjAddr: 0x1CC6D4, symBinAddr: 0x1001CDEC0, symSize: 0x0 }
  - { offset: 0x63DE7, size: 0x8, addend: 0x0, symName: __ZNSt3__119__allocator_destroyB8ne190107INS_9allocatorIN7testing8internal26ParameterizedTestSuiteInfoIN12_GLOBAL__N_129CaesarDec_FullDictMainCommandEE17InstantiationInfoEEENS_16reverse_iteratorIPS8_EESC_EEvRT_T0_T1_, symObjAddr: 0x1CCDAC, symBinAddr: 0x1001CE598, symSize: 0x0 }
  - { offset: 0x63E53, size: 0x8, addend: 0x0, symName: __ZNSt3__1neB8ne190107IPN7testing8internal26ParameterizedTestSuiteInfoIN12_GLOBAL__N_129CaesarDec_FullDictMainCommandEE17InstantiationInfoES8_EEbRKNS_16reverse_iteratorIT_EERKNS9_IT0_EEQrqXnecldtfp_4baseEcldtfp0_4baseERNS_14convertible_toIbEEE, symObjAddr: 0x1CD064, symBinAddr: 0x1001CE850, symSize: 0x0 }
  - { offset: 0x63E9F, size: 0x8, addend: 0x0, symName: __ZNSt3__112__to_addressB8ne190107INS_16reverse_iteratorIPN7testing8internal26ParameterizedTestSuiteInfoIN12_GLOBAL__N_129CaesarDec_FullDictMainCommandEE17InstantiationInfoEEETnNS_9enable_ifIXsr4_AndINS_8is_classIT_EENS_15_IsFancyPointerISD_EEEE5valueEiE4typeELi0EEEu7__decayIDTclsr19__to_address_helperISD_EE6__callclsr3stdE7declvalIRKSD_EEEEESK_, symObjAddr: 0x1CD0FC, symBinAddr: 0x1001CE8E8, symSize: 0x0 }
  - { offset: 0x63F06, size: 0x8, addend: 0x0, symName: __ZNSt3__14prevB8ne190107IPN7testing8internal26ParameterizedTestSuiteInfoIN12_GLOBAL__N_129CaesarDec_FullDictMainCommandEE17InstantiationInfoETnNS_9enable_ifIXsr29__has_input_iterator_categoryIT_EE5valueEiE4typeELi0EEESA_SA_NS_15iterator_traitsISA_E15difference_typeE, symObjAddr: 0x1CD49C, symBinAddr: 0x1001CEC88, symSize: 0x0 }
  - { offset: 0x63F56, size: 0x8, addend: 0x0, symName: __ZNSt3__19__advanceB8ne190107IPN7testing8internal26ParameterizedTestSuiteInfoIN12_GLOBAL__N_129CaesarDec_FullDictMainCommandEE17InstantiationInfoEEEvRT_NS_15iterator_traitsIS9_E15difference_typeENS_26random_access_iterator_tagE, symObjAddr: 0x1CD708, symBinAddr: 0x1001CEEF4, symSize: 0x0 }
  - { offset: 0x65C0C, size: 0x8, addend: 0x0, symName: __ZSt28__throw_bad_array_new_lengthB8ne190107v, symObjAddr: 0x37C6C, symBinAddr: 0x100039458, symSize: 0x0 }
  - { offset: 0x663D1, size: 0x8, addend: 0x0, symName: _.str.4, symObjAddr: 0x1D8780, symBinAddr: 0x10032C840, symSize: 0x0 }
  - { offset: 0x6640B, size: 0x8, addend: 0x0, symName: _.str.6, symObjAddr: 0x1D87A0, symBinAddr: 0x10032C860, symSize: 0x0 }
  - { offset: 0x66505, size: 0x8, addend: 0x0, symName: _.str.9, symObjAddr: 0x1D87C0, symBinAddr: 0x10032C880, symSize: 0x0 }
  - { offset: 0x66522, size: 0x8, addend: 0x0, symName: _.str.10, symObjAddr: 0x1EE2A0, symBinAddr: 0x10034E4C0, symSize: 0x0 }
  - { offset: 0x66775, size: 0x8, addend: 0x0, symName: _.str.13, symObjAddr: 0x1D8860, symBinAddr: 0x10032C920, symSize: 0x0 }
  - { offset: 0x66812, size: 0x8, addend: 0x0, symName: _.str.16, symObjAddr: 0x1D8920, symBinAddr: 0x10032C9E0, symSize: 0x0 }
  - { offset: 0x668C0, size: 0x8, addend: 0x0, symName: _.str.19, symObjAddr: 0x1D89E0, symBinAddr: 0x10032CAA0, symSize: 0x0 }
  - { offset: 0x668DD, size: 0x8, addend: 0x0, symName: _.str.21, symObjAddr: 0x1D8AA0, symBinAddr: 0x10032CB60, symSize: 0x0 }
  - { offset: 0x66DBD, size: 0x8, addend: 0x0, symName: _.str.24, symObjAddr: 0x1D8AE0, symBinAddr: 0x10032CBA0, symSize: 0x0 }
  - { offset: 0x66E39, size: 0x8, addend: 0x0, symName: _.str.27, symObjAddr: 0x1D8BA0, symBinAddr: 0x10032CC60, symSize: 0x0 }
  - { offset: 0x66E56, size: 0x8, addend: 0x0, symName: _.str.31, symObjAddr: 0x1D8D60, symBinAddr: 0x10032CE20, symSize: 0x0 }
  - { offset: 0x66E69, size: 0x8, addend: 0x0, symName: _.str.35, symObjAddr: 0x1D8D80, symBinAddr: 0x10032CE40, symSize: 0x0 }
  - { offset: 0x66E88, size: 0x8, addend: 0x0, symName: _.str.36, symObjAddr: 0x1D8DA0, symBinAddr: 0x10032CE60, symSize: 0x0 }
  - { offset: 0x66EA7, size: 0x8, addend: 0x0, symName: _.str.37, symObjAddr: 0x1D8DC0, symBinAddr: 0x10032CE80, symSize: 0x0 }
  - { offset: 0x66EBA, size: 0x8, addend: 0x0, symName: _.str.38, symObjAddr: 0x1D8DE0, symBinAddr: 0x10032CEA0, symSize: 0x0 }
  - { offset: 0x66ED9, size: 0x8, addend: 0x0, symName: _.str.39, symObjAddr: 0x1D8E80, symBinAddr: 0x10032CF40, symSize: 0x0 }
  - { offset: 0x66EF6, size: 0x8, addend: 0x0, symName: _.str.40, symObjAddr: 0x1D8EA0, symBinAddr: 0x10032CF60, symSize: 0x0 }
  - { offset: 0x66F07, size: 0x8, addend: 0x0, symName: _.str.41, symObjAddr: 0x1D8EC0, symBinAddr: 0x10032CF80, symSize: 0x0 }
  - { offset: 0x66F18, size: 0x8, addend: 0x0, symName: _.str.43, symObjAddr: 0x1D8EE0, symBinAddr: 0x10032CFA0, symSize: 0x0 }
  - { offset: 0x66F35, size: 0x8, addend: 0x0, symName: _.str.44, symObjAddr: 0x1D8F00, symBinAddr: 0x10032CFC0, symSize: 0x0 }
  - { offset: 0x66F46, size: 0x8, addend: 0x0, symName: _.str.45, symObjAddr: 0x1D8F20, symBinAddr: 0x10032CFE0, symSize: 0x0 }
  - { offset: 0x67056, size: 0x8, addend: 0x0, symName: __ZN7testing8internal11MatcherBaseIRKNSt3__16vectorINS2_12basic_stringIcNS2_11char_traitsIcEENS2_9allocatorIcEEEENS7_IS9_EEEEE9GetVTableINSE_11ValuePolicyIPKNS_16MatcherInterfaceISD_EELb1EEEEEPKNSE_6VTableEv, symObjAddr: 0x1F408, symBinAddr: 0x100020BF4, symSize: 0x5C }
  - { offset: 0x6707B, size: 0x8, addend: 0x0, symName: __ZZN7testing8internal11MatcherBaseIRKNSt3__16vectorINS2_12basic_stringIcNS2_11char_traitsIcEENS2_9allocatorIcEEEENS7_IS9_EEEEE9GetVTableINSE_11ValuePolicyIPKNS_16MatcherInterfaceISD_EELb1EEEEEPKNSE_6VTableEvE7kVTable, symObjAddr: 0x30E1E8, symBinAddr: 0x1004EA328, symSize: 0x0 }
  - { offset: 0x670A8, size: 0x8, addend: 0x0, symName: _.str.52, symObjAddr: 0x1D8F40, symBinAddr: 0x10032D000, symSize: 0x0 }
  - { offset: 0x670C7, size: 0x8, addend: 0x0, symName: _.str.62, symObjAddr: 0x1D8FA0, symBinAddr: 0x10032D060, symSize: 0x0 }
  - { offset: 0x670D8, size: 0x8, addend: 0x0, symName: _.str.64, symObjAddr: 0x1D8FC0, symBinAddr: 0x10032D080, symSize: 0x0 }
  - { offset: 0x670F5, size: 0x8, addend: 0x0, symName: _.str.68, symObjAddr: 0x1D8FE0, symBinAddr: 0x10032D0A0, symSize: 0x0 }
  - { offset: 0x67114, size: 0x8, addend: 0x0, symName: _.str.70, symObjAddr: 0x1D9000, symBinAddr: 0x10032D0C0, symSize: 0x0 }
  - { offset: 0x67127, size: 0x8, addend: 0x0, symName: _.str.72, symObjAddr: 0x1D9020, symBinAddr: 0x10032D0E0, symSize: 0x0 }
  - { offset: 0x67138, size: 0x8, addend: 0x0, symName: _.str.78, symObjAddr: 0x1D9120, symBinAddr: 0x10032D1E0, symSize: 0x0 }
  - { offset: 0x67149, size: 0x8, addend: 0x0, symName: _.str.79, symObjAddr: 0x1D9140, symBinAddr: 0x10032D200, symSize: 0x0 }
  - { offset: 0x67166, size: 0x8, addend: 0x0, symName: _.str.80, symObjAddr: 0x1D9160, symBinAddr: 0x10032D220, symSize: 0x0 }
  - { offset: 0x67183, size: 0x8, addend: 0x0, symName: _.str.81, symObjAddr: 0x1D91E0, symBinAddr: 0x10032D2A0, symSize: 0x0 }
  - { offset: 0x67196, size: 0x8, addend: 0x0, symName: _.str.87, symObjAddr: 0x1D9200, symBinAddr: 0x10032D2C0, symSize: 0x0 }
  - { offset: 0x67247, size: 0x8, addend: 0x0, symName: __ZN7testing8internal11MatcherBaseIRKPNSt3__112basic_stringIcNS2_11char_traitsIcEENS2_9allocatorIcEEEEE9GetVTableINSC_11ValuePolicyINS0_9EqMatcherIS9_EELb1EEEEEPKNSC_6VTableEv, symObjAddr: 0x3DAA8, symBinAddr: 0x10003F294, symSize: 0x5C }
  - { offset: 0x6726C, size: 0x8, addend: 0x0, symName: __ZZN7testing8internal11MatcherBaseIRKPNSt3__112basic_stringIcNS2_11char_traitsIcEENS2_9allocatorIcEEEEE9GetVTableINSC_11ValuePolicyINS0_9EqMatcherIS9_EELb1EEEEEPKNSC_6VTableEvE7kVTable, symObjAddr: 0x30E480, symBinAddr: 0x1004EA5A0, symSize: 0x0 }
  - { offset: 0x67296, size: 0x8, addend: 0x0, symName: _.str.98, symObjAddr: 0x1D9220, symBinAddr: 0x10032D2E0, symSize: 0x0 }
  - { offset: 0x672A9, size: 0x8, addend: 0x0, symName: _.str.99, symObjAddr: 0x1D9240, symBinAddr: 0x10032D300, symSize: 0x0 }
  - { offset: 0x672BA, size: 0x8, addend: 0x0, symName: _.str.100, symObjAddr: 0x1D9260, symBinAddr: 0x10032D320, symSize: 0x0 }
  - { offset: 0x672CD, size: 0x8, addend: 0x0, symName: _.str.101, symObjAddr: 0x1D9280, symBinAddr: 0x10032D340, symSize: 0x0 }
  - { offset: 0x672E5, size: 0x8, addend: 0x0, symName: _.str.108, symObjAddr: 0x1D92A0, symBinAddr: 0x10032D360, symSize: 0x0 }
  - { offset: 0x67304, size: 0x8, addend: 0x0, symName: _.str.109, symObjAddr: 0x1D92E0, symBinAddr: 0x10032D3A0, symSize: 0x0 }
  - { offset: 0x67317, size: 0x8, addend: 0x0, symName: _.str.110, symObjAddr: 0x1D9300, symBinAddr: 0x10032D3C0, symSize: 0x0 }
  - { offset: 0x6732A, size: 0x8, addend: 0x0, symName: _.str.111, symObjAddr: 0x1D9320, symBinAddr: 0x10032D3E0, symSize: 0x0 }
  - { offset: 0x67349, size: 0x8, addend: 0x0, symName: _.str.112, symObjAddr: 0x1D9340, symBinAddr: 0x10032D400, symSize: 0x0 }
  - { offset: 0x6735C, size: 0x8, addend: 0x0, symName: _.str.113, symObjAddr: 0x1D9360, symBinAddr: 0x10032D420, symSize: 0x0 }
  - { offset: 0x6736F, size: 0x8, addend: 0x0, symName: _.str.114, symObjAddr: 0x1D9380, symBinAddr: 0x10032D440, symSize: 0x0 }
  - { offset: 0x67380, size: 0x8, addend: 0x0, symName: _.str.115, symObjAddr: 0x1D93A0, symBinAddr: 0x10032D460, symSize: 0x0 }
  - { offset: 0x67393, size: 0x8, addend: 0x0, symName: _.str.116, symObjAddr: 0x1D93C0, symBinAddr: 0x10032D480, symSize: 0x0 }
  - { offset: 0x673A6, size: 0x8, addend: 0x0, symName: _.str.117, symObjAddr: 0x1D93E0, symBinAddr: 0x10032D4A0, symSize: 0x0 }
  - { offset: 0x673B9, size: 0x8, addend: 0x0, symName: _.str.118, symObjAddr: 0x1D9400, symBinAddr: 0x10032D4C0, symSize: 0x0 }
  - { offset: 0x673CC, size: 0x8, addend: 0x0, symName: _.str.119, symObjAddr: 0x1D9420, symBinAddr: 0x10032D4E0, symSize: 0x0 }
  - { offset: 0x673DF, size: 0x8, addend: 0x0, symName: _.str.120, symObjAddr: 0x1D9440, symBinAddr: 0x10032D500, symSize: 0x0 }
  - { offset: 0x673F2, size: 0x8, addend: 0x0, symName: _.str.121, symObjAddr: 0x1D9460, symBinAddr: 0x10032D520, symSize: 0x0 }
  - { offset: 0x67405, size: 0x8, addend: 0x0, symName: _.str.122, symObjAddr: 0x1D9480, symBinAddr: 0x10032D540, symSize: 0x0 }
  - { offset: 0x67416, size: 0x8, addend: 0x0, symName: _.str.123, symObjAddr: 0x1D9580, symBinAddr: 0x10032D640, symSize: 0x0 }
  - { offset: 0x67427, size: 0x8, addend: 0x0, symName: _.str.124, symObjAddr: 0x1D95A0, symBinAddr: 0x10032D660, symSize: 0x0 }
  - { offset: 0x67438, size: 0x8, addend: 0x0, symName: _.str.125, symObjAddr: 0x1D95C0, symBinAddr: 0x10032D680, symSize: 0x0 }
  - { offset: 0x67449, size: 0x8, addend: 0x0, symName: _.str.126, symObjAddr: 0x1D95E0, symBinAddr: 0x10032D6A0, symSize: 0x0 }
  - { offset: 0x6745A, size: 0x8, addend: 0x0, symName: _.str.127, symObjAddr: 0x1D9600, symBinAddr: 0x10032D6C0, symSize: 0x0 }
  - { offset: 0x67471, size: 0x8, addend: 0x0, symName: _.str.130, symObjAddr: 0x1D9A40, symBinAddr: 0x10032DB00, symSize: 0x0 }
  - { offset: 0x67484, size: 0x8, addend: 0x0, symName: _.str.131, symObjAddr: 0x1D9A60, symBinAddr: 0x10032DB20, symSize: 0x0 }
  - { offset: 0x674A3, size: 0x8, addend: 0x0, symName: _.str.132, symObjAddr: 0x1D9AC0, symBinAddr: 0x10032DB80, symSize: 0x0 }
  - { offset: 0x674C2, size: 0x8, addend: 0x0, symName: _.str.133, symObjAddr: 0x1D9B40, symBinAddr: 0x10032DC00, symSize: 0x0 }
  - { offset: 0x674E1, size: 0x8, addend: 0x0, symName: _.str.134, symObjAddr: 0x1D9BA0, symBinAddr: 0x10032DC60, symSize: 0x0 }
  - { offset: 0x67500, size: 0x8, addend: 0x0, symName: _.str.135, symObjAddr: 0x1D9BC0, symBinAddr: 0x10032DC80, symSize: 0x0 }
  - { offset: 0x67513, size: 0x8, addend: 0x0, symName: _.str.136, symObjAddr: 0x1D9BE0, symBinAddr: 0x10032DCA0, symSize: 0x0 }
  - { offset: 0x67526, size: 0x8, addend: 0x0, symName: _.str.137, symObjAddr: 0x1D9C00, symBinAddr: 0x10032DCC0, symSize: 0x0 }
  - { offset: 0x675C6, size: 0x8, addend: 0x0, symName: __ZN7testing8internal11MatcherBaseIRKNSt3__112basic_stringIcNS2_11char_traitsIcEENS2_9allocatorIcEEEEE9GetVTableINSB_11ValuePolicyIPKNS_16MatcherInterfaceISA_EELb1EEEEEPKNSB_6VTableEv, symObjAddr: 0x6F618, symBinAddr: 0x100070E04, symSize: 0x5C }
  - { offset: 0x675EB, size: 0x8, addend: 0x0, symName: __ZZN7testing8internal11MatcherBaseIRKNSt3__112basic_stringIcNS2_11char_traitsIcEENS2_9allocatorIcEEEEE9GetVTableINSB_11ValuePolicyIPKNS_16MatcherInterfaceISA_EELb1EEEEEPKNSB_6VTableEvE7kVTable, symObjAddr: 0x30ED20, symBinAddr: 0x1004EADE0, symSize: 0x0 }
  - { offset: 0x67613, size: 0x8, addend: 0x0, symName: _.str.138, symObjAddr: 0x1D9C40, symBinAddr: 0x10032DD00, symSize: 0x0 }
  - { offset: 0x67624, size: 0x8, addend: 0x0, symName: _.str.139, symObjAddr: 0x1D9C80, symBinAddr: 0x10032DD40, symSize: 0x0 }
  - { offset: 0x67641, size: 0x8, addend: 0x0, symName: _.str.140, symObjAddr: 0x1D9CC0, symBinAddr: 0x10032DD80, symSize: 0x0 }
  - { offset: 0x67652, size: 0x8, addend: 0x0, symName: _.str.141, symObjAddr: 0x1D9CE0, symBinAddr: 0x10032DDA0, symSize: 0x0 }
  - { offset: 0x67665, size: 0x8, addend: 0x0, symName: _.str.143, symObjAddr: 0x1D9D00, symBinAddr: 0x10032DDC0, symSize: 0x0 }
  - { offset: 0x67684, size: 0x8, addend: 0x0, symName: _.str.144, symObjAddr: 0x1D9D60, symBinAddr: 0x10032DE20, symSize: 0x0 }
  - { offset: 0x676A3, size: 0x8, addend: 0x0, symName: _.str.145, symObjAddr: 0x1D9DC0, symBinAddr: 0x10032DE80, symSize: 0x0 }
  - { offset: 0x676B6, size: 0x8, addend: 0x0, symName: _.str.146, symObjAddr: 0x1D9E00, symBinAddr: 0x10032DEC0, symSize: 0x0 }
  - { offset: 0x676D9, size: 0x8, addend: 0x0, symName: _.str.147, symObjAddr: 0x1DA2C0, symBinAddr: 0x10032E380, symSize: 0x0 }
  - { offset: 0x676EA, size: 0x8, addend: 0x0, symName: _.str.148, symObjAddr: 0x1DA300, symBinAddr: 0x10032E3C0, symSize: 0x0 }
  - { offset: 0x676FB, size: 0x8, addend: 0x0, symName: _.str.149, symObjAddr: 0x1DA320, symBinAddr: 0x10032E3E0, symSize: 0x0 }
  - { offset: 0x6770C, size: 0x8, addend: 0x0, symName: _.str.150, symObjAddr: 0x1DA340, symBinAddr: 0x10032E400, symSize: 0x0 }
  - { offset: 0x6771D, size: 0x8, addend: 0x0, symName: _.str.151, symObjAddr: 0x1DA360, symBinAddr: 0x10032E420, symSize: 0x0 }
  - { offset: 0x6772E, size: 0x8, addend: 0x0, symName: _.str.152, symObjAddr: 0x1DA380, symBinAddr: 0x10032E440, symSize: 0x0 }
  - { offset: 0x6773F, size: 0x8, addend: 0x0, symName: _.str.153, symObjAddr: 0x1DA3A0, symBinAddr: 0x10032E460, symSize: 0x0 }
  - { offset: 0x67750, size: 0x8, addend: 0x0, symName: _.str.154, symObjAddr: 0x1DA3C0, symBinAddr: 0x10032E480, symSize: 0x0 }
  - { offset: 0x67761, size: 0x8, addend: 0x0, symName: _.str.155, symObjAddr: 0x1DA3E0, symBinAddr: 0x10032E4A0, symSize: 0x0 }
  - { offset: 0x67772, size: 0x8, addend: 0x0, symName: _.str.156, symObjAddr: 0x1DA400, symBinAddr: 0x10032E4C0, symSize: 0x0 }
  - { offset: 0x6778F, size: 0x8, addend: 0x0, symName: _.str.157, symObjAddr: 0x1DA440, symBinAddr: 0x10032E500, symSize: 0x0 }
  - { offset: 0x677A0, size: 0x8, addend: 0x0, symName: _.str.158, symObjAddr: 0x1DA460, symBinAddr: 0x10032E520, symSize: 0x0 }
  - { offset: 0x677B1, size: 0x8, addend: 0x0, symName: _.str.159, symObjAddr: 0x1DA480, symBinAddr: 0x10032E540, symSize: 0x0 }
  - { offset: 0x677C2, size: 0x8, addend: 0x0, symName: _.str.160, symObjAddr: 0x1DA4A0, symBinAddr: 0x10032E560, symSize: 0x0 }
  - { offset: 0x677D3, size: 0x8, addend: 0x0, symName: _.str.161, symObjAddr: 0x1DA4C0, symBinAddr: 0x10032E580, symSize: 0x0 }
  - { offset: 0x677E4, size: 0x8, addend: 0x0, symName: _.str.162, symObjAddr: 0x1DA4E0, symBinAddr: 0x10032E5A0, symSize: 0x0 }
  - { offset: 0x67801, size: 0x8, addend: 0x0, symName: _.str.163, symObjAddr: 0x1DA520, symBinAddr: 0x10032E5E0, symSize: 0x0 }
  - { offset: 0x67812, size: 0x8, addend: 0x0, symName: _.str.164, symObjAddr: 0x1DA540, symBinAddr: 0x10032E600, symSize: 0x0 }
  - { offset: 0x67829, size: 0x8, addend: 0x0, symName: _.str.165, symObjAddr: 0x1DA9A0, symBinAddr: 0x10032EA60, symSize: 0x0 }
  - { offset: 0x6783A, size: 0x8, addend: 0x0, symName: _.str.166, symObjAddr: 0x1DA9E0, symBinAddr: 0x10032EAA0, symSize: 0x0 }
  - { offset: 0x6784B, size: 0x8, addend: 0x0, symName: _.str.167, symObjAddr: 0x1DAA00, symBinAddr: 0x10032EAC0, symSize: 0x0 }
  - { offset: 0x6785C, size: 0x8, addend: 0x0, symName: _.str.168, symObjAddr: 0x1DAA20, symBinAddr: 0x10032EAE0, symSize: 0x0 }
  - { offset: 0x6786D, size: 0x8, addend: 0x0, symName: _.str.169, symObjAddr: 0x1DAA40, symBinAddr: 0x10032EB00, symSize: 0x0 }
  - { offset: 0x6787E, size: 0x8, addend: 0x0, symName: _.str.170, symObjAddr: 0x1DAA60, symBinAddr: 0x10032EB20, symSize: 0x0 }
  - { offset: 0x6788F, size: 0x8, addend: 0x0, symName: _.str.171, symObjAddr: 0x1DAA80, symBinAddr: 0x10032EB40, symSize: 0x0 }
  - { offset: 0x678A0, size: 0x8, addend: 0x0, symName: _.str.172, symObjAddr: 0x1DAAA0, symBinAddr: 0x10032EB60, symSize: 0x0 }
  - { offset: 0x678B1, size: 0x8, addend: 0x0, symName: _.str.173, symObjAddr: 0x1DAAC0, symBinAddr: 0x10032EB80, symSize: 0x0 }
  - { offset: 0x678C2, size: 0x8, addend: 0x0, symName: _.str.174, symObjAddr: 0x1DAAE0, symBinAddr: 0x10032EBA0, symSize: 0x0 }
  - { offset: 0x678D9, size: 0x8, addend: 0x0, symName: _.str.175, symObjAddr: 0x1DAF40, symBinAddr: 0x10032F000, symSize: 0x0 }
  - { offset: 0x67979, size: 0x8, addend: 0x0, symName: __ZN7testing8internal11MatcherBaseIRKiE9GetVTableINS4_11ValuePolicyINS0_9EqMatcherIiEELb1EEEEEPKNS4_6VTableEv, symObjAddr: 0xDD238, symBinAddr: 0x1000DEA24, symSize: 0x5C }
  - { offset: 0x6799E, size: 0x8, addend: 0x0, symName: __ZZN7testing8internal11MatcherBaseIRKiE9GetVTableINS4_11ValuePolicyINS0_9EqMatcherIiEELb1EEEEEPKNS4_6VTableEvE7kVTable, symObjAddr: 0x310280, symBinAddr: 0x1004EC340, symSize: 0x0 }
  - { offset: 0x679C6, size: 0x8, addend: 0x0, symName: _.str.176, symObjAddr: 0x1DAF80, symBinAddr: 0x10032F040, symSize: 0x0 }
  - { offset: 0x679D7, size: 0x8, addend: 0x0, symName: _.str.177, symObjAddr: 0x1DAFA0, symBinAddr: 0x10032F060, symSize: 0x0 }
  - { offset: 0x679E8, size: 0x8, addend: 0x0, symName: _.str.178, symObjAddr: 0x1DAFC0, symBinAddr: 0x10032F080, symSize: 0x0 }
  - { offset: 0x679F9, size: 0x8, addend: 0x0, symName: _.str.179, symObjAddr: 0x1DAFE0, symBinAddr: 0x10032F0A0, symSize: 0x0 }
  - { offset: 0x67A0A, size: 0x8, addend: 0x0, symName: _.str.180, symObjAddr: 0x1DB000, symBinAddr: 0x10032F0C0, symSize: 0x0 }
  - { offset: 0x67A1B, size: 0x8, addend: 0x0, symName: _.str.181, symObjAddr: 0x1DB020, symBinAddr: 0x10032F0E0, symSize: 0x0 }
  - { offset: 0x67A2C, size: 0x8, addend: 0x0, symName: _.str.182, symObjAddr: 0x1DB040, symBinAddr: 0x10032F100, symSize: 0x0 }
  - { offset: 0x67A3D, size: 0x8, addend: 0x0, symName: _.str.183, symObjAddr: 0x1DB060, symBinAddr: 0x10032F120, symSize: 0x0 }
  - { offset: 0x67A4E, size: 0x8, addend: 0x0, symName: _.str.184, symObjAddr: 0x1DB080, symBinAddr: 0x10032F140, symSize: 0x0 }
  - { offset: 0x67A65, size: 0x8, addend: 0x0, symName: _.str.186, symObjAddr: 0x1DB520, symBinAddr: 0x10032F5E0, symSize: 0x0 }
  - { offset: 0x67A76, size: 0x8, addend: 0x0, symName: _.str.187, symObjAddr: 0x1DB540, symBinAddr: 0x10032F600, symSize: 0x0 }
  - { offset: 0x67A93, size: 0x8, addend: 0x0, symName: _.str.188, symObjAddr: 0x1DB5A0, symBinAddr: 0x10032F660, symSize: 0x0 }
  - { offset: 0x67AB0, size: 0x8, addend: 0x0, symName: _.str.189, symObjAddr: 0x1DB600, symBinAddr: 0x10032F6C0, symSize: 0x0 }
  - { offset: 0x67AC1, size: 0x8, addend: 0x0, symName: _.str.190, symObjAddr: 0x1DB640, symBinAddr: 0x10032F700, symSize: 0x0 }
  - { offset: 0x67AE0, size: 0x8, addend: 0x0, symName: _.str.191, symObjAddr: 0x1DB6A0, symBinAddr: 0x10032F760, symSize: 0x0 }
  - { offset: 0x67AF3, size: 0x8, addend: 0x0, symName: _.str.192, symObjAddr: 0x1DB6C0, symBinAddr: 0x10032F780, symSize: 0x0 }
  - { offset: 0x67B10, size: 0x8, addend: 0x0, symName: _.str.193, symObjAddr: 0x1DB700, symBinAddr: 0x10032F7C0, symSize: 0x0 }
  - { offset: 0x67B21, size: 0x8, addend: 0x0, symName: _.str.194, symObjAddr: 0x1DB720, symBinAddr: 0x10032F7E0, symSize: 0x0 }
  - { offset: 0x67B32, size: 0x8, addend: 0x0, symName: _.str.195, symObjAddr: 0x1DB740, symBinAddr: 0x10032F800, symSize: 0x0 }
  - { offset: 0x67B43, size: 0x8, addend: 0x0, symName: _.str.196, symObjAddr: 0x1DB760, symBinAddr: 0x10032F820, symSize: 0x0 }
  - { offset: 0x67B54, size: 0x8, addend: 0x0, symName: _.str.197, symObjAddr: 0x1DB780, symBinAddr: 0x10032F840, symSize: 0x0 }
  - { offset: 0x67B65, size: 0x8, addend: 0x0, symName: _.str.198, symObjAddr: 0x1DB7C0, symBinAddr: 0x10032F880, symSize: 0x0 }
  - { offset: 0x67B76, size: 0x8, addend: 0x0, symName: _.str.199, symObjAddr: 0x1DB7E0, symBinAddr: 0x10032F8A0, symSize: 0x0 }
  - { offset: 0x67B87, size: 0x8, addend: 0x0, symName: _.str.200, symObjAddr: 0x1DB800, symBinAddr: 0x10032F8C0, symSize: 0x0 }
  - { offset: 0x67B98, size: 0x8, addend: 0x0, symName: _.str.201, symObjAddr: 0x1DB820, symBinAddr: 0x10032F8E0, symSize: 0x0 }
  - { offset: 0x67BA9, size: 0x8, addend: 0x0, symName: _.str.202, symObjAddr: 0x1DB840, symBinAddr: 0x10032F900, symSize: 0x0 }
  - { offset: 0x67BBA, size: 0x8, addend: 0x0, symName: _.str.203, symObjAddr: 0x1DB860, symBinAddr: 0x10032F920, symSize: 0x0 }
  - { offset: 0x67BCB, size: 0x8, addend: 0x0, symName: _.str.204, symObjAddr: 0x1DB880, symBinAddr: 0x10032F940, symSize: 0x0 }
  - { offset: 0x67BE8, size: 0x8, addend: 0x0, symName: _.str.205, symObjAddr: 0x1DB8C0, symBinAddr: 0x10032F980, symSize: 0x0 }
  - { offset: 0x67BF9, size: 0x8, addend: 0x0, symName: _.str.206, symObjAddr: 0x1DB8E0, symBinAddr: 0x10032F9A0, symSize: 0x0 }
  - { offset: 0x67C0A, size: 0x8, addend: 0x0, symName: _.str.207, symObjAddr: 0x1DB900, symBinAddr: 0x10032F9C0, symSize: 0x0 }
  - { offset: 0x67C1B, size: 0x8, addend: 0x0, symName: _.str.208, symObjAddr: 0x1DB920, symBinAddr: 0x10032F9E0, symSize: 0x0 }
  - { offset: 0x67C2C, size: 0x8, addend: 0x0, symName: _.str.209, symObjAddr: 0x1DB940, symBinAddr: 0x10032FA00, symSize: 0x0 }
  - { offset: 0x67C3D, size: 0x8, addend: 0x0, symName: _.str.210, symObjAddr: 0x1DB980, symBinAddr: 0x10032FA40, symSize: 0x0 }
  - { offset: 0x67C4E, size: 0x8, addend: 0x0, symName: _.str.211, symObjAddr: 0x1DB9A0, symBinAddr: 0x10032FA60, symSize: 0x0 }
  - { offset: 0x67C5F, size: 0x8, addend: 0x0, symName: _.str.212, symObjAddr: 0x1DB9C0, symBinAddr: 0x10032FA80, symSize: 0x0 }
  - { offset: 0x67C70, size: 0x8, addend: 0x0, symName: _.str.213, symObjAddr: 0x1DB9E0, symBinAddr: 0x10032FAA0, symSize: 0x0 }
  - { offset: 0x67C81, size: 0x8, addend: 0x0, symName: _.str.214, symObjAddr: 0x1DBA00, symBinAddr: 0x10032FAC0, symSize: 0x0 }
  - { offset: 0x67C92, size: 0x8, addend: 0x0, symName: _.str.215, symObjAddr: 0x1DBA40, symBinAddr: 0x10032FB00, symSize: 0x0 }
  - { offset: 0x67CA3, size: 0x8, addend: 0x0, symName: _.str.216, symObjAddr: 0x1DBA60, symBinAddr: 0x10032FB20, symSize: 0x0 }
  - { offset: 0x67CB4, size: 0x8, addend: 0x0, symName: _.str.217, symObjAddr: 0x1DBA80, symBinAddr: 0x10032FB40, symSize: 0x0 }
  - { offset: 0x67CC5, size: 0x8, addend: 0x0, symName: _.str.218, symObjAddr: 0x1DBAA0, symBinAddr: 0x10032FB60, symSize: 0x0 }
  - { offset: 0x67CD6, size: 0x8, addend: 0x0, symName: _.str.219, symObjAddr: 0x1DBAC0, symBinAddr: 0x10032FB80, symSize: 0x0 }
  - { offset: 0x67CE7, size: 0x8, addend: 0x0, symName: _.str.220, symObjAddr: 0x1DBB00, symBinAddr: 0x10032FBC0, symSize: 0x0 }
  - { offset: 0x67CF8, size: 0x8, addend: 0x0, symName: _.str.221, symObjAddr: 0x1DBB20, symBinAddr: 0x10032FBE0, symSize: 0x0 }
  - { offset: 0x67D09, size: 0x8, addend: 0x0, symName: _.str.222, symObjAddr: 0x1DBB40, symBinAddr: 0x10032FC00, symSize: 0x0 }
  - { offset: 0x67D1A, size: 0x8, addend: 0x0, symName: _.str.223, symObjAddr: 0x1DBB60, symBinAddr: 0x10032FC20, symSize: 0x0 }
  - { offset: 0x67D2B, size: 0x8, addend: 0x0, symName: _.str.224, symObjAddr: 0x1DBBA0, symBinAddr: 0x10032FC60, symSize: 0x0 }
  - { offset: 0x67D3C, size: 0x8, addend: 0x0, symName: _.str.225, symObjAddr: 0x1DBBC0, symBinAddr: 0x10032FC80, symSize: 0x0 }
  - { offset: 0x67D4D, size: 0x8, addend: 0x0, symName: _.str.226, symObjAddr: 0x1DBBE0, symBinAddr: 0x10032FCA0, symSize: 0x0 }
  - { offset: 0x67D5E, size: 0x8, addend: 0x0, symName: _.str.227, symObjAddr: 0x1DBC20, symBinAddr: 0x10032FCE0, symSize: 0x0 }
  - { offset: 0x67D7D, size: 0x8, addend: 0x0, symName: _.str.228, symObjAddr: 0x1DBE20, symBinAddr: 0x10032FEE0, symSize: 0x0 }
  - { offset: 0x67D8E, size: 0x8, addend: 0x0, symName: _.str.229, symObjAddr: 0x1DBE40, symBinAddr: 0x10032FF00, symSize: 0x0 }
  - { offset: 0x67D9F, size: 0x8, addend: 0x0, symName: _.str.230, symObjAddr: 0x1DBE60, symBinAddr: 0x10032FF20, symSize: 0x0 }
  - { offset: 0x67DB0, size: 0x8, addend: 0x0, symName: _.str.231, symObjAddr: 0x1DBE80, symBinAddr: 0x10032FF40, symSize: 0x0 }
  - { offset: 0x67DC1, size: 0x8, addend: 0x0, symName: _.str.232, symObjAddr: 0x1DBEA0, symBinAddr: 0x10032FF60, symSize: 0x0 }
  - { offset: 0x67DD2, size: 0x8, addend: 0x0, symName: _.str.233, symObjAddr: 0x1DBEC0, symBinAddr: 0x10032FF80, symSize: 0x0 }
  - { offset: 0x67DE3, size: 0x8, addend: 0x0, symName: _.str.234, symObjAddr: 0x1DBEE0, symBinAddr: 0x10032FFA0, symSize: 0x0 }
  - { offset: 0x67DF4, size: 0x8, addend: 0x0, symName: _.str.235, symObjAddr: 0x1DBF00, symBinAddr: 0x10032FFC0, symSize: 0x0 }
  - { offset: 0x67E05, size: 0x8, addend: 0x0, symName: _.str.236, symObjAddr: 0x1DBF20, symBinAddr: 0x10032FFE0, symSize: 0x0 }
  - { offset: 0x67E16, size: 0x8, addend: 0x0, symName: _.str.237, symObjAddr: 0x1DBF40, symBinAddr: 0x100330000, symSize: 0x0 }
  - { offset: 0x67E27, size: 0x8, addend: 0x0, symName: _.str.238, symObjAddr: 0x1DBF60, symBinAddr: 0x100330020, symSize: 0x0 }
  - { offset: 0x67E38, size: 0x8, addend: 0x0, symName: _.str.239, symObjAddr: 0x1DBF80, symBinAddr: 0x100330040, symSize: 0x0 }
  - { offset: 0x67E49, size: 0x8, addend: 0x0, symName: _.str.240, symObjAddr: 0x1DBFA0, symBinAddr: 0x100330060, symSize: 0x0 }
  - { offset: 0x67E5A, size: 0x8, addend: 0x0, symName: _.str.241, symObjAddr: 0x1DBFC0, symBinAddr: 0x100330080, symSize: 0x0 }
  - { offset: 0x67E6B, size: 0x8, addend: 0x0, symName: _.str.242, symObjAddr: 0x1DBFE0, symBinAddr: 0x1003300A0, symSize: 0x0 }
  - { offset: 0x67E7C, size: 0x8, addend: 0x0, symName: _.str.243, symObjAddr: 0x1DC000, symBinAddr: 0x1003300C0, symSize: 0x0 }
  - { offset: 0x67E8D, size: 0x8, addend: 0x0, symName: _.str.244, symObjAddr: 0x1DC020, symBinAddr: 0x1003300E0, symSize: 0x0 }
  - { offset: 0x67E9E, size: 0x8, addend: 0x0, symName: _.str.245, symObjAddr: 0x1DC040, symBinAddr: 0x100330100, symSize: 0x0 }
  - { offset: 0x67EAF, size: 0x8, addend: 0x0, symName: _.str.246, symObjAddr: 0x1DC060, symBinAddr: 0x100330120, symSize: 0x0 }
  - { offset: 0x67EC0, size: 0x8, addend: 0x0, symName: _.str.247, symObjAddr: 0x1DC080, symBinAddr: 0x100330140, symSize: 0x0 }
  - { offset: 0x67ED1, size: 0x8, addend: 0x0, symName: _.str.248, symObjAddr: 0x1DC0A0, symBinAddr: 0x100330160, symSize: 0x0 }
  - { offset: 0x67EE2, size: 0x8, addend: 0x0, symName: _.str.249, symObjAddr: 0x1DC0C0, symBinAddr: 0x100330180, symSize: 0x0 }
  - { offset: 0x67EF3, size: 0x8, addend: 0x0, symName: _.str.250, symObjAddr: 0x1DC0E0, symBinAddr: 0x1003301A0, symSize: 0x0 }
  - { offset: 0x67F04, size: 0x8, addend: 0x0, symName: _.str.251, symObjAddr: 0x1DC100, symBinAddr: 0x1003301C0, symSize: 0x0 }
  - { offset: 0x67F15, size: 0x8, addend: 0x0, symName: _.str.252, symObjAddr: 0x1DC120, symBinAddr: 0x1003301E0, symSize: 0x0 }
  - { offset: 0x67F26, size: 0x8, addend: 0x0, symName: _.str.253, symObjAddr: 0x1DC140, symBinAddr: 0x100330200, symSize: 0x0 }
  - { offset: 0x67F37, size: 0x8, addend: 0x0, symName: _.str.254, symObjAddr: 0x1DC160, symBinAddr: 0x100330220, symSize: 0x0 }
  - { offset: 0x67F48, size: 0x8, addend: 0x0, symName: _.str.255, symObjAddr: 0x1DC180, symBinAddr: 0x100330240, symSize: 0x0 }
  - { offset: 0x67F59, size: 0x8, addend: 0x0, symName: _.str.256, symObjAddr: 0x1DC1A0, symBinAddr: 0x100330260, symSize: 0x0 }
  - { offset: 0x67F6A, size: 0x8, addend: 0x0, symName: _.str.257, symObjAddr: 0x1DC1C0, symBinAddr: 0x100330280, symSize: 0x0 }
  - { offset: 0x67F7B, size: 0x8, addend: 0x0, symName: _.str.258, symObjAddr: 0x1DC1E0, symBinAddr: 0x1003302A0, symSize: 0x0 }
  - { offset: 0x67F8C, size: 0x8, addend: 0x0, symName: _.str.259, symObjAddr: 0x1DC200, symBinAddr: 0x1003302C0, symSize: 0x0 }
  - { offset: 0x67F9D, size: 0x8, addend: 0x0, symName: _.str.260, symObjAddr: 0x1DC220, symBinAddr: 0x1003302E0, symSize: 0x0 }
  - { offset: 0x67FAE, size: 0x8, addend: 0x0, symName: _.str.261, symObjAddr: 0x1DC240, symBinAddr: 0x100330300, symSize: 0x0 }
  - { offset: 0x67FBF, size: 0x8, addend: 0x0, symName: _.str.262, symObjAddr: 0x1DC440, symBinAddr: 0x100330500, symSize: 0x0 }
  - { offset: 0x67FD6, size: 0x8, addend: 0x0, symName: _.str.263, symObjAddr: 0x1DC8E0, symBinAddr: 0x1003309A0, symSize: 0x0 }
  - { offset: 0x67FE7, size: 0x8, addend: 0x0, symName: _.str.264, symObjAddr: 0x1DC900, symBinAddr: 0x1003309C0, symSize: 0x0 }
  - { offset: 0x67FFA, size: 0x8, addend: 0x0, symName: _.str.265, symObjAddr: 0x1DC920, symBinAddr: 0x1003309E0, symSize: 0x0 }
  - { offset: 0x68019, size: 0x8, addend: 0x0, symName: _.str.266, symObjAddr: 0x1DC9A0, symBinAddr: 0x100330A60, symSize: 0x0 }
  - { offset: 0x6802C, size: 0x8, addend: 0x0, symName: _.str.267, symObjAddr: 0x1DC9E0, symBinAddr: 0x100330AA0, symSize: 0x0 }
  - { offset: 0x6803F, size: 0x8, addend: 0x0, symName: _.str.268, symObjAddr: 0x1DCA00, symBinAddr: 0x100330AC0, symSize: 0x0 }
  - { offset: 0x68052, size: 0x8, addend: 0x0, symName: _.str.269, symObjAddr: 0x1DCA20, symBinAddr: 0x100330AE0, symSize: 0x0 }
  - { offset: 0x68071, size: 0x8, addend: 0x0, symName: _.str.270, symObjAddr: 0x1DCA60, symBinAddr: 0x100330B20, symSize: 0x0 }
  - { offset: 0x68090, size: 0x8, addend: 0x0, symName: _.str.271, symObjAddr: 0x1DCAC0, symBinAddr: 0x100330B80, symSize: 0x0 }
  - { offset: 0x680A3, size: 0x8, addend: 0x0, symName: _.str.272, symObjAddr: 0x1DCB20, symBinAddr: 0x100330BE0, symSize: 0x0 }
  - { offset: 0x680B6, size: 0x8, addend: 0x0, symName: _.str.273, symObjAddr: 0x1DCB40, symBinAddr: 0x100330C00, symSize: 0x0 }
  - { offset: 0x680C9, size: 0x8, addend: 0x0, symName: _.str.274, symObjAddr: 0x1DCB60, symBinAddr: 0x100330C20, symSize: 0x0 }
  - { offset: 0x680DC, size: 0x8, addend: 0x0, symName: _.str.275, symObjAddr: 0x1DCB80, symBinAddr: 0x100330C40, symSize: 0x0 }
  - { offset: 0x680FB, size: 0x8, addend: 0x0, symName: _.str.276, symObjAddr: 0x1DCBE0, symBinAddr: 0x100330CA0, symSize: 0x0 }
  - { offset: 0x6811A, size: 0x8, addend: 0x0, symName: _.str.277, symObjAddr: 0x1DCC80, symBinAddr: 0x100330D40, symSize: 0x0 }
  - { offset: 0x6812D, size: 0x8, addend: 0x0, symName: _.str.278, symObjAddr: 0x1DCCA0, symBinAddr: 0x100330D60, symSize: 0x0 }
  - { offset: 0x6814C, size: 0x8, addend: 0x0, symName: _.str.282, symObjAddr: 0x1DCD40, symBinAddr: 0x100330E00, symSize: 0x0 }
  - { offset: 0x6815F, size: 0x8, addend: 0x0, symName: _.str.283, symObjAddr: 0x1DCD60, symBinAddr: 0x100330E20, symSize: 0x0 }
  - { offset: 0x6817E, size: 0x8, addend: 0x0, symName: _.str.284, symObjAddr: 0x1DCDC0, symBinAddr: 0x100330E80, symSize: 0x0 }
  - { offset: 0x68191, size: 0x8, addend: 0x0, symName: _.str.285, symObjAddr: 0x1DCE00, symBinAddr: 0x100330EC0, symSize: 0x0 }
  - { offset: 0x681B0, size: 0x8, addend: 0x0, symName: _.str.286, symObjAddr: 0x1DCEA0, symBinAddr: 0x100330F60, symSize: 0x0 }
  - { offset: 0x681C3, size: 0x8, addend: 0x0, symName: _.str.287, symObjAddr: 0x1DCEC0, symBinAddr: 0x100330F80, symSize: 0x0 }
  - { offset: 0x681E2, size: 0x8, addend: 0x0, symName: _.str.288, symObjAddr: 0x1DCF20, symBinAddr: 0x100330FE0, symSize: 0x0 }
  - { offset: 0x681F5, size: 0x8, addend: 0x0, symName: _.str.289, symObjAddr: 0x1DCF80, symBinAddr: 0x100331040, symSize: 0x0 }
  - { offset: 0x68208, size: 0x8, addend: 0x0, symName: _.str.290, symObjAddr: 0x1DCFA0, symBinAddr: 0x100331060, symSize: 0x0 }
  - { offset: 0x6821B, size: 0x8, addend: 0x0, symName: _.str.296, symObjAddr: 0x1DCFC0, symBinAddr: 0x100331080, symSize: 0x0 }
  - { offset: 0x6CB77, size: 0x8, addend: 0x0, symName: __ZNSt3__112basic_stringIcNS_11char_traitsIcEENS_9allocatorIcEEEC1B8ne190107ILi0EEEPKc, symObjAddr: 0x0, symBinAddr: 0x1000017EC, symSize: 0x6C }
  - { offset: 0x6CBB7, size: 0x8, addend: 0x0, symName: __ZN7testing8internal12CodeLocationC1ENSt3__112basic_stringIcNS2_11char_traitsIcEENS2_9allocatorIcEEEEi, symObjAddr: 0x6C, symBinAddr: 0x100001858, symSize: 0x78 }
  - { offset: 0x6CC08, size: 0x8, addend: 0x0, symName: __ZN7testing8internal16SuiteApiResolverINS_4TestEE19GetSetUpCaseOrSuiteEPKci, symObjAddr: 0xEC, symBinAddr: 0x1000018D8, symSize: 0x0 }
  - { offset: 0x6CC5D, size: 0x8, addend: 0x0, symName: __ZN7testing8internal16SuiteApiResolverINS_4TestEE22GetTearDownCaseOrSuiteEPKci, symObjAddr: 0x5F0, symBinAddr: 0x100001DDC, symSize: 0x0 }
  - { offset: 0x6CCB8, size: 0x8, addend: 0x0, symName: __ZN7testing8internal15TestFactoryImplIN12_GLOBAL__N_127CaesarDec_RotVec_Empty_TestEEC1Ev, symObjAddr: 0xAEC, symBinAddr: 0x1000022D8, symSize: 0x64 }
  - { offset: 0x6CCE5, size: 0x8, addend: 0x0, symName: __ZN7testing8internal12CodeLocationD1Ev, symObjAddr: 0xB50, symBinAddr: 0x10000233C, symSize: 0x64 }
  - { offset: 0x6CD18, size: 0x8, addend: 0x0, symName: __ZN7testing8internal15TestFactoryImplIN12_GLOBAL__N_129CaesarDec_RotVec_OneElem_TestEEC1Ev, symObjAddr: 0xBB4, symBinAddr: 0x1000023A0, symSize: 0x64 }
  - { offset: 0x6CD4B, size: 0x8, addend: 0x0, symName: __ZN7testing8internal15TestFactoryImplIN12_GLOBAL__N_135CaesarDec_RotVec_MultipleElems_TestEEC1Ev, symObjAddr: 0xC18, symBinAddr: 0x100002404, symSize: 0x64 }
  - { offset: 0x6CD78, size: 0x8, addend: 0x0, symName: __ZN12_GLOBAL__N_125CaesarDec_Clean_Case_Test13AddToRegistryEv, symObjAddr: 0xC84, symBinAddr: 0x100002470, symSize: 0x0 }
  - { offset: 0x6CE6C, size: 0x8, addend: 0x0, symName: __ZN7testing8internal30ParameterizedTestSuiteRegistry25GetTestSuitePatternHolderIN12_GLOBAL__N_115CaesarDec_CleanEEEPNS0_26ParameterizedTestSuiteInfoIT_EENSt3__112basic_stringIcNS9_11char_traitsIcEENS9_9allocatorIcEEEENS0_12CodeLocationE, symObjAddr: 0x12BC, symBinAddr: 0x100002AA8, symSize: 0xA94 }
  - { offset: 0x6CEFF, size: 0x8, addend: 0x0, symName: __ZN7testing8internal26ParameterizedTestSuiteInfoIN12_GLOBAL__N_115CaesarDec_CleanEE25AddTestSuiteInstantiationENSt3__112basic_stringIcNS5_11char_traitsIcEENS5_9allocatorIcEEEEPFNS0_14ParamGeneratorINS5_5tupleIJSB_SB_EEEEEvEPFSB_RKNS_13TestParamInfoISE_EEEPKci, symObjAddr: 0x1D50, symBinAddr: 0x10000353C, symSize: 0x390 }
  - { offset: 0x6CF84, size: 0x8, addend: 0x0, symName: __ZN12_GLOBAL__N_131CaesarDec_SplitSpaces_Case_Test13AddToRegistryEv, symObjAddr: 0x2698, symBinAddr: 0x100003E84, symSize: 0x0 }
  - { offset: 0x6CF98, size: 0x8, addend: 0x0, symName: __ZN7testing8internal30ParameterizedTestSuiteRegistry25GetTestSuitePatternHolderIN12_GLOBAL__N_121CaesarDec_SplitSpacesEEEPNS0_26ParameterizedTestSuiteInfoIT_EENSt3__112basic_stringIcNS9_11char_traitsIcEENS9_9allocatorIcEEEENS0_12CodeLocationE, symObjAddr: 0x2CD0, symBinAddr: 0x1000044BC, symSize: 0xA94 }
  - { offset: 0x6D02B, size: 0x8, addend: 0x0, symName: __ZN7testing8internal26ParameterizedTestSuiteInfoIN12_GLOBAL__N_121CaesarDec_SplitSpacesEE25AddTestSuiteInstantiationENSt3__112basic_stringIcNS5_11char_traitsIcEENS5_9allocatorIcEEEEPFNS0_14ParamGeneratorINS5_5tupleIJSB_NS5_6vectorISB_NS9_ISB_EEEEEEEEEvEPFSB_RKNS_13TestParamInfoISH_EEEPKci, symObjAddr: 0x3764, symBinAddr: 0x100004F50, symSize: 0x390 }
  - { offset: 0x6D0B0, size: 0x8, addend: 0x0, symName: __ZN12_GLOBAL__N_134CaesarDec_JoinWithSpaces_Case_Test13AddToRegistryEv, symObjAddr: 0x6870, symBinAddr: 0x10000805C, symSize: 0x0 }
  - { offset: 0x6D0C4, size: 0x8, addend: 0x0, symName: __ZN7testing8internal30ParameterizedTestSuiteRegistry25GetTestSuitePatternHolderIN12_GLOBAL__N_124CaesarDec_JoinWithSpacesEEEPNS0_26ParameterizedTestSuiteInfoIT_EENSt3__112basic_stringIcNS9_11char_traitsIcEENS9_9allocatorIcEEEENS0_12CodeLocationE, symObjAddr: 0x6EA8, symBinAddr: 0x100008694, symSize: 0xA94 }
  - { offset: 0x6D157, size: 0x8, addend: 0x0, symName: __ZN7testing8internal26ParameterizedTestSuiteInfoIN12_GLOBAL__N_124CaesarDec_JoinWithSpacesEE25AddTestSuiteInstantiationENSt3__112basic_stringIcNS5_11char_traitsIcEENS5_9allocatorIcEEEEPFNS0_14ParamGeneratorINS5_5tupleIJNS5_6vectorISB_NS9_ISB_EEEESB_EEEEEvEPFSB_RKNS_13TestParamInfoISH_EEEPKci, symObjAddr: 0x793C, symBinAddr: 0x100009128, symSize: 0x390 }
  - { offset: 0x6D1DC, size: 0x8, addend: 0x0, symName: __ZN12_GLOBAL__N_130CaesarDec_NumWordsIn_Case_Test13AddToRegistryEv, symObjAddr: 0x9884, symBinAddr: 0x10000B070, symSize: 0x0 }
  - { offset: 0x6D1F0, size: 0x8, addend: 0x0, symName: __ZN7testing8internal30ParameterizedTestSuiteRegistry25GetTestSuitePatternHolderIN12_GLOBAL__N_120CaesarDec_NumWordsInEEEPNS0_26ParameterizedTestSuiteInfoIT_EENSt3__112basic_stringIcNS9_11char_traitsIcEENS9_9allocatorIcEEEENS0_12CodeLocationE, symObjAddr: 0x9EBC, symBinAddr: 0x10000B6A8, symSize: 0xA94 }
  - { offset: 0x6D283, size: 0x8, addend: 0x0, symName: __ZN7testing8internal26ParameterizedTestSuiteInfoIN12_GLOBAL__N_120CaesarDec_NumWordsInEE25AddTestSuiteInstantiationENSt3__112basic_stringIcNS5_11char_traitsIcEENS5_9allocatorIcEEEEPFNS0_14ParamGeneratorINS5_5tupleIJNS5_6vectorISB_NS9_ISB_EEEESG_iEEEEEvEPFSB_RKNS_13TestParamInfoISH_EEEPKci, symObjAddr: 0xA950, symBinAddr: 0x10000C13C, symSize: 0x390 }
  - { offset: 0x6D308, size: 0x8, addend: 0x0, symName: __ZN12_GLOBAL__N_137CaesarDec_CustomDictCommand_Case_Test13AddToRegistryEv, symObjAddr: 0xE420, symBinAddr: 0x10000FC0C, symSize: 0x0 }
  - { offset: 0x6D31C, size: 0x8, addend: 0x0, symName: __ZN7testing8internal30ParameterizedTestSuiteRegistry25GetTestSuitePatternHolderIN12_GLOBAL__N_127CaesarDec_CustomDictCommandEEEPNS0_26ParameterizedTestSuiteInfoIT_EENSt3__112basic_stringIcNS9_11char_traitsIcEENS9_9allocatorIcEEEENS0_12CodeLocationE, symObjAddr: 0xEA58, symBinAddr: 0x100010244, symSize: 0xA94 }
  - { offset: 0x6D3AF, size: 0x8, addend: 0x0, symName: __ZN7testing8internal26ParameterizedTestSuiteInfoIN12_GLOBAL__N_127CaesarDec_CustomDictCommandEE25AddTestSuiteInstantiationENSt3__112basic_stringIcNS5_11char_traitsIcEENS5_9allocatorIcEEEEPFNS0_14ParamGeneratorINS5_5tupleIJSB_NS5_6vectorISB_NS9_ISB_EEEESB_SB_EEEEEvEPFSB_RKNS_13TestParamInfoISH_EEEPKci, symObjAddr: 0xF4EC, symBinAddr: 0x100010CD8, symSize: 0x390 }
  - { offset: 0x6D434, size: 0x8, addend: 0x0, symName: __ZN12_GLOBAL__N_139CaesarDec_FullDictMainCommand_Case_Test13AddToRegistryEv, symObjAddr: 0x14C58, symBinAddr: 0x100016444, symSize: 0x0 }
  - { offset: 0x6D448, size: 0x8, addend: 0x0, symName: __ZN7testing8internal30ParameterizedTestSuiteRegistry25GetTestSuitePatternHolderIN12_GLOBAL__N_129CaesarDec_FullDictMainCommandEEEPNS0_26ParameterizedTestSuiteInfoIT_EENSt3__112basic_stringIcNS9_11char_traitsIcEENS9_9allocatorIcEEEENS0_12CodeLocationE, symObjAddr: 0x15290, symBinAddr: 0x100016A7C, symSize: 0xA94 }
  - { offset: 0x6D4DB, size: 0x8, addend: 0x0, symName: __ZN7testing8internal26ParameterizedTestSuiteInfoIN12_GLOBAL__N_129CaesarDec_FullDictMainCommandEE25AddTestSuiteInstantiationENSt3__112basic_stringIcNS5_11char_traitsIcEENS5_9allocatorIcEEEEPFNS0_14ParamGeneratorINS5_5tupleIJSB_SB_SB_EEEEEvEPFSB_RKNS_13TestParamInfoISE_EEEPKci, symObjAddr: 0x15D24, symBinAddr: 0x100017510, symSize: 0x390 }
  - { offset: 0x6D560, size: 0x8, addend: 0x0, symName: __ZNSt3__112basic_stringIcNS_11char_traitsIcEENS_9allocatorIcEEEC2B8ne190107ILi0EEEPKc, symObjAddr: 0x16BC4, symBinAddr: 0x1000183B0, symSize: 0x244 }
  - { offset: 0x6D5A8, size: 0x8, addend: 0x0, symName: __ZNSt3__117__compressed_pairINS_12basic_stringIcNS_11char_traitsIcEENS_9allocatorIcEEE5__repES5_EC1B8ne190107INS_18__default_init_tagESA_EEOT_OT0_, symObjAddr: 0x16E08, symBinAddr: 0x1000185F4, symSize: 0x74 }
  - { offset: 0x6D600, size: 0x8, addend: 0x0, symName: __ZNSt3__111char_traitsIcE6lengthB8ne190107EPKc, symObjAddr: 0x16E84, symBinAddr: 0x100018670, symSize: 0x0 }
  - { offset: 0x6D623, size: 0x8, addend: 0x0, symName: __ZNSt3__117__compressed_pairINS_12basic_stringIcNS_11char_traitsIcEENS_9allocatorIcEEE5__repES5_EC2B8ne190107INS_18__default_init_tagESA_EEOT_OT0_, symObjAddr: 0x16EA8, symBinAddr: 0x100018694, symSize: 0xC8 }
  - { offset: 0x6D67B, size: 0x8, addend: 0x0, symName: __ZNSt3__122__compressed_pair_elemINS_12basic_stringIcNS_11char_traitsIcEENS_9allocatorIcEEE5__repELi0ELb0EEC2B8ne190107ENS_18__default_init_tagE, symObjAddr: 0x16F70, symBinAddr: 0x10001875C, symSize: 0x5C }
  - { offset: 0x6D6B0, size: 0x8, addend: 0x0, symName: __ZNSt3__122__compressed_pair_elemINS_9allocatorIcEELi1ELb1EEC2B8ne190107ENS_18__default_init_tagE, symObjAddr: 0x16FCC, symBinAddr: 0x1000187B8, symSize: 0x70 }
  - { offset: 0x6D6E5, size: 0x8, addend: 0x0, symName: __ZNSt3__19allocatorIcEC2B8ne190107Ev, symObjAddr: 0x1703C, symBinAddr: 0x100018828, symSize: 0x70 }
  - { offset: 0x6D70F, size: 0x8, addend: 0x0, symName: __ZNSt3__116__non_trivial_ifILb1ENS_9allocatorIcEEEC2B8ne190107Ev, symObjAddr: 0x170AC, symBinAddr: 0x100018898, symSize: 0x48 }
  - { offset: 0x6D739, size: 0x8, addend: 0x0, symName: __ZN7testing8internal12CodeLocationC2ENSt3__112basic_stringIcNS2_11char_traitsIcEENS2_9allocatorIcEEEEi, symObjAddr: 0x17120, symBinAddr: 0x10001890C, symSize: 0x128 }
  - { offset: 0x6D782, size: 0x8, addend: 0x0, symName: __ZNSt3__112basic_stringIcNS_11char_traitsIcEENS_9allocatorIcEEEC1B8ne190107EOS5_, symObjAddr: 0x17248, symBinAddr: 0x100018A34, symSize: 0x6C }
  - { offset: 0x6D7BB, size: 0x8, addend: 0x0, symName: __ZNSt3__112basic_stringIcNS_11char_traitsIcEENS_9allocatorIcEEEC2B8ne190107EOS5_, symObjAddr: 0x172B4, symBinAddr: 0x100018AA0, symSize: 0x334 }
  - { offset: 0x6D827, size: 0x8, addend: 0x0, symName: __ZZNSt3__112basic_stringIcNS_11char_traitsIcEENS_9allocatorIcEEEC1B8ne190107EOS5_ENKUlRS5_E_clES7_, symObjAddr: 0x175E8, symBinAddr: 0x100018DD4, symSize: 0xE8 }
  - { offset: 0x6D860, size: 0x8, addend: 0x0, symName: __ZNSt3__117__compressed_pairINS_12basic_stringIcNS_11char_traitsIcEENS_9allocatorIcEEE5__repES5_E5firstB8ne190107Ev, symObjAddr: 0x176E0, symBinAddr: 0x100018ECC, symSize: 0xEC }
  - { offset: 0x6D886, size: 0x8, addend: 0x0, symName: __ZNKSt3__112basic_stringIcNS_11char_traitsIcEENS_9allocatorIcEEE14__annotate_newB8ne190107Em, symObjAddr: 0x177CC, symBinAddr: 0x100018FB8, symSize: 0x58 }
  - { offset: 0x6D8BB, size: 0x8, addend: 0x0, symName: __ZNKSt3__112basic_stringIcNS_11char_traitsIcEENS_9allocatorIcEEE9__is_longB8ne190107Ev, symObjAddr: 0x17824, symBinAddr: 0x100019010, symSize: 0x178 }
  - { offset: 0x6D8E1, size: 0x8, addend: 0x0, symName: __ZNKSt3__112basic_stringIcNS_11char_traitsIcEENS_9allocatorIcEEE4sizeB8ne190107Ev, symObjAddr: 0x1799C, symBinAddr: 0x100019188, symSize: 0x88 }
  - { offset: 0x6D907, size: 0x8, addend: 0x0, symName: __ZNKSt3__112basic_stringIcNS_11char_traitsIcEENS_9allocatorIcEEE17__annotate_deleteB8ne190107Ev, symObjAddr: 0x17A24, symBinAddr: 0x100019210, symSize: 0x54 }
  - { offset: 0x6D92D, size: 0x8, addend: 0x0, symName: __ZNSt3__122__compressed_pair_elemINS_12basic_stringIcNS_11char_traitsIcEENS_9allocatorIcEEE5__repELi0ELb0EE5__getB8ne190107Ev, symObjAddr: 0x17A78, symBinAddr: 0x100019264, symSize: 0x8C }
  - { offset: 0x6D953, size: 0x8, addend: 0x0, symName: __ZNKSt3__117__compressed_pairINS_12basic_stringIcNS_11char_traitsIcEENS_9allocatorIcEEE5__repES5_E5firstB8ne190107Ev, symObjAddr: 0x17B04, symBinAddr: 0x1000192F0, symSize: 0xEC }
  - { offset: 0x6D979, size: 0x8, addend: 0x0, symName: __ZNKSt3__122__compressed_pair_elemINS_12basic_stringIcNS_11char_traitsIcEENS_9allocatorIcEEE5__repELi0ELb0EE5__getB8ne190107Ev, symObjAddr: 0x17BF0, symBinAddr: 0x1000193DC, symSize: 0x8C }
  - { offset: 0x6D99F, size: 0x8, addend: 0x0, symName: __ZNKSt3__112basic_stringIcNS_11char_traitsIcEENS_9allocatorIcEEE15__get_long_sizeB8ne190107Ev, symObjAddr: 0x17C7C, symBinAddr: 0x100019468, symSize: 0x18C }
  - { offset: 0x6D9C5, size: 0x8, addend: 0x0, symName: __ZNKSt3__112basic_stringIcNS_11char_traitsIcEENS_9allocatorIcEEE16__get_short_sizeB8ne190107Ev, symObjAddr: 0x17E08, symBinAddr: 0x1000195F4, symSize: 0x178 }
  - { offset: 0x6D9EB, size: 0x8, addend: 0x0, symName: __ZN7testing8internal15TestFactoryImplIN12_GLOBAL__N_127CaesarDec_RotVec_Empty_TestEEC2Ev, symObjAddr: 0x17F80, symBinAddr: 0x10001976C, symSize: 0xF8 }
  - { offset: 0x6DA18, size: 0x8, addend: 0x0, symName: __ZN7testing8internal15TestFactoryBaseC2Ev, symObjAddr: 0x18078, symBinAddr: 0x100019864, symSize: 0xB4 }
  - { offset: 0x6DA42, size: 0x8, addend: 0x0, symName: __ZN7testing8internal15TestFactoryImplIN12_GLOBAL__N_127CaesarDec_RotVec_Empty_TestEED1Ev, symObjAddr: 0x1812C, symBinAddr: 0x100019918, symSize: 0x64 }
  - { offset: 0x6DA6F, size: 0x8, addend: 0x0, symName: __ZN7testing8internal15TestFactoryImplIN12_GLOBAL__N_127CaesarDec_RotVec_Empty_TestEED0Ev, symObjAddr: 0x18190, symBinAddr: 0x10001997C, symSize: 0x68 }
  - { offset: 0x6DA9C, size: 0x8, addend: 0x0, symName: __ZN7testing8internal15TestFactoryImplIN12_GLOBAL__N_127CaesarDec_RotVec_Empty_TestEE10CreateTestEv, symObjAddr: 0x181F8, symBinAddr: 0x1000199E4, symSize: 0xFC }
  - { offset: 0x6DAC2, size: 0x8, addend: 0x0, symName: __ZN7testing8internal15TestFactoryBaseD1Ev, symObjAddr: 0x182F4, symBinAddr: 0x100019AE0, symSize: 0x54 }
  - { offset: 0x6DAEC, size: 0x8, addend: 0x0, symName: __ZN7testing8internal15TestFactoryBaseD0Ev, symObjAddr: 0x18348, symBinAddr: 0x100019B34, symSize: 0x50 }
  - { offset: 0x6DB16, size: 0x8, addend: 0x0, symName: __ZN7testing8internal15TestFactoryImplIN12_GLOBAL__N_127CaesarDec_RotVec_Empty_TestEED2Ev, symObjAddr: 0x18398, symBinAddr: 0x100019B84, symSize: 0x64 }
  - { offset: 0x6DB43, size: 0x8, addend: 0x0, symName: __ZN7testing8internal15TestFactoryBaseD2Ev, symObjAddr: 0x183FC, symBinAddr: 0x100019BE8, symSize: 0x5C }
  - { offset: 0x6DB6D, size: 0x8, addend: 0x0, symName: __ZN12_GLOBAL__N_127CaesarDec_RotVec_Empty_TestC1Ev, symObjAddr: 0x18458, symBinAddr: 0x100019C44, symSize: 0x64 }
  - { offset: 0x6DB97, size: 0x8, addend: 0x0, symName: __ZN12_GLOBAL__N_127CaesarDec_RotVec_Empty_TestC2Ev, symObjAddr: 0x184BC, symBinAddr: 0x100019CA8, symSize: 0xF8 }
  - { offset: 0x6DBC1, size: 0x8, addend: 0x0, symName: __ZN12_GLOBAL__N_127CaesarDec_RotVec_Empty_TestD1Ev, symObjAddr: 0x185B4, symBinAddr: 0x100019DA0, symSize: 0x64 }
  - { offset: 0x6DBEB, size: 0x8, addend: 0x0, symName: __ZN12_GLOBAL__N_127CaesarDec_RotVec_Empty_TestD0Ev, symObjAddr: 0x18618, symBinAddr: 0x100019E04, symSize: 0x68 }
  - { offset: 0x6DC15, size: 0x8, addend: 0x0, symName: __ZN12_GLOBAL__N_127CaesarDec_RotVec_Empty_Test8TestBodyEv, symObjAddr: 0x18680, symBinAddr: 0x100019E6C, symSize: 0x5A0 }
  - { offset: 0x6DC66, size: 0x8, addend: 0x0, symName: __ZN7testing4Test5SetupEv, symObjAddr: 0x18C20, symBinAddr: 0x10001A40C, symSize: 0x58 }
  - { offset: 0x6DC8C, size: 0x8, addend: 0x0, symName: __ZN12_GLOBAL__N_127CaesarDec_RotVec_Empty_TestD2Ev, symObjAddr: 0x18C78, symBinAddr: 0x10001A464, symSize: 0x64 }
  - { offset: 0x6DCB6, size: 0x8, addend: 0x0, symName: __ZNSt3__16vectorINS_12basic_stringIcNS_11char_traitsIcEENS_9allocatorIcEEEENS4_IS6_EEEC1B8ne190107Ev, symObjAddr: 0x18CDC, symBinAddr: 0x10001A4C8, symSize: 0x64 }
  - { offset: 0x6DF68, size: 0x8, addend: 0x0, symName: __ZNK7testing8internal29PredicateFormatterFromMatcherINS_18PolymorphicMatcherINS0_14IsEmptyMatcherEEEEclINSt3__16vectorINS7_12basic_stringIcNS7_11char_traitsIcEENS7_9allocatorIcEEEENSC_ISE_EEEEEENS_15AssertionResultEPKcRKT_, symObjAddr: 0x190D0, symBinAddr: 0x10001A8BC, symSize: 0xCA0 }
  - { offset: 0x6DFF2, size: 0x8, addend: 0x0, symName: __ZNK7testing15AssertionResultcvbEv, symObjAddr: 0x19D70, symBinAddr: 0x10001B55C, symSize: 0xE8 }
  - { offset: 0x6E018, size: 0x8, addend: 0x0, symName: __ZNK7testing15AssertionResult15failure_messageEv, symObjAddr: 0x19E58, symBinAddr: 0x10001B644, symSize: 0x5C }
  - { offset: 0x6E03E, size: 0x8, addend: 0x0, symName: __ZN7testing7MessageD1Ev, symObjAddr: 0x19EB4, symBinAddr: 0x10001B6A0, symSize: 0x64 }
  - { offset: 0x6E06A, size: 0x8, addend: 0x0, symName: __ZN7testing15AssertionResultD1Ev, symObjAddr: 0x19F18, symBinAddr: 0x10001B704, symSize: 0x64 }
  - { offset: 0x6E096, size: 0x8, addend: 0x0, symName: __ZNSt3__16vectorINS_12basic_stringIcNS_11char_traitsIcEENS_9allocatorIcEEEENS4_IS6_EEED1B8ne190107Ev, symObjAddr: 0x19F7C, symBinAddr: 0x10001B768, symSize: 0x64 }
  - { offset: 0x6E0C0, size: 0x8, addend: 0x0, symName: __ZNSt3__16vectorINS_12basic_stringIcNS_11char_traitsIcEENS_9allocatorIcEEEENS4_IS6_EEEC2B8ne190107Ev, symObjAddr: 0x19FE0, symBinAddr: 0x10001B7CC, symSize: 0x2C4 }
  - { offset: 0x6E0F1, size: 0x8, addend: 0x0, symName: __ZNSt3__117__compressed_pairIPNS_12basic_stringIcNS_11char_traitsIcEENS_9allocatorIcEEEENS4_IS6_EEEC1B8ne190107IDnNS_18__default_init_tagEEEOT_OT0_, symObjAddr: 0x1A2A4, symBinAddr: 0x10001BA90, symSize: 0x74 }
  - { offset: 0x6E149, size: 0x8, addend: 0x0, symName: __ZNSt3__117__compressed_pairIPNS_12basic_stringIcNS_11char_traitsIcEENS_9allocatorIcEEEENS4_IS6_EEEC2B8ne190107IDnNS_18__default_init_tagEEEOT_OT0_, symObjAddr: 0x1A318, symBinAddr: 0x10001BB04, symSize: 0x104 }
  - { offset: 0x6E1A1, size: 0x8, addend: 0x0, symName: __ZNSt3__122__compressed_pair_elemIPNS_12basic_stringIcNS_11char_traitsIcEENS_9allocatorIcEEEELi0ELb0EEC2B8ne190107IDnTnNS_9enable_ifIXntsr7is_sameIS8_u7__decayIT_EEE5valueEiE4typeELi0EEEOSB_, symObjAddr: 0x1A41C, symBinAddr: 0x10001BC08, symSize: 0xAC }
  - { offset: 0x6E1E9, size: 0x8, addend: 0x0, symName: __ZNSt3__122__compressed_pair_elemINS_9allocatorINS_12basic_stringIcNS_11char_traitsIcEENS1_IcEEEEEELi1ELb1EEC2B8ne190107ENS_18__default_init_tagE, symObjAddr: 0x1A4C8, symBinAddr: 0x10001BCB4, symSize: 0x70 }
  - { offset: 0x6E21E, size: 0x8, addend: 0x0, symName: __ZNSt3__19allocatorINS_12basic_stringIcNS_11char_traitsIcEENS0_IcEEEEEC2B8ne190107Ev, symObjAddr: 0x1A538, symBinAddr: 0x10001BD24, symSize: 0x70 }
  - { offset: 0x6E248, size: 0x8, addend: 0x0, symName: __ZNSt3__116__non_trivial_ifILb1ENS_9allocatorINS_12basic_stringIcNS_11char_traitsIcEENS1_IcEEEEEEEC2B8ne190107Ev, symObjAddr: 0x1A5A8, symBinAddr: 0x10001BD94, symSize: 0x48 }
  - { offset: 0x6E272, size: 0x8, addend: 0x0, symName: __ZN7testing8internal29PredicateFormatterFromMatcherINS_18PolymorphicMatcherINS0_14IsEmptyMatcherEEEEC1ES4_, symObjAddr: 0x1A5F0, symBinAddr: 0x10001BDDC, symSize: 0x60 }
  - { offset: 0x6E2AB, size: 0x8, addend: 0x0, symName: __ZN7testing8internal29PredicateFormatterFromMatcherINS_18PolymorphicMatcherINS0_14IsEmptyMatcherEEEEC2ES4_, symObjAddr: 0x1A650, symBinAddr: 0x10001BE3C, symSize: 0x60 }
  - { offset: 0x6E2E4, size: 0x8, addend: 0x0, symName: __ZN7testing18PolymorphicMatcherINS_8internal14IsEmptyMatcherEEC1ERKS2_, symObjAddr: 0x1A888, symBinAddr: 0x10001C074, symSize: 0x58 }
  - { offset: 0x6E31D, size: 0x8, addend: 0x0, symName: __ZN7testing18PolymorphicMatcherINS_8internal14IsEmptyMatcherEEC2ERKS2_, symObjAddr: 0x1A8E0, symBinAddr: 0x10001C0CC, symSize: 0x4C }
  - { offset: 0x6E356, size: 0x8, addend: 0x0, symName: __ZNK7testing8internal11MatcherBaseIRKNSt3__16vectorINS2_12basic_stringIcNS2_11char_traitsIcEENS2_9allocatorIcEEEENS7_IS9_EEEEE7MatchesESD_, symObjAddr: 0x1A988, symBinAddr: 0x10001C174, symSize: 0x350 }
  - { offset: 0x6E39E, size: 0x8, addend: 0x0, symName: __ZNSt3__118basic_stringstreamIcNS_11char_traitsIcEENS_9allocatorIcEEEC1B8ne190107Ev, symObjAddr: 0x1ACD8, symBinAddr: 0x10001C4C4, symSize: 0x38C }
  - { offset: 0x6E3C8, size: 0x8, addend: 0x0, symName: __ZNK7testing8internal11MatcherBaseIRKNSt3__16vectorINS2_12basic_stringIcNS2_11char_traitsIcEENS2_9allocatorIcEEEENS7_IS9_EEEEE10DescribeToEPNS2_13basic_ostreamIcS6_EE, symObjAddr: 0x1B11C, symBinAddr: 0x10001C908, symSize: 0x59C }
  - { offset: 0x6E41B, size: 0x8, addend: 0x0, symName: __ZN7testing25StringMatchResultListenerC1Ev, symObjAddr: 0x1B6B8, symBinAddr: 0x10001CEA4, symSize: 0x64 }
  - { offset: 0x6E445, size: 0x8, addend: 0x0, symName: __ZNK7testing25StringMatchResultListener3strEv, symObjAddr: 0x1C484, symBinAddr: 0x10001DC70, symSize: 0x198 }
  - { offset: 0x6E46B, size: 0x8, addend: 0x0, symName: __ZN7testing15AssertionResultlsINSt3__112basic_stringIcNS2_11char_traitsIcEENS2_9allocatorIcEEEEEERS0_RKT_, symObjAddr: 0x1C61C, symBinAddr: 0x10001DE08, symSize: 0x350 }
  - { offset: 0x6E4AA, size: 0x8, addend: 0x0, symName: __ZNKRSt3__118basic_stringstreamIcNS_11char_traitsIcEENS_9allocatorIcEEE3strB8ne190107Ev, symObjAddr: 0x1C96C, symBinAddr: 0x10001E158, symSize: 0x198 }
  - { offset: 0x6E4D0, size: 0x8, addend: 0x0, symName: __ZN7testing25StringMatchResultListenerD1Ev, symObjAddr: 0x1CB04, symBinAddr: 0x10001E2F0, symSize: 0x64 }
  - { offset: 0x6E503, size: 0x8, addend: 0x0, symName: __ZNSt3__118basic_stringstreamIcNS_11char_traitsIcEENS_9allocatorIcEEED1Ev, symObjAddr: 0x1CB68, symBinAddr: 0x10001E354, symSize: 0x78 }
  - { offset: 0x6E530, size: 0x8, addend: 0x0, symName: __ZN7testing7MatcherIRKNSt3__16vectorINS1_12basic_stringIcNS1_11char_traitsIcEENS1_9allocatorIcEEEENS6_IS8_EEEEED1Ev, symObjAddr: 0x1CBE0, symBinAddr: 0x10001E3CC, symSize: 0x64 }
  - { offset: 0x6E562, size: 0x8, addend: 0x0, symName: __ZN7testing8internal15MatcherCastImplIRKNSt3__16vectorINS2_12basic_stringIcNS2_11char_traitsIcEENS2_9allocatorIcEEEENS7_IS9_EEEENS_18PolymorphicMatcherINS0_14IsEmptyMatcherEEEE4CastERKSG_, symObjAddr: 0x1CCA8, symBinAddr: 0x10001E494, symSize: 0x0 }
  - { offset: 0x6E586, size: 0x8, addend: 0x0, symName: __ZN7testing8internal15MatcherCastImplIRKNSt3__16vectorINS2_12basic_stringIcNS2_11char_traitsIcEENS2_9allocatorIcEEEENS7_IS9_EEEENS_18PolymorphicMatcherINS0_14IsEmptyMatcherEEEE8CastImplILb0EEENS_7MatcherISD_EERKSG_NS2_17integral_constantIbLb1EEENSN_IbXT_EEE, symObjAddr: 0x1CD04, symBinAddr: 0x10001E4F0, symSize: 0x0 }
  - { offset: 0x6E5CA, size: 0x8, addend: 0x0, symName: __ZNK7testing18PolymorphicMatcherINS_8internal14IsEmptyMatcherEEcvNS_7MatcherIT_EEIRKNSt3__16vectorINS8_12basic_stringIcNS8_11char_traitsIcEENS8_9allocatorIcEEEENSD_ISF_EEEEEEv, symObjAddr: 0x1CD30, symBinAddr: 0x10001E51C, symSize: 0x150 }
  - { offset: 0x6E60A, size: 0x8, addend: 0x0, symName: __ZN7testing18PolymorphicMatcherINS_8internal14IsEmptyMatcherEE15MonomorphicImplIRKNSt3__16vectorINS5_12basic_stringIcNS5_11char_traitsIcEENS5_9allocatorIcEEEENSA_ISC_EEEEEC1ERKS2_, symObjAddr: 0x1CE80, symBinAddr: 0x10001E66C, symSize: 0x6C }
  - { offset: 0x6E643, size: 0x8, addend: 0x0, symName: __ZN7testing7MatcherIRKNSt3__16vectorINS1_12basic_stringIcNS1_11char_traitsIcEENS1_9allocatorIcEEEENS6_IS8_EEEEEC1EPKNS_16MatcherInterfaceISC_EE, symObjAddr: 0x1CEEC, symBinAddr: 0x10001E6D8, symSize: 0x6C }
  - { offset: 0x6E67C, size: 0x8, addend: 0x0, symName: __ZN7testing18PolymorphicMatcherINS_8internal14IsEmptyMatcherEE15MonomorphicImplIRKNSt3__16vectorINS5_12basic_stringIcNS5_11char_traitsIcEENS5_9allocatorIcEEEENSA_ISC_EEEEEC2ERKS2_, symObjAddr: 0x1CF58, symBinAddr: 0x10001E744, symSize: 0xFC }
  - { offset: 0x6E6BB, size: 0x8, addend: 0x0, symName: __ZN7testing16MatcherInterfaceIRKNSt3__16vectorINS1_12basic_stringIcNS1_11char_traitsIcEENS1_9allocatorIcEEEENS6_IS8_EEEEEC2Ev, symObjAddr: 0x1D054, symBinAddr: 0x10001E840, symSize: 0xF8 }
  - { offset: 0x6E6E7, size: 0x8, addend: 0x0, symName: __ZN7testing18PolymorphicMatcherINS_8internal14IsEmptyMatcherEE15MonomorphicImplIRKNSt3__16vectorINS5_12basic_stringIcNS5_11char_traitsIcEENS5_9allocatorIcEEEENSA_ISC_EEEEED1Ev, symObjAddr: 0x1D14C, symBinAddr: 0x10001E938, symSize: 0x64 }
  - { offset: 0x6E714, size: 0x8, addend: 0x0, symName: __ZN7testing18PolymorphicMatcherINS_8internal14IsEmptyMatcherEE15MonomorphicImplIRKNSt3__16vectorINS5_12basic_stringIcNS5_11char_traitsIcEENS5_9allocatorIcEEEENSA_ISC_EEEEED0Ev, symObjAddr: 0x1D1B0, symBinAddr: 0x10001E99C, symSize: 0x68 }
  - { offset: 0x6E741, size: 0x8, addend: 0x0, symName: __ZNK7testing18PolymorphicMatcherINS_8internal14IsEmptyMatcherEE15MonomorphicImplIRKNSt3__16vectorINS5_12basic_stringIcNS5_11char_traitsIcEENS5_9allocatorIcEEEENSA_ISC_EEEEE10DescribeToEPNS5_13basic_ostreamIcS9_EE, symObjAddr: 0x1D218, symBinAddr: 0x10001EA04, symSize: 0x100 }
  - { offset: 0x6E776, size: 0x8, addend: 0x0, symName: __ZNK7testing18PolymorphicMatcherINS_8internal14IsEmptyMatcherEE15MonomorphicImplIRKNSt3__16vectorINS5_12basic_stringIcNS5_11char_traitsIcEENS5_9allocatorIcEEEENSA_ISC_EEEEE18DescribeNegationToEPNS5_13basic_ostreamIcS9_EE, symObjAddr: 0x1D318, symBinAddr: 0x10001EB04, symSize: 0x100 }
  - { offset: 0x6E7AB, size: 0x8, addend: 0x0, symName: __ZNK7testing18PolymorphicMatcherINS_8internal14IsEmptyMatcherEE15MonomorphicImplIRKNSt3__16vectorINS5_12basic_stringIcNS5_11char_traitsIcEENS5_9allocatorIcEEEENSA_ISC_EEEEE15MatchAndExplainESG_PNS_19MatchResultListenerE, symObjAddr: 0x1D418, symBinAddr: 0x10001EC04, symSize: 0x140 }
  - { offset: 0x6E7EF, size: 0x8, addend: 0x0, symName: __ZN7testing25MatcherDescriberInterfaceC2Ev, symObjAddr: 0x1D558, symBinAddr: 0x10001ED44, symSize: 0xB4 }
  - { offset: 0x6E81B, size: 0x8, addend: 0x0, symName: __ZN7testing16MatcherInterfaceIRKNSt3__16vectorINS1_12basic_stringIcNS1_11char_traitsIcEENS1_9allocatorIcEEEENS6_IS8_EEEEED1Ev, symObjAddr: 0x1D60C, symBinAddr: 0x10001EDF8, symSize: 0x54 }
  - { offset: 0x6E847, size: 0x8, addend: 0x0, symName: __ZN7testing16MatcherInterfaceIRKNSt3__16vectorINS1_12basic_stringIcNS1_11char_traitsIcEENS1_9allocatorIcEEEENS6_IS8_EEEEED0Ev, symObjAddr: 0x1D660, symBinAddr: 0x10001EE4C, symSize: 0x50 }
  - { offset: 0x6E873, size: 0x8, addend: 0x0, symName: __ZNK7testing25MatcherDescriberInterface18DescribeNegationToEPNSt3__113basic_ostreamIcNS1_11char_traitsIcEEEE, symObjAddr: 0x1D6B0, symBinAddr: 0x10001EE9C, symSize: 0x1E4 }
  - { offset: 0x6E8A7, size: 0x8, addend: 0x0, symName: __ZN7testing25MatcherDescriberInterfaceD1Ev, symObjAddr: 0x1D894, symBinAddr: 0x10001F080, symSize: 0x54 }
  - { offset: 0x6E8D1, size: 0x8, addend: 0x0, symName: __ZN7testing25MatcherDescriberInterfaceD0Ev, symObjAddr: 0x1D8E8, symBinAddr: 0x10001F0D4, symSize: 0x50 }
  - { offset: 0x6E8FB, size: 0x8, addend: 0x0, symName: __ZN7testing18PolymorphicMatcherINS_8internal14IsEmptyMatcherEE15MonomorphicImplIRKNSt3__16vectorINS5_12basic_stringIcNS5_11char_traitsIcEENS5_9allocatorIcEEEENSA_ISC_EEEEED2Ev, symObjAddr: 0x1D938, symBinAddr: 0x10001F124, symSize: 0x64 }
  - { offset: 0x6E928, size: 0x8, addend: 0x0, symName: __ZN7testing16MatcherInterfaceIRKNSt3__16vectorINS1_12basic_stringIcNS1_11char_traitsIcEENS1_9allocatorIcEEEENS6_IS8_EEEEED2Ev, symObjAddr: 0x1D99C, symBinAddr: 0x10001F188, symSize: 0x64 }
  - { offset: 0x6E954, size: 0x8, addend: 0x0, symName: __ZN7testing25MatcherDescriberInterfaceD2Ev, symObjAddr: 0x1DA00, symBinAddr: 0x10001F1EC, symSize: 0x5C }
  - { offset: 0x6E97E, size: 0x8, addend: 0x0, symName: __ZNK7testing8internal14IsEmptyMatcher10DescribeToEPNSt3__113basic_ostreamIcNS2_11char_traitsIcEEEE, symObjAddr: 0x1DA5C, symBinAddr: 0x10001F248, symSize: 0x8C }
  - { offset: 0x6E9B2, size: 0x8, addend: 0x0, symName: __ZNK7testing8internal14IsEmptyMatcher18DescribeNegationToEPNSt3__113basic_ostreamIcNS2_11char_traitsIcEEEE, symObjAddr: 0x1DAE8, symBinAddr: 0x10001F2D4, symSize: 0x8C }
  - { offset: 0x6E9E6, size: 0x8, addend: 0x0, symName: __ZNK7testing8internal14IsEmptyMatcher15MatchAndExplainINSt3__16vectorINS3_12basic_stringIcNS3_11char_traitsIcEENS3_9allocatorIcEEEENS8_ISA_EEEEEEbRKT_PNS_19MatchResultListenerE, symObjAddr: 0x1DB74, symBinAddr: 0x10001F360, symSize: 0x408 }
  - { offset: 0x6EA34, size: 0x8, addend: 0x0, symName: __ZNKSt3__16vectorINS_12basic_stringIcNS_11char_traitsIcEENS_9allocatorIcEEEENS4_IS6_EEE5emptyB8ne190107Ev, symObjAddr: 0x1DF7C, symBinAddr: 0x10001F768, symSize: 0xDC }
  - { offset: 0x6EA71, size: 0x8, addend: 0x0, symName: __ZN7testing19MatchResultListenerlsIA15_cEERS0_RKT_, symObjAddr: 0x1E058, symBinAddr: 0x10001F844, symSize: 0x234 }
  - { offset: 0x6EAAE, size: 0x8, addend: 0x0, symName: __ZN7testing19MatchResultListenerlsImEERS0_RKT_, symObjAddr: 0x1E28C, symBinAddr: 0x10001FA78, symSize: 0x2DC }
  - { offset: 0x6EAEB, size: 0x8, addend: 0x0, symName: __ZNKSt3__16vectorINS_12basic_stringIcNS_11char_traitsIcEENS_9allocatorIcEEEENS4_IS6_EEE4sizeB8ne190107Ev, symObjAddr: 0x1E568, symBinAddr: 0x10001FD54, symSize: 0xE0 }
  - { offset: 0x6EB11, size: 0x8, addend: 0x0, symName: __ZN7testing7MatcherIRKNSt3__16vectorINS1_12basic_stringIcNS1_11char_traitsIcEENS1_9allocatorIcEEEENS6_IS8_EEEEEC2EPKNS_16MatcherInterfaceISC_EE, symObjAddr: 0x1E648, symBinAddr: 0x10001FE34, symSize: 0x108 }
  - { offset: 0x6EB4A, size: 0x8, addend: 0x0, symName: __ZN7testing8internal11MatcherBaseIRKNSt3__16vectorINS2_12basic_stringIcNS2_11char_traitsIcEENS2_9allocatorIcEEEENS7_IS9_EEEEEC2ISD_EEPKNS_16MatcherInterfaceIT_EE, symObjAddr: 0x1E750, symBinAddr: 0x10001FF3C, symSize: 0x3AC }
  - { offset: 0x6EB91, size: 0x8, addend: 0x0, symName: __ZN7testing7MatcherIRKNSt3__16vectorINS1_12basic_stringIcNS1_11char_traitsIcEENS1_9allocatorIcEEEENS6_IS8_EEEEED0Ev, symObjAddr: 0x1EAFC, symBinAddr: 0x1000202E8, symSize: 0x68 }
  - { offset: 0x6EBBD, size: 0x8, addend: 0x0, symName: __ZNK7testing8internal11MatcherBaseIRKNSt3__16vectorINS2_12basic_stringIcNS2_11char_traitsIcEENS2_9allocatorIcEEEENS7_IS9_EEEEE18DescribeNegationToEPNS2_13basic_ostreamIcS6_EE, symObjAddr: 0x1EB64, symBinAddr: 0x100020350, symSize: 0x5A4 }
  - { offset: 0x6EBF3, size: 0x8, addend: 0x0, symName: __ZN7testing8internal11MatcherBaseIRKNSt3__16vectorINS2_12basic_stringIcNS2_11char_traitsIcEENS2_9allocatorIcEEEENS7_IS9_EEEEE4InitIRPKNS_16MatcherInterfaceISD_EEEEvOT_, symObjAddr: 0x1F108, symBinAddr: 0x1000208F4, symSize: 0x234 }
  - { offset: 0x6EC31, size: 0x8, addend: 0x0, symName: __ZN7testing8internal11MatcherBaseIRKNSt3__16vectorINS2_12basic_stringIcNS2_11char_traitsIcEENS2_9allocatorIcEEEENS7_IS9_EEEEED1Ev, symObjAddr: 0x1F33C, symBinAddr: 0x100020B28, symSize: 0x64 }
  - { offset: 0x6EC5B, size: 0x8, addend: 0x0, symName: __ZN7testing8internal11MatcherBaseIRKNSt3__16vectorINS2_12basic_stringIcNS2_11char_traitsIcEENS2_9allocatorIcEEEENS7_IS9_EEEEED0Ev, symObjAddr: 0x1F3A0, symBinAddr: 0x100020B8C, symSize: 0x68 }
  - { offset: 0x6EC85, size: 0x8, addend: 0x0, symName: __ZN7testing8internal11MatcherBaseIRKNSt3__16vectorINS2_12basic_stringIcNS2_11char_traitsIcEENS2_9allocatorIcEEEENS7_IS9_EEEEE11ValuePolicyIPKNS_16MatcherInterfaceISD_EELb1EE4InitERSE_SJ_, symObjAddr: 0x1F46C, symBinAddr: 0x100020C58, symSize: 0x0 }
  - { offset: 0x6ECBA, size: 0x8, addend: 0x0, symName: __ZN7testing8internal11MatcherBaseIRKNSt3__16vectorINS2_12basic_stringIcNS2_11char_traitsIcEENS2_9allocatorIcEEEENS7_IS9_EEEEE19MatchAndExplainImplINSE_11ValuePolicyIPKNS_16MatcherInterfaceISD_EELb1EEEEEDTcldtclsrT_3Getfp_E15MatchAndExplainfp0_fp1_EERKSE_SD_PNS_19MatchResultListenerE, symObjAddr: 0x1F828, symBinAddr: 0x100021014, symSize: 0x0 }
  - { offset: 0x6ED05, size: 0x8, addend: 0x0, symName: __ZN7testing8internal11MatcherBaseIRKNSt3__16vectorINS2_12basic_stringIcNS2_11char_traitsIcEENS2_9allocatorIcEEEENS7_IS9_EEEEE12DescribeImplINSE_11ValuePolicyIPKNS_16MatcherInterfaceISD_EELb1EEEEEvRKSE_PNS2_13basic_ostreamIcS6_EEb, symObjAddr: 0x1FA10, symBinAddr: 0x1000211FC, symSize: 0x0 }
  - { offset: 0x6ED50, size: 0x8, addend: 0x0, symName: __ZN7testing8internal11MatcherBaseIRKNSt3__16vectorINS2_12basic_stringIcNS2_11char_traitsIcEENS2_9allocatorIcEEEENS7_IS9_EEEEE16GetDescriberImplINSE_11ValuePolicyIPKNS_16MatcherInterfaceISD_EELb1EEEEEPKNS_25MatcherDescriberInterfaceERKSE_, symObjAddr: 0x1FDB8, symBinAddr: 0x1000215A4, symSize: 0x0 }
  - { offset: 0x6ED7E, size: 0x8, addend: 0x0, symName: __ZN7testing8internal13SharedPayloadINSt3__110unique_ptrIKNS_16MatcherInterfaceIRKNS2_6vectorINS2_12basic_stringIcNS2_11char_traitsIcEENS2_9allocatorIcEEEENS9_ISB_EEEEEENS2_14default_deleteISH_EEEEE7DestroyEPNS0_17SharedPayloadBaseE, symObjAddr: 0x200DC, symBinAddr: 0x1000218C8, symSize: 0x0 }
  - { offset: 0x6EDA1, size: 0x8, addend: 0x0, symName: __ZN7testing8internal11MatcherBaseIRKNSt3__16vectorINS2_12basic_stringIcNS2_11char_traitsIcEENS2_9allocatorIcEEEENS7_IS9_EEEEE11ValuePolicyIPKNS_16MatcherInterfaceISD_EELb1EE3GetERKSE_, symObjAddr: 0x20190, symBinAddr: 0x10002197C, symSize: 0x0 }
  - { offset: 0x6EDC5, size: 0x8, addend: 0x0, symName: __ZNKSt3__110unique_ptrIKN7testing16MatcherInterfaceIRKNS_6vectorINS_12basic_stringIcNS_11char_traitsIcEENS_9allocatorIcEEEENS7_IS9_EEEEEENS_14default_deleteISF_EEEdeB8ne190107Ev, symObjAddr: 0x2034C, symBinAddr: 0x100021B38, symSize: 0x144 }
  - { offset: 0x6EDEB, size: 0x8, addend: 0x0, symName: __ZNKSt3__117__compressed_pairIPKN7testing16MatcherInterfaceIRKNS_6vectorINS_12basic_stringIcNS_11char_traitsIcEENS_9allocatorIcEEEENS7_IS9_EEEEEENS_14default_deleteISF_EEE5firstB8ne190107Ev, symObjAddr: 0x20490, symBinAddr: 0x100021C7C, symSize: 0xEC }
  - { offset: 0x6EE11, size: 0x8, addend: 0x0, symName: __ZNKSt3__122__compressed_pair_elemIPKN7testing16MatcherInterfaceIRKNS_6vectorINS_12basic_stringIcNS_11char_traitsIcEENS_9allocatorIcEEEENS7_IS9_EEEEEELi0ELb0EE5__getB8ne190107Ev, symObjAddr: 0x2057C, symBinAddr: 0x100021D68, symSize: 0x8C }
  - { offset: 0x6EE5A, size: 0x8, addend: 0x0, symName: __ZNSt3__112__tuple_leafILm1EPKN7testing16MatcherInterfaceIRKNS_6vectorINS_12basic_stringIcNS_11char_traitsIcEENS_9allocatorIcEEEENS7_IS9_EEEEEELb0EE3getB8ne190107Ev, symObjAddr: 0x20910, symBinAddr: 0x1000220FC, symSize: 0x8C }
  - { offset: 0x6EF06, size: 0x8, addend: 0x0, symName: __ZNSt3__15tupleIJPKN7testing8internal11MatcherBaseIRKNS_6vectorINS_12basic_stringIcNS_11char_traitsIcEENS_9allocatorIcEEEENS8_ISA_EEEEEEPKNS1_16MatcherInterfaceISE_EEEEC1B8ne190107IJSH_SL_ETnNS_9enable_ifIXsr4_AndINS_17integral_constantIbXeqsZT_sZT_EEENSM_17_EnableUTypesCtorIJDpT_EEEEE5valueEiE4typeELi0EEEDpOSS_, symObjAddr: 0x2099C, symBinAddr: 0x100022188, symSize: 0x74 }
  - { offset: 0x6EF65, size: 0x8, addend: 0x0, symName: __ZNSt3__15tupleIJPKN7testing8internal11MatcherBaseIRKNS_6vectorINS_12basic_stringIcNS_11char_traitsIcEENS_9allocatorIcEEEENS8_ISA_EEEEEEPKNS1_16MatcherInterfaceISE_EEEEC2B8ne190107IJSH_SL_ETnNS_9enable_ifIXsr4_AndINS_17integral_constantIbXeqsZT_sZT_EEENSM_17_EnableUTypesCtorIJDpT_EEEEE5valueEiE4typeELi0EEEDpOSS_, symObjAddr: 0x20A10, symBinAddr: 0x1000221FC, symSize: 0xE4 }
  - { offset: 0x6EFC4, size: 0x8, addend: 0x0, symName: __ZNSt3__112__tuple_implINS_15__tuple_indicesIJLm0ELm1EEEEJPKN7testing8internal11MatcherBaseIRKNS_6vectorINS_12basic_stringIcNS_11char_traitsIcEENS_9allocatorIcEEEENSA_ISC_EEEEEEPKNS3_16MatcherInterfaceISG_EEEEC1B8ne190107IJLm0ELm1EEJSJ_SN_ETpTnmJEJEJSJ_SN_EEENS1_IJXspT_EEEENS_13__tuple_typesIJDpT0_EEENS1_IJXspT1_EEEENSR_IJDpT2_EEEDpOT3_, symObjAddr: 0x20AF4, symBinAddr: 0x1000222E0, symSize: 0x74 }
  - { offset: 0x6F076, size: 0x8, addend: 0x0, symName: __ZNSt3__112__tuple_implINS_15__tuple_indicesIJLm0ELm1EEEEJPKN7testing8internal11MatcherBaseIRKNS_6vectorINS_12basic_stringIcNS_11char_traitsIcEENS_9allocatorIcEEEENSA_ISC_EEEEEEPKNS3_16MatcherInterfaceISG_EEEEC2B8ne190107IJLm0ELm1EEJSJ_SN_ETpTnmJEJEJSJ_SN_EEENS1_IJXspT_EEEENS_13__tuple_typesIJDpT0_EEENS1_IJXspT1_EEEENSR_IJDpT2_EEEDpOT3_, symObjAddr: 0x20B68, symBinAddr: 0x100022354, symSize: 0x168 }
  - { offset: 0x6F128, size: 0x8, addend: 0x0, symName: __ZNSt3__112__tuple_leafILm0EPKN7testing8internal11MatcherBaseIRKNS_6vectorINS_12basic_stringIcNS_11char_traitsIcEENS_9allocatorIcEEEENS8_ISA_EEEEEELb0EEC2B8ne190107ISH_TnNS_9enable_ifIXsr4_AndINS_17integral_constantIbXntu9__is_sameu14__remove_cvrefIT_ESI_EEEENS_16is_constructibleISH_JSM_EEEEE5valueEiE4typeELi0EEEOSM_, symObjAddr: 0x20CD0, symBinAddr: 0x1000224BC, symSize: 0x124 }
  - { offset: 0x6F171, size: 0x8, addend: 0x0, symName: __ZNSt3__112__tuple_leafILm1EPKN7testing16MatcherInterfaceIRKNS_6vectorINS_12basic_stringIcNS_11char_traitsIcEENS_9allocatorIcEEEENS7_IS9_EEEEEELb0EEC2B8ne190107ISG_TnNS_9enable_ifIXsr4_AndINS_17integral_constantIbXntu9__is_sameu14__remove_cvrefIT_ESH_EEEENS_16is_constructibleISG_JSL_EEEEE5valueEiE4typeELi0EEEOSL_, symObjAddr: 0x20DF4, symBinAddr: 0x1000225E0, symSize: 0x124 }
  - { offset: 0x6F1BA, size: 0x8, addend: 0x0, symName: __ZN7testing8internal13SharedPayloadINSt3__110unique_ptrIKNS_16MatcherInterfaceIRKNS2_6vectorINS2_12basic_stringIcNS2_11char_traitsIcEENS2_9allocatorIcEEEENS9_ISB_EEEEEENS2_14default_deleteISH_EEEEED1Ev, symObjAddr: 0x20F18, symBinAddr: 0x100022704, symSize: 0x64 }
  - { offset: 0x6F1E6, size: 0x8, addend: 0x0, symName: __ZN7testing8internal13SharedPayloadINSt3__110unique_ptrIKNS_16MatcherInterfaceIRKNS2_6vectorINS2_12basic_stringIcNS2_11char_traitsIcEENS2_9allocatorIcEEEENS9_ISB_EEEEEENS2_14default_deleteISH_EEEEED2Ev, symObjAddr: 0x20F7C, symBinAddr: 0x100022768, symSize: 0x68 }
  - { offset: 0x6F212, size: 0x8, addend: 0x0, symName: __ZNSt3__110unique_ptrIKN7testing16MatcherInterfaceIRKNS_6vectorINS_12basic_stringIcNS_11char_traitsIcEENS_9allocatorIcEEEENS7_IS9_EEEEEENS_14default_deleteISF_EEED1B8ne190107Ev, symObjAddr: 0x20FE4, symBinAddr: 0x1000227D0, symSize: 0x64 }
  - { offset: 0x6F23C, size: 0x8, addend: 0x0, symName: __ZNSt3__110unique_ptrIKN7testing16MatcherInterfaceIRKNS_6vectorINS_12basic_stringIcNS_11char_traitsIcEENS_9allocatorIcEEEENS7_IS9_EEEEEENS_14default_deleteISF_EEED2B8ne190107Ev, symObjAddr: 0x21048, symBinAddr: 0x100022834, symSize: 0x68 }
  - { offset: 0x6F266, size: 0x8, addend: 0x0, symName: __ZNSt3__110unique_ptrIKN7testing16MatcherInterfaceIRKNS_6vectorINS_12basic_stringIcNS_11char_traitsIcEENS_9allocatorIcEEEENS7_IS9_EEEEEENS_14default_deleteISF_EEE5resetB8ne190107EPSF_, symObjAddr: 0x210B0, symBinAddr: 0x10002289C, symSize: 0x240 }
  - { offset: 0x6F2AA, size: 0x8, addend: 0x0, symName: __ZNSt3__117__compressed_pairIPKN7testing16MatcherInterfaceIRKNS_6vectorINS_12basic_stringIcNS_11char_traitsIcEENS_9allocatorIcEEEENS7_IS9_EEEEEENS_14default_deleteISF_EEE5firstB8ne190107Ev, symObjAddr: 0x212F0, symBinAddr: 0x100022ADC, symSize: 0xEC }
  - { offset: 0x6F2D0, size: 0x8, addend: 0x0, symName: __ZNSt3__117__compressed_pairIPKN7testing16MatcherInterfaceIRKNS_6vectorINS_12basic_stringIcNS_11char_traitsIcEENS_9allocatorIcEEEENS7_IS9_EEEEEENS_14default_deleteISF_EEE6secondB8ne190107Ev, symObjAddr: 0x213DC, symBinAddr: 0x100022BC8, symSize: 0xC4 }
  - { offset: 0x6F2F6, size: 0x8, addend: 0x0, symName: __ZNKSt3__114default_deleteIKN7testing16MatcherInterfaceIRKNS_6vectorINS_12basic_stringIcNS_11char_traitsIcEENS_9allocatorIcEEEENS7_IS9_EEEEEEEclB8ne190107EPSF_, symObjAddr: 0x214A0, symBinAddr: 0x100022C8C, symSize: 0x18C }
  - { offset: 0x6F32A, size: 0x8, addend: 0x0, symName: __ZNSt3__122__compressed_pair_elemIPKN7testing16MatcherInterfaceIRKNS_6vectorINS_12basic_stringIcNS_11char_traitsIcEENS_9allocatorIcEEEENS7_IS9_EEEEEELi0ELb0EE5__getB8ne190107Ev, symObjAddr: 0x2162C, symBinAddr: 0x100022E18, symSize: 0x8C }
  - { offset: 0x6F350, size: 0x8, addend: 0x0, symName: __ZNSt3__122__compressed_pair_elemINS_14default_deleteIKN7testing16MatcherInterfaceIRKNS_6vectorINS_12basic_stringIcNS_11char_traitsIcEENS_9allocatorIcEEEENS8_ISA_EEEEEEEELi1ELb1EE5__getB8ne190107Ev, symObjAddr: 0x216B8, symBinAddr: 0x100022EA4, symSize: 0x64 }
  - { offset: 0x6F376, size: 0x8, addend: 0x0, symName: __ZNSt3__110unique_ptrIKN7testing16MatcherInterfaceIRKNS_6vectorINS_12basic_stringIcNS_11char_traitsIcEENS_9allocatorIcEEEENS7_IS9_EEEEEENS_14default_deleteISF_EEEC1B8ne190107ILb1EvEEPSF_, symObjAddr: 0x2171C, symBinAddr: 0x100022F08, symSize: 0x6C }
  - { offset: 0x6F3B9, size: 0x8, addend: 0x0, symName: __ZN7testing8internal13SharedPayloadINSt3__110unique_ptrIKNS_16MatcherInterfaceIRKNS2_6vectorINS2_12basic_stringIcNS2_11char_traitsIcEENS2_9allocatorIcEEEENS9_ISB_EEEEEENS2_14default_deleteISH_EEEEEC1EOSK_, symObjAddr: 0x21788, symBinAddr: 0x100022F74, symSize: 0x6C }
  - { offset: 0x6F3F1, size: 0x8, addend: 0x0, symName: __ZNSt3__110unique_ptrIKN7testing16MatcherInterfaceIRKNS_6vectorINS_12basic_stringIcNS_11char_traitsIcEENS_9allocatorIcEEEENS7_IS9_EEEEEENS_14default_deleteISF_EEEC2B8ne190107ILb1EvEEPSF_, symObjAddr: 0x217F4, symBinAddr: 0x100022FE0, symSize: 0x250 }
  - { offset: 0x6F43F, size: 0x8, addend: 0x0, symName: __ZNSt3__117__compressed_pairIPKN7testing16MatcherInterfaceIRKNS_6vectorINS_12basic_stringIcNS_11char_traitsIcEENS_9allocatorIcEEEENS7_IS9_EEEEEENS_14default_deleteISF_EEEC1B8ne190107IRSG_NS_16__value_init_tagEEEOT_OT0_, symObjAddr: 0x21A44, symBinAddr: 0x100023230, symSize: 0x74 }
  - { offset: 0x6F497, size: 0x8, addend: 0x0, symName: __ZNSt3__117__compressed_pairIPKN7testing16MatcherInterfaceIRKNS_6vectorINS_12basic_stringIcNS_11char_traitsIcEENS_9allocatorIcEEEENS7_IS9_EEEEEENS_14default_deleteISF_EEEC2B8ne190107IRSG_NS_16__value_init_tagEEEOT_OT0_, symObjAddr: 0x21AB8, symBinAddr: 0x1000232A4, symSize: 0x104 }
  - { offset: 0x6F4EF, size: 0x8, addend: 0x0, symName: __ZNSt3__122__compressed_pair_elemIPKN7testing16MatcherInterfaceIRKNS_6vectorINS_12basic_stringIcNS_11char_traitsIcEENS_9allocatorIcEEEENS7_IS9_EEEEEELi0ELb0EEC2B8ne190107IRSG_TnNS_9enable_ifIXntsr7is_sameISH_u7__decayIT_EEE5valueEiE4typeELi0EEEOSL_, symObjAddr: 0x21BBC, symBinAddr: 0x1000233A8, symSize: 0x124 }
  - { offset: 0x6F537, size: 0x8, addend: 0x0, symName: __ZNSt3__122__compressed_pair_elemINS_14default_deleteIKN7testing16MatcherInterfaceIRKNS_6vectorINS_12basic_stringIcNS_11char_traitsIcEENS_9allocatorIcEEEENS8_ISA_EEEEEEEELi1ELb1EEC2B8ne190107ENS_16__value_init_tagE, symObjAddr: 0x21CE0, symBinAddr: 0x1000234CC, symSize: 0x48 }
  - { offset: 0x6F56C, size: 0x8, addend: 0x0, symName: __ZN7testing8internal13SharedPayloadINSt3__110unique_ptrIKNS_16MatcherInterfaceIRKNS2_6vectorINS2_12basic_stringIcNS2_11char_traitsIcEENS2_9allocatorIcEEEENS9_ISB_EEEEEENS2_14default_deleteISH_EEEEEC2EOSK_, symObjAddr: 0x21D28, symBinAddr: 0x100023514, symSize: 0xEC }
  - { offset: 0x6F5A4, size: 0x8, addend: 0x0, symName: __ZN7testing8internal17SharedPayloadBaseC2Ev, symObjAddr: 0x21E14, symBinAddr: 0x100023600, symSize: 0x68 }
  - { offset: 0x6F5D0, size: 0x8, addend: 0x0, symName: __ZNSt3__110unique_ptrIKN7testing16MatcherInterfaceIRKNS_6vectorINS_12basic_stringIcNS_11char_traitsIcEENS_9allocatorIcEEEENS7_IS9_EEEEEENS_14default_deleteISF_EEEC1B8ne190107EOSI_, symObjAddr: 0x21E7C, symBinAddr: 0x100023668, symSize: 0x6C }
  - { offset: 0x6F608, size: 0x8, addend: 0x0, symName: __ZNSt3__16atomicIiEC1B8ne190107Ei, symObjAddr: 0x21EE8, symBinAddr: 0x1000236D4, symSize: 0x6C }
  - { offset: 0x6F640, size: 0x8, addend: 0x0, symName: __ZNSt3__16atomicIiEC2B8ne190107Ei, symObjAddr: 0x21F54, symBinAddr: 0x100023740, symSize: 0xA8 }
  - { offset: 0x6F678, size: 0x8, addend: 0x0, symName: __ZNSt3__113__atomic_baseIiLb1EEC2B8ne190107Ei, symObjAddr: 0x21FFC, symBinAddr: 0x1000237E8, symSize: 0xA8 }
  - { offset: 0x6F6B0, size: 0x8, addend: 0x0, symName: __ZNSt3__113__atomic_baseIiLb0EEC2B8ne190107Ei, symObjAddr: 0x220A4, symBinAddr: 0x100023890, symSize: 0x6C }
  - { offset: 0x6F6E8, size: 0x8, addend: 0x0, symName: __ZNSt3__117__cxx_atomic_implIiNS_22__cxx_atomic_base_implIiEEEC1B8ne190107Ei, symObjAddr: 0x22110, symBinAddr: 0x1000238FC, symSize: 0x6C }
  - { offset: 0x6F721, size: 0x8, addend: 0x0, symName: __ZNSt3__117__cxx_atomic_implIiNS_22__cxx_atomic_base_implIiEEEC2B8ne190107Ei, symObjAddr: 0x2217C, symBinAddr: 0x100023968, symSize: 0xA8 }
  - { offset: 0x6F75A, size: 0x8, addend: 0x0, symName: __ZNSt3__122__cxx_atomic_base_implIiEC2Ei, symObjAddr: 0x22224, symBinAddr: 0x100023A10, symSize: 0xDC }
  - { offset: 0x6F793, size: 0x8, addend: 0x0, symName: __ZNSt3__110unique_ptrIKN7testing16MatcherInterfaceIRKNS_6vectorINS_12basic_stringIcNS_11char_traitsIcEENS_9allocatorIcEEEENS7_IS9_EEEEEENS_14default_deleteISF_EEEC2B8ne190107EOSI_, symObjAddr: 0x22300, symBinAddr: 0x100023AEC, symSize: 0x2A4 }
  - { offset: 0x6F7CD, size: 0x8, addend: 0x0, symName: __ZNSt3__110unique_ptrIKN7testing16MatcherInterfaceIRKNS_6vectorINS_12basic_stringIcNS_11char_traitsIcEENS_9allocatorIcEEEENS7_IS9_EEEEEENS_14default_deleteISF_EEE7releaseB8ne190107Ev, symObjAddr: 0x225A4, symBinAddr: 0x100023D90, symSize: 0x1BC }
  - { offset: 0x6F802, size: 0x8, addend: 0x0, symName: __ZNSt3__110unique_ptrIKN7testing16MatcherInterfaceIRKNS_6vectorINS_12basic_stringIcNS_11char_traitsIcEENS_9allocatorIcEEEENS7_IS9_EEEEEENS_14default_deleteISF_EEE11get_deleterB8ne190107Ev, symObjAddr: 0x22760, symBinAddr: 0x100023F4C, symSize: 0xB4 }
  - { offset: 0x6F82E, size: 0x8, addend: 0x0, symName: __ZNSt3__117__compressed_pairIPKN7testing16MatcherInterfaceIRKNS_6vectorINS_12basic_stringIcNS_11char_traitsIcEENS_9allocatorIcEEEENS7_IS9_EEEEEENS_14default_deleteISF_EEEC1B8ne190107ISG_SI_EEOT_OT0_, symObjAddr: 0x22814, symBinAddr: 0x100024000, symSize: 0x74 }
  - { offset: 0x6F886, size: 0x8, addend: 0x0, symName: __ZNSt3__117__compressed_pairIPKN7testing16MatcherInterfaceIRKNS_6vectorINS_12basic_stringIcNS_11char_traitsIcEENS_9allocatorIcEEEENS7_IS9_EEEEEENS_14default_deleteISF_EEEC2B8ne190107ISG_SI_EEOT_OT0_, symObjAddr: 0x22888, symBinAddr: 0x100024074, symSize: 0x12C }
  - { offset: 0x6F8DE, size: 0x8, addend: 0x0, symName: __ZNSt3__122__compressed_pair_elemIPKN7testing16MatcherInterfaceIRKNS_6vectorINS_12basic_stringIcNS_11char_traitsIcEENS_9allocatorIcEEEENS7_IS9_EEEEEELi0ELb0EEC2B8ne190107ISG_TnNS_9enable_ifIXntsr7is_sameISH_u7__decayIT_EEE5valueEiE4typeELi0EEEOSK_, symObjAddr: 0x229B4, symBinAddr: 0x1000241A0, symSize: 0x124 }
  - { offset: 0x6F926, size: 0x8, addend: 0x0, symName: __ZNSt3__122__compressed_pair_elemINS_14default_deleteIKN7testing16MatcherInterfaceIRKNS_6vectorINS_12basic_stringIcNS_11char_traitsIcEENS_9allocatorIcEEEENS8_ISA_EEEEEEEELi1ELb1EEC2B8ne190107ISH_TnNS_9enable_ifIXntsr7is_sameISI_u7__decayIT_EEE5valueEiE4typeELi0EEEOSL_, symObjAddr: 0x22AD8, symBinAddr: 0x1000242C4, symSize: 0x4C }
  - { offset: 0x6F96E, size: 0x8, addend: 0x0, symName: __ZN7testing8internal11MatcherBaseIRKNSt3__16vectorINS2_12basic_stringIcNS2_11char_traitsIcEENS2_9allocatorIcEEEENS7_IS9_EEEEED2Ev, symObjAddr: 0x22B24, symBinAddr: 0x100024310, symSize: 0x140 }
  - { offset: 0x6F998, size: 0x8, addend: 0x0, symName: __ZN7testing8internal11MatcherBaseIRKNSt3__16vectorINS2_12basic_stringIcNS2_11char_traitsIcEENS2_9allocatorIcEEEENS7_IS9_EEEEE7DestroyEv, symObjAddr: 0x22C64, symBinAddr: 0x100024450, symSize: 0x468 }
  - { offset: 0x6F9BE, size: 0x8, addend: 0x0, symName: __ZNK7testing8internal11MatcherBaseIRKNSt3__16vectorINS2_12basic_stringIcNS2_11char_traitsIcEENS2_9allocatorIcEEEENS7_IS9_EEEEE8IsSharedEv, symObjAddr: 0x230CC, symBinAddr: 0x1000248B8, symSize: 0x27C }
  - { offset: 0x6F9E4, size: 0x8, addend: 0x0, symName: __ZN7testing8internal17SharedPayloadBase5UnrefEv, symObjAddr: 0x23348, symBinAddr: 0x100024B34, symSize: 0xC4 }
  - { offset: 0x6FA0A, size: 0x8, addend: 0x0, symName: __ZNSt3__113__atomic_baseIiLb1EE9fetch_subB8ne190107EiNS_12memory_orderE, symObjAddr: 0x2340C, symBinAddr: 0x100024BF8, symSize: 0xC4 }
  - { offset: 0x6FA68, size: 0x8, addend: 0x0, symName: __ZN7testing8internal8GTestLog9GetStreamEv, symObjAddr: 0x237BC, symBinAddr: 0x100024FA8, symSize: 0x5C }
  - { offset: 0x6FAA5, size: 0x8, addend: 0x0, symName: __ZN7testing8internal24DummyMatchResultListenerC1Ev, symObjAddr: 0x23818, symBinAddr: 0x100025004, symSize: 0x64 }
  - { offset: 0x6FACF, size: 0x8, addend: 0x0, symName: __ZNK7testing8internal11MatcherBaseIRKNSt3__16vectorINS2_12basic_stringIcNS2_11char_traitsIcEENS2_9allocatorIcEEEENS7_IS9_EEEEE15MatchAndExplainESD_PNS_19MatchResultListenerE, symObjAddr: 0x2387C, symBinAddr: 0x100025068, symSize: 0x5D4 }
  - { offset: 0x6FB14, size: 0x8, addend: 0x0, symName: __ZN7testing8internal24DummyMatchResultListenerD1Ev, symObjAddr: 0x23E50, symBinAddr: 0x10002563C, symSize: 0x64 }
  - { offset: 0x6FB40, size: 0x8, addend: 0x0, symName: __ZN7testing8internal24DummyMatchResultListenerC2Ev, symObjAddr: 0x23EB4, symBinAddr: 0x1000256A0, symSize: 0xFC }
  - { offset: 0x6FB6A, size: 0x8, addend: 0x0, symName: __ZN7testing19MatchResultListenerC2EPNSt3__113basic_ostreamIcNS1_11char_traitsIcEEEE, symObjAddr: 0x23FB0, symBinAddr: 0x10002579C, symSize: 0xF4 }
  - { offset: 0x6FBA2, size: 0x8, addend: 0x0, symName: __ZN7testing8internal24DummyMatchResultListenerD0Ev, symObjAddr: 0x240A4, symBinAddr: 0x100025890, symSize: 0x68 }
  - { offset: 0x6FBCE, size: 0x8, addend: 0x0, symName: __ZN7testing8internal24DummyMatchResultListenerD2Ev, symObjAddr: 0x2410C, symBinAddr: 0x1000258F8, symSize: 0x64 }
  - { offset: 0x6FBFA, size: 0x8, addend: 0x0, symName: __ZN7testing19MatchResultListenerD2Ev, symObjAddr: 0x24170, symBinAddr: 0x10002595C, symSize: 0x5C }
  - { offset: 0x6FC25, size: 0x8, addend: 0x0, symName: __ZNSt3__19basic_iosIcNS_11char_traitsIcEEEC2B8ne190107Ev, symObjAddr: 0x241CC, symBinAddr: 0x1000259B8, symSize: 0xF8 }
  - { offset: 0x6FC4F, size: 0x8, addend: 0x0, symName: __ZNSt3__114basic_iostreamIcNS_11char_traitsIcEEEC2B8ne190107EPNS_15basic_streambufIcS2_EE, symObjAddr: 0x242C4, symBinAddr: 0x100025AB0, symSize: 0x2F4 }
  - { offset: 0x6FC95, size: 0x8, addend: 0x0, symName: __ZNSt3__115basic_stringbufIcNS_11char_traitsIcEENS_9allocatorIcEEEC1B8ne190107Ej, symObjAddr: 0x245B8, symBinAddr: 0x100025DA4, symSize: 0x6C }
  - { offset: 0x6FCCE, size: 0x8, addend: 0x0, symName: __ZNSt3__18ios_baseC2B8ne190107Ev, symObjAddr: 0x24624, symBinAddr: 0x100025E10, symSize: 0xE4 }
  - { offset: 0x6FCF8, size: 0x8, addend: 0x0, symName: __ZNSt3__113basic_istreamIcNS_11char_traitsIcEEEC2B8ne190107EPNS_15basic_streambufIcS2_EE, symObjAddr: 0x24708, symBinAddr: 0x100025EF4, symSize: 0x344 }
  - { offset: 0x6FD3D, size: 0x8, addend: 0x0, symName: __ZNSt3__113basic_ostreamIcNS_11char_traitsIcEEEC2B8ne190107Ev, symObjAddr: 0x24A4C, symBinAddr: 0x100026238, symSize: 0x19C }
  - { offset: 0x6FD74, size: 0x8, addend: 0x0, symName: __ZNSt3__19basic_iosIcNS_11char_traitsIcEEE4initB8ne190107EPNS_15basic_streambufIcS2_EE, symObjAddr: 0x24BE8, symBinAddr: 0x1000263D4, symSize: 0x234 }
  - { offset: 0x6FDAB, size: 0x8, addend: 0x0, symName: __ZNSt3__118_SentinelValueFillINS_11char_traitsIcEEE6__initB8ne190107Ev, symObjAddr: 0x24E1C, symBinAddr: 0x100026608, symSize: 0x100 }
  - { offset: 0x6FDD1, size: 0x8, addend: 0x0, symName: __ZNSt3__111char_traitsIcE3eofB8ne190107Ev, symObjAddr: 0x24F24, symBinAddr: 0x100026710, symSize: 0x0 }
  - { offset: 0x6FDE5, size: 0x8, addend: 0x0, symName: __ZNSt3__115basic_stringbufIcNS_11char_traitsIcEENS_9allocatorIcEEEC2B8ne190107Ej, symObjAddr: 0x24F2C, symBinAddr: 0x100026718, symSize: 0x198 }
  - { offset: 0x6FE1E, size: 0x8, addend: 0x0, symName: __ZNSt3__112basic_stringIcNS_11char_traitsIcEENS_9allocatorIcEEEC1B8ne190107Ev, symObjAddr: 0x250C4, symBinAddr: 0x1000268B0, symSize: 0x64 }
  - { offset: 0x6FE48, size: 0x8, addend: 0x0, symName: __ZNSt3__112basic_stringIcNS_11char_traitsIcEENS_9allocatorIcEEEC2B8ne190107Ev, symObjAddr: 0x25128, symBinAddr: 0x100026914, symSize: 0x240 }
  - { offset: 0x6FE73, size: 0x8, addend: 0x0, symName: __ZNSt3__117__compressed_pairINS_12basic_stringIcNS_11char_traitsIcEENS_9allocatorIcEEE5__repES5_EC1B8ne190107INS_16__value_init_tagENS_18__default_init_tagEEEOT_OT0_, symObjAddr: 0x25368, symBinAddr: 0x100026B54, symSize: 0x74 }
  - { offset: 0x6FECB, size: 0x8, addend: 0x0, symName: __ZNSt3__117__compressed_pairINS_12basic_stringIcNS_11char_traitsIcEENS_9allocatorIcEEE5__repES5_EC2B8ne190107INS_16__value_init_tagENS_18__default_init_tagEEEOT_OT0_, symObjAddr: 0x253DC, symBinAddr: 0x100026BC8, symSize: 0xC8 }
  - { offset: 0x6FF23, size: 0x8, addend: 0x0, symName: __ZNSt3__122__compressed_pair_elemINS_12basic_stringIcNS_11char_traitsIcEENS_9allocatorIcEEE5__repELi0ELb0EEC2B8ne190107ENS_16__value_init_tagE, symObjAddr: 0x254A4, symBinAddr: 0x100026C90, symSize: 0x6C }
  - { offset: 0x6FF7B, size: 0x8, addend: 0x0, symName: __ZNKSt3__113basic_ostreamIcNS_11char_traitsIcEEE6sentrycvbB8ne190107Ev, symObjAddr: 0x262DC, symBinAddr: 0x100027AC8, symSize: 0xE8 }
  - { offset: 0x6FFA1, size: 0x8, addend: 0x0, symName: __ZNSt3__119ostreambuf_iteratorIcNS_11char_traitsIcEEEC1B8ne190107ERNS_13basic_ostreamIcS2_EE, symObjAddr: 0x26C1C, symBinAddr: 0x100028408, symSize: 0x6C }
  - { offset: 0x6FFD9, size: 0x8, addend: 0x0, symName: __ZNKSt3__18ios_base5flagsB8ne190107Ev, symObjAddr: 0x26C88, symBinAddr: 0x100028474, symSize: 0x130 }
  - { offset: 0x70001, size: 0x8, addend: 0x0, symName: __ZNKSt3__19basic_iosIcNS_11char_traitsIcEEE4fillB8ne190107Ev, symObjAddr: 0x26DB8, symBinAddr: 0x1000285A4, symSize: 0x288 }
  - { offset: 0x70029, size: 0x8, addend: 0x0, symName: __ZNKSt3__119ostreambuf_iteratorIcNS_11char_traitsIcEEE6failedB8ne190107Ev, symObjAddr: 0x27040, symBinAddr: 0x10002882C, symSize: 0xA4 }
  - { offset: 0x7004F, size: 0x8, addend: 0x0, symName: __ZNSt3__19basic_iosIcNS_11char_traitsIcEEE8setstateB8ne190107Ej, symObjAddr: 0x270E4, symBinAddr: 0x1000288D0, symSize: 0x100 }
  - { offset: 0x70084, size: 0x8, addend: 0x0, symName: __ZNKSt3__18ios_base5widthB8ne190107Ev, symObjAddr: 0x271E4, symBinAddr: 0x1000289D0, symSize: 0x10C }
  - { offset: 0x700AC, size: 0x8, addend: 0x0, symName: __ZNSt3__115basic_streambufIcNS_11char_traitsIcEEE5sputnB8ne190107EPKcl, symObjAddr: 0x272F0, symBinAddr: 0x100028ADC, symSize: 0x164 }
  - { offset: 0x700EE, size: 0x8, addend: 0x0, symName: __ZNSt3__112basic_stringIcNS_11char_traitsIcEENS_9allocatorIcEEEC1B8ne190107Emc, symObjAddr: 0x27454, symBinAddr: 0x100028C40, symSize: 0x74 }
  - { offset: 0x70136, size: 0x8, addend: 0x0, symName: __ZNSt3__112basic_stringIcNS_11char_traitsIcEENS_9allocatorIcEEE4dataB8ne190107Ev, symObjAddr: 0x274C8, symBinAddr: 0x100028CB4, symSize: 0x60 }
  - { offset: 0x7015C, size: 0x8, addend: 0x0, symName: __ZNSt3__18ios_base5widthB8ne190107El, symObjAddr: 0x27528, symBinAddr: 0x100028D14, symSize: 0x1B8 }
  - { offset: 0x701A2, size: 0x8, addend: 0x0, symName: __ZNSt3__112basic_stringIcNS_11char_traitsIcEENS_9allocatorIcEEEC2B8ne190107Emc, symObjAddr: 0x276E0, symBinAddr: 0x100028ECC, symSize: 0x238 }
  - { offset: 0x701ED, size: 0x8, addend: 0x0, symName: __ZNSt3__112basic_stringIcNS_11char_traitsIcEENS_9allocatorIcEEE13__get_pointerB8ne190107Ev, symObjAddr: 0x27934, symBinAddr: 0x100029120, symSize: 0x88 }
  - { offset: 0x70213, size: 0x8, addend: 0x0, symName: __ZNSt3__112basic_stringIcNS_11char_traitsIcEENS_9allocatorIcEEE18__get_long_pointerB8ne190107Ev, symObjAddr: 0x279BC, symBinAddr: 0x1000291A8, symSize: 0x184 }
  - { offset: 0x70239, size: 0x8, addend: 0x0, symName: __ZNSt3__112basic_stringIcNS_11char_traitsIcEENS_9allocatorIcEEE19__get_short_pointerB8ne190107Ev, symObjAddr: 0x27B40, symBinAddr: 0x10002932C, symSize: 0x140 }
  - { offset: 0x7025F, size: 0x8, addend: 0x0, symName: __ZNSt3__114pointer_traitsIPcE10pointer_toB8ne190107ERc, symObjAddr: 0x27C88, symBinAddr: 0x100029474, symSize: 0x0 }
  - { offset: 0x70282, size: 0x8, addend: 0x0, symName: __ZNSt3__119ostreambuf_iteratorIcNS_11char_traitsIcEEEC2B8ne190107ERNS_13basic_ostreamIcS2_EE, symObjAddr: 0x27C9C, symBinAddr: 0x100029488, symSize: 0x288 }
  - { offset: 0x702BA, size: 0x8, addend: 0x0, symName: __ZNKSt3__19basic_iosIcNS_11char_traitsIcEEE5rdbufB8ne190107Ev, symObjAddr: 0x27F24, symBinAddr: 0x100029710, symSize: 0xF8 }
  - { offset: 0x702E2, size: 0x8, addend: 0x0, symName: __ZNKSt3__18ios_base5rdbufB8ne190107Ev, symObjAddr: 0x2801C, symBinAddr: 0x100029808, symSize: 0x10C }
  - { offset: 0x70308, size: 0x8, addend: 0x0, symName: __ZNKSt3__118_SentinelValueFillINS_11char_traitsIcEEE8__is_setB8ne190107Ev, symObjAddr: 0x28128, symBinAddr: 0x100029914, symSize: 0x108 }
  - { offset: 0x7032E, size: 0x8, addend: 0x0, symName: __ZNKSt3__19basic_iosIcNS_11char_traitsIcEEE5widenB8ne190107Ec, symObjAddr: 0x28230, symBinAddr: 0x100029A1C, symSize: 0x404 }
  - { offset: 0x70367, size: 0x8, addend: 0x0, symName: __ZNSt3__118_SentinelValueFillINS_11char_traitsIcEEEaSB8ne190107Ei, symObjAddr: 0x28634, symBinAddr: 0x100029E20, symSize: 0x124 }
  - { offset: 0x7039C, size: 0x8, addend: 0x0, symName: __ZNKSt3__118_SentinelValueFillINS_11char_traitsIcEEE5__getB8ne190107Ev, symObjAddr: 0x28758, symBinAddr: 0x100029F44, symSize: 0xF4 }
  - { offset: 0x70407, size: 0x8, addend: 0x0, symName: __ZNKSt3__15ctypeIcE5widenB8ne190107Ec, symObjAddr: 0x289A0, symBinAddr: 0x10002A18C, symSize: 0x154 }
  - { offset: 0x7043C, size: 0x8, addend: 0x0, symName: __ZNSt3__18ios_base8setstateB8ne190107Ej, symObjAddr: 0x28AF4, symBinAddr: 0x10002A2E0, symSize: 0x1A4 }
  - { offset: 0x70473, size: 0x8, addend: 0x0, symName: __ZN7testing25StringMatchResultListenerC2Ev, symObjAddr: 0x28C98, symBinAddr: 0x10002A484, symSize: 0x22C }
  - { offset: 0x7049D, size: 0x8, addend: 0x0, symName: __ZN7testing25StringMatchResultListenerD0Ev, symObjAddr: 0x28EC4, symBinAddr: 0x10002A6B0, symSize: 0x68 }
  - { offset: 0x704CA, size: 0x8, addend: 0x0, symName: __ZNK7testing19MatchResultListener12IsInterestedEv, symObjAddr: 0x28F2C, symBinAddr: 0x10002A718, symSize: 0x114 }
  - { offset: 0x704F0, size: 0x8, addend: 0x0, symName: __ZN7testing19MatchResultListener6streamEv, symObjAddr: 0x290AC, symBinAddr: 0x10002A898, symSize: 0x10C }
  - { offset: 0x70516, size: 0x8, addend: 0x0, symName: __ZN7testing8internal16UniversalPrinterINSt3__16vectorINS2_12basic_stringIcNS2_11char_traitsIcEENS2_9allocatorIcEEEENS7_IS9_EEEEE5PrintERKSB_PNS2_13basic_ostreamIcS6_EE, symObjAddr: 0x293E0, symBinAddr: 0x10002ABCC, symSize: 0x0 }
  - { offset: 0x70549, size: 0x8, addend: 0x0, symName: __ZN7testing8internal16ContainerPrinter10PrintValueINSt3__16vectorINS3_12basic_stringIcNS3_11char_traitsIcEENS3_9allocatorIcEEEENS8_ISA_EEEEvEEvRKT_PNS3_13basic_ostreamIcS7_EE, symObjAddr: 0x29524, symBinAddr: 0x10002AD10, symSize: 0x0 }
  - { offset: 0x705FF, size: 0x8, addend: 0x0, symName: __ZNKSt3__16vectorINS_12basic_stringIcNS_11char_traitsIcEENS_9allocatorIcEEEENS4_IS6_EEE5beginB8ne190107Ev, symObjAddr: 0x29CB0, symBinAddr: 0x10002B49C, symSize: 0xA8 }
  - { offset: 0x70627, size: 0x8, addend: 0x0, symName: __ZNKSt3__16vectorINS_12basic_stringIcNS_11char_traitsIcEENS_9allocatorIcEEEENS4_IS6_EEE3endB8ne190107Ev, symObjAddr: 0x29D58, symBinAddr: 0x10002B544, symSize: 0xAC }
  - { offset: 0x7064F, size: 0x8, addend: 0x0, symName: __ZNKSt3__111__wrap_iterIPKNS_12basic_stringIcNS_11char_traitsIcEENS_9allocatorIcEEEEEdeB8ne190107Ev, symObjAddr: 0x29E9C, symBinAddr: 0x10002B688, symSize: 0xD4 }
  - { offset: 0x70675, size: 0x8, addend: 0x0, symName: __ZNSt3__111__wrap_iterIPKNS_12basic_stringIcNS_11char_traitsIcEENS_9allocatorIcEEEEEppB8ne190107Ev, symObjAddr: 0x29FDC, symBinAddr: 0x10002B7C8, symSize: 0x178 }
  - { offset: 0x7069B, size: 0x8, addend: 0x0, symName: __ZNKSt3__16vectorINS_12basic_stringIcNS_11char_traitsIcEENS_9allocatorIcEEEENS4_IS6_EEE11__make_iterB8ne190107EPKS6_, symObjAddr: 0x2A154, symBinAddr: 0x10002B940, symSize: 0x1E8 }
  - { offset: 0x706D2, size: 0x8, addend: 0x0, symName: __ZNSt3__111__wrap_iterIPKNS_12basic_stringIcNS_11char_traitsIcEENS_9allocatorIcEEEEEC1B8ne190107ES8_, symObjAddr: 0x2A33C, symBinAddr: 0x10002BB28, symSize: 0x6C }
  - { offset: 0x7070A, size: 0x8, addend: 0x0, symName: __ZNSt3__111__wrap_iterIPKNS_12basic_stringIcNS_11char_traitsIcEENS_9allocatorIcEEEEEC2B8ne190107ES8_, symObjAddr: 0x2A3A8, symBinAddr: 0x10002BB94, symSize: 0xB8 }
  - { offset: 0x70742, size: 0x8, addend: 0x0, symName: __ZNKSt3__111__wrap_iterIPKNS_12basic_stringIcNS_11char_traitsIcEENS_9allocatorIcEEEEE4baseB8ne190107Ev, symObjAddr: 0x2A460, symBinAddr: 0x10002BC4C, symSize: 0x9C }
  - { offset: 0x70768, size: 0x8, addend: 0x0, symName: __ZN7testing8internal16UniversalPrinterINSt3__112basic_stringIcNS2_11char_traitsIcEENS2_9allocatorIcEEEEE5PrintERKS8_PNS2_13basic_ostreamIcS5_EE, symObjAddr: 0x2A504, symBinAddr: 0x10002BCF0, symSize: 0x0 }
  - { offset: 0x707AF, size: 0x8, addend: 0x0, symName: __ZNKSt9type_info4nameB8ne190107Ev, symObjAddr: 0x2AA6C, symBinAddr: 0x10002C258, symSize: 0x118 }
  - { offset: 0x707F5, size: 0x8, addend: 0x0, symName: __ZNKSt3__112basic_stringIcNS_11char_traitsIcEENS_9allocatorIcEEE4findB8ne190107EPKcm, symObjAddr: 0x2ADD4, symBinAddr: 0x10002C5C0, symSize: 0xA8 }
  - { offset: 0x70839, size: 0x8, addend: 0x0, symName: __ZNKSt3__112basic_stringIcNS_11char_traitsIcEENS_9allocatorIcEEE4dataB8ne190107Ev, symObjAddr: 0x2B20C, symBinAddr: 0x10002C9F8, symSize: 0x60 }
  - { offset: 0x7085F, size: 0x8, addend: 0x0, symName: __ZNSt3__111char_traitsIcE4findB8ne190107EPKcmRS2_, symObjAddr: 0x2B6C0, symBinAddr: 0x10002CEAC, symSize: 0x0 }
  - { offset: 0x7089E, size: 0x8, addend: 0x0, symName: __ZNSt3__111char_traitsIcE7compareB8ne190107EPKcS3_m, symObjAddr: 0x2B7A0, symBinAddr: 0x10002CF8C, symSize: 0x0 }
  - { offset: 0x708DD, size: 0x8, addend: 0x0, symName: __ZNKSt3__112basic_stringIcNS_11char_traitsIcEENS_9allocatorIcEEE13__get_pointerB8ne190107Ev, symObjAddr: 0x2B844, symBinAddr: 0x10002D030, symSize: 0x88 }
  - { offset: 0x70903, size: 0x8, addend: 0x0, symName: __ZNKSt3__112basic_stringIcNS_11char_traitsIcEENS_9allocatorIcEEE18__get_long_pointerB8ne190107Ev, symObjAddr: 0x2B8CC, symBinAddr: 0x10002D0B8, symSize: 0x184 }
  - { offset: 0x70929, size: 0x8, addend: 0x0, symName: __ZNKSt3__112basic_stringIcNS_11char_traitsIcEENS_9allocatorIcEEE19__get_short_pointerB8ne190107Ev, symObjAddr: 0x2BA50, symBinAddr: 0x10002D23C, symSize: 0x140 }
  - { offset: 0x7094F, size: 0x8, addend: 0x0, symName: __ZNSt3__114pointer_traitsIPKcE10pointer_toB8ne190107ERS1_, symObjAddr: 0x2BB98, symBinAddr: 0x10002D384, symSize: 0x0 }
  - { offset: 0x70972, size: 0x8, addend: 0x0, symName: __ZNKSt3__112basic_stringIcNS_11char_traitsIcEENS_9allocatorIcEEE6lengthB8ne190107Ev, symObjAddr: 0x2BBAC, symBinAddr: 0x10002D398, symSize: 0x5C }
  - { offset: 0x70998, size: 0x8, addend: 0x0, symName: __ZNKSt3__112basic_stringIcNS_11char_traitsIcEENS_9allocatorIcEEE13find_first_ofB8ne190107EPKcm, symObjAddr: 0x2BC08, symBinAddr: 0x10002D3F4, symSize: 0xA8 }
  - { offset: 0x709DC, size: 0x8, addend: 0x0, symName: __ZNSt3__111char_traitsIcE2eqEcc, symObjAddr: 0x2C370, symBinAddr: 0x10002DB5C, symSize: 0x0 }
  - { offset: 0x70A0D, size: 0x8, addend: 0x0, symName: __ZNKSt3__112basic_stringIcNS_11char_traitsIcEENS_9allocatorIcEEE5emptyB8ne190107Ev, symObjAddr: 0x2C394, symBinAddr: 0x10002DB80, symSize: 0x64 }
  - { offset: 0x70A33, size: 0x8, addend: 0x0, symName: __ZN7testing15AssertionResult13AppendMessageERKNS_7MessageE, symObjAddr: 0x2C3F8, symBinAddr: 0x10002DBE4, symSize: 0x484 }
  - { offset: 0x70A69, size: 0x8, addend: 0x0, symName: __ZN7testing7MessagelsINSt3__112basic_stringIcNS2_11char_traitsIcEENS2_9allocatorIcEEEEEERS0_RKT_, symObjAddr: 0x2C87C, symBinAddr: 0x10002E068, symSize: 0x178 }
  - { offset: 0x70AAD, size: 0x8, addend: 0x0, symName: __ZNSt3__110unique_ptrINS_12basic_stringIcNS_11char_traitsIcEENS_9allocatorIcEEEENS_14default_deleteIS6_EEEaSB8ne190107EOS9_, symObjAddr: 0x2CAFC, symBinAddr: 0x10002E2E8, symSize: 0x138 }
  - { offset: 0x70AE1, size: 0x8, addend: 0x0, symName: __ZNSt3__110unique_ptrINS_12basic_stringIcNS_11char_traitsIcEENS_9allocatorIcEEEENS_14default_deleteIS6_EEED1B8ne190107Ev, symObjAddr: 0x2CC34, symBinAddr: 0x10002E420, symSize: 0x64 }
  - { offset: 0x70B0B, size: 0x8, addend: 0x0, symName: __ZNKSt3__110unique_ptrINS_12basic_stringIcNS_11char_traitsIcEENS_9allocatorIcEEEENS_14default_deleteIS6_EEEptB8ne190107Ev, symObjAddr: 0x2CC98, symBinAddr: 0x10002E484, symSize: 0x10C }
  - { offset: 0x70B31, size: 0x8, addend: 0x0, symName: __ZNKSt3__112basic_stringIcNS_11char_traitsIcEENS_9allocatorIcEEE5c_strB8ne190107Ev, symObjAddr: 0x2CDA4, symBinAddr: 0x10002E590, symSize: 0x5C }
  - { offset: 0x70B57, size: 0x8, addend: 0x0, symName: __ZNKSt3__110unique_ptrINS_12basic_stringIcNS_11char_traitsIcEENS_9allocatorIcEEEENS_14default_deleteIS6_EEEcvbB8ne190107Ev, symObjAddr: 0x2CE00, symBinAddr: 0x10002E5EC, symSize: 0x114 }
  - { offset: 0x70B7D, size: 0x8, addend: 0x0, symName: __ZNKSt3__117__compressed_pairIPNS_12basic_stringIcNS_11char_traitsIcEENS_9allocatorIcEEEENS_14default_deleteIS6_EEE5firstB8ne190107Ev, symObjAddr: 0x2CF14, symBinAddr: 0x10002E700, symSize: 0xEC }
  - { offset: 0x70BA3, size: 0x8, addend: 0x0, symName: __ZNKSt3__122__compressed_pair_elemIPNS_12basic_stringIcNS_11char_traitsIcEENS_9allocatorIcEEEELi0ELb0EE5__getB8ne190107Ev, symObjAddr: 0x2D000, symBinAddr: 0x10002E7EC, symSize: 0x8C }
  - { offset: 0x70BC9, size: 0x8, addend: 0x0, symName: __ZNSt3__110unique_ptrINS_12basic_stringIcNS_11char_traitsIcEENS_9allocatorIcEEEENS_14default_deleteIS6_EEEC1B8ne190107ILb1EvEEPS6_, symObjAddr: 0x2D08C, symBinAddr: 0x10002E878, symSize: 0x6C }
  - { offset: 0x70C0C, size: 0x8, addend: 0x0, symName: __ZNSt3__110unique_ptrINS_12basic_stringIcNS_11char_traitsIcEENS_9allocatorIcEEEENS_14default_deleteIS6_EEEC2B8ne190107ILb1EvEEPS6_, symObjAddr: 0x2D0F8, symBinAddr: 0x10002E8E4, symSize: 0x250 }
  - { offset: 0x70C54, size: 0x8, addend: 0x0, symName: __ZNSt3__117__compressed_pairIPNS_12basic_stringIcNS_11char_traitsIcEENS_9allocatorIcEEEENS_14default_deleteIS6_EEEC1B8ne190107IRS7_NS_16__value_init_tagEEEOT_OT0_, symObjAddr: 0x2D348, symBinAddr: 0x10002EB34, symSize: 0x74 }
  - { offset: 0x70CAC, size: 0x8, addend: 0x0, symName: __ZNSt3__117__compressed_pairIPNS_12basic_stringIcNS_11char_traitsIcEENS_9allocatorIcEEEENS_14default_deleteIS6_EEEC2B8ne190107IRS7_NS_16__value_init_tagEEEOT_OT0_, symObjAddr: 0x2D3BC, symBinAddr: 0x10002EBA8, symSize: 0x104 }
  - { offset: 0x70D04, size: 0x8, addend: 0x0, symName: __ZNSt3__122__compressed_pair_elemIPNS_12basic_stringIcNS_11char_traitsIcEENS_9allocatorIcEEEELi0ELb0EEC2B8ne190107IRS7_TnNS_9enable_ifIXntsr7is_sameIS8_u7__decayIT_EEE5valueEiE4typeELi0EEEOSC_, symObjAddr: 0x2D4C0, symBinAddr: 0x10002ECAC, symSize: 0x124 }
  - { offset: 0x70D4C, size: 0x8, addend: 0x0, symName: __ZNSt3__122__compressed_pair_elemINS_14default_deleteINS_12basic_stringIcNS_11char_traitsIcEENS_9allocatorIcEEEEEELi1ELb1EEC2B8ne190107ENS_16__value_init_tagE, symObjAddr: 0x2D5E4, symBinAddr: 0x10002EDD0, symSize: 0x48 }
  - { offset: 0x70D81, size: 0x8, addend: 0x0, symName: __ZNSt3__110unique_ptrINS_12basic_stringIcNS_11char_traitsIcEENS_9allocatorIcEEEENS_14default_deleteIS6_EEE5resetB8ne190107EPS6_, symObjAddr: 0x2D62C, symBinAddr: 0x10002EE18, symSize: 0x240 }
  - { offset: 0x70DC5, size: 0x8, addend: 0x0, symName: __ZNSt3__110unique_ptrINS_12basic_stringIcNS_11char_traitsIcEENS_9allocatorIcEEEENS_14default_deleteIS6_EEE7releaseB8ne190107Ev, symObjAddr: 0x2D86C, symBinAddr: 0x10002F058, symSize: 0x1BC }
  - { offset: 0x70DFA, size: 0x8, addend: 0x0, symName: __ZNSt3__110unique_ptrINS_12basic_stringIcNS_11char_traitsIcEENS_9allocatorIcEEEENS_14default_deleteIS6_EEE11get_deleterB8ne190107Ev, symObjAddr: 0x2DA28, symBinAddr: 0x10002F214, symSize: 0xB4 }
  - { offset: 0x70E20, size: 0x8, addend: 0x0, symName: __ZNSt3__117__compressed_pairIPNS_12basic_stringIcNS_11char_traitsIcEENS_9allocatorIcEEEENS_14default_deleteIS6_EEE6secondB8ne190107Ev, symObjAddr: 0x2DADC, symBinAddr: 0x10002F2C8, symSize: 0xC4 }
  - { offset: 0x70E46, size: 0x8, addend: 0x0, symName: __ZNSt3__117__compressed_pairIPNS_12basic_stringIcNS_11char_traitsIcEENS_9allocatorIcEEEENS_14default_deleteIS6_EEE5firstB8ne190107Ev, symObjAddr: 0x2DBA0, symBinAddr: 0x10002F38C, symSize: 0xEC }
  - { offset: 0x70E6C, size: 0x8, addend: 0x0, symName: __ZNKSt3__114default_deleteINS_12basic_stringIcNS_11char_traitsIcEENS_9allocatorIcEEEEEclB8ne190107EPS6_, symObjAddr: 0x2DC8C, symBinAddr: 0x10002F478, symSize: 0xA0 }
  - { offset: 0x70EA0, size: 0x8, addend: 0x0, symName: __ZNSt3__122__compressed_pair_elemIPNS_12basic_stringIcNS_11char_traitsIcEENS_9allocatorIcEEEELi0ELb0EE5__getB8ne190107Ev, symObjAddr: 0x2DD2C, symBinAddr: 0x10002F518, symSize: 0x8C }
  - { offset: 0x70EC6, size: 0x8, addend: 0x0, symName: __ZNSt3__122__compressed_pair_elemINS_14default_deleteINS_12basic_stringIcNS_11char_traitsIcEENS_9allocatorIcEEEEEELi1ELb1EE5__getB8ne190107Ev, symObjAddr: 0x2DDB8, symBinAddr: 0x10002F5A4, symSize: 0x64 }
  - { offset: 0x70EEC, size: 0x8, addend: 0x0, symName: __ZNSt3__110unique_ptrINS_12basic_stringIcNS_11char_traitsIcEENS_9allocatorIcEEEENS_14default_deleteIS6_EEED2B8ne190107Ev, symObjAddr: 0x2DE1C, symBinAddr: 0x10002F608, symSize: 0x68 }
  - { offset: 0x70F16, size: 0x8, addend: 0x0, symName: __ZNKSt3__110unique_ptrINS_18basic_stringstreamIcNS_11char_traitsIcEENS_9allocatorIcEEEENS_14default_deleteIS6_EEEdeB8ne190107Ev, symObjAddr: 0x2DE84, symBinAddr: 0x10002F670, symSize: 0x144 }
  - { offset: 0x70F3C, size: 0x8, addend: 0x0, symName: __ZNKSt3__117__compressed_pairIPNS_18basic_stringstreamIcNS_11char_traitsIcEENS_9allocatorIcEEEENS_14default_deleteIS6_EEE5firstB8ne190107Ev, symObjAddr: 0x2DFC8, symBinAddr: 0x10002F7B4, symSize: 0xEC }
  - { offset: 0x70F62, size: 0x8, addend: 0x0, symName: __ZNKSt3__122__compressed_pair_elemIPNS_18basic_stringstreamIcNS_11char_traitsIcEENS_9allocatorIcEEEELi0ELb0EE5__getB8ne190107Ev, symObjAddr: 0x2E0B4, symBinAddr: 0x10002F8A0, symSize: 0x8C }
  - { offset: 0x70F88, size: 0x8, addend: 0x0, symName: __ZNKRSt3__115basic_stringbufIcNS_11char_traitsIcEENS_9allocatorIcEEE3strB8ne190107Ev, symObjAddr: 0x2E140, symBinAddr: 0x10002F92C, symSize: 0x324 }
  - { offset: 0x70FAF, size: 0x8, addend: 0x0, symName: __ZNKSt3__115basic_stringbufIcNS_11char_traitsIcEENS_9allocatorIcEEE3strB8ne190107IS4_Qsr14__is_allocatorITL0__EE5valueEENS_12basic_stringIcS2_T_EERKS9_, symObjAddr: 0x2E464, symBinAddr: 0x10002FC50, symSize: 0x2E0 }
  - { offset: 0x70FEF, size: 0x8, addend: 0x0, symName: __ZNKSt3__112basic_stringIcNS_11char_traitsIcEENS_9allocatorIcEEE13get_allocatorB8ne190107Ev, symObjAddr: 0x2E744, symBinAddr: 0x10002FF30, symSize: 0x5C }
  - { offset: 0x71015, size: 0x8, addend: 0x0, symName: __ZNKSt3__115basic_stringbufIcNS_11char_traitsIcEENS_9allocatorIcEEE4viewB8ne190107Ev, symObjAddr: 0x2E7A0, symBinAddr: 0x10002FF8C, symSize: 0x84C }
  - { offset: 0x7103E, size: 0x8, addend: 0x0, symName: __ZNSt3__112basic_stringIcNS_11char_traitsIcEENS_9allocatorIcEEEC1INS_17basic_string_viewIcS2_EETnNS_9enable_ifIXaasr33__can_be_converted_to_string_viewIcS2_T_EE5valuentsr17__is_same_uncvrefISA_S5_EE5valueEiE4typeELi0EEERKSA_RKS4_, symObjAddr: 0x2EFEC, symBinAddr: 0x1000307D8, symSize: 0x74 }
  - { offset: 0x71096, size: 0x8, addend: 0x0, symName: __ZNKSt3__115basic_streambufIcNS_11char_traitsIcEEE4pptrB8ne190107Ev, symObjAddr: 0x2F060, symBinAddr: 0x10003084C, symSize: 0x10C }
  - { offset: 0x710BC, size: 0x8, addend: 0x0, symName: __ZNKSt3__115basic_streambufIcNS_11char_traitsIcEEE5pbaseB8ne190107Ev, symObjAddr: 0x2F16C, symBinAddr: 0x100030958, symSize: 0x10C }
  - { offset: 0x710E8, size: 0x8, addend: 0x0, symName: __ZNSt3__117basic_string_viewIcNS_11char_traitsIcEEEC1B8ne190107ITkNS_19contiguous_iteratorEPcTkNS_18sized_sentinel_forITL0__EES5_Qaa9is_same_vINS_11conditionalIXsr21__is_primary_templateINS_15iterator_traitsIu14__remove_cvrefIS7_EEEEE5valueENS_26indirectly_readable_traitsISA_EESB_E4type10value_typeET_Ent16is_convertible_vITL0_0_mEEESH_T0_, symObjAddr: 0x2F278, symBinAddr: 0x100030A64, symSize: 0x74 }
  - { offset: 0x71142, size: 0x8, addend: 0x0, symName: __ZNKSt3__115basic_streambufIcNS_11char_traitsIcEEE5ebackB8ne190107Ev, symObjAddr: 0x2F2EC, symBinAddr: 0x100030AD8, symSize: 0x10C }
  - { offset: 0x71168, size: 0x8, addend: 0x0, symName: __ZNKSt3__115basic_streambufIcNS_11char_traitsIcEEE5egptrB8ne190107Ev, symObjAddr: 0x2F3F8, symBinAddr: 0x100030BE4, symSize: 0x10C }
  - { offset: 0x7118E, size: 0x8, addend: 0x0, symName: __ZNSt3__117basic_string_viewIcNS_11char_traitsIcEEEC1B8ne190107Ev, symObjAddr: 0x2F504, symBinAddr: 0x100030CF0, symSize: 0x64 }
  - { offset: 0x711B8, size: 0x8, addend: 0x0, symName: __ZNSt3__117basic_string_viewIcNS_11char_traitsIcEEEC2B8ne190107ITkNS_19contiguous_iteratorEPcTkNS_18sized_sentinel_forITL0__EES5_Qaa9is_same_vINS_11conditionalIXsr21__is_primary_templateINS_15iterator_traitsIu14__remove_cvrefIS7_EEEEE5valueENS_26indirectly_readable_traitsISA_EESB_E4type10value_typeET_Ent16is_convertible_vITL0_0_mEEESH_T0_, symObjAddr: 0x2F568, symBinAddr: 0x100030D54, symSize: 0x104 }
  - { offset: 0x71212, size: 0x8, addend: 0x0, symName: __ZNSt3__117basic_string_viewIcNS_11char_traitsIcEEEC2B8ne190107Ev, symObjAddr: 0x2F698, symBinAddr: 0x100030E84, symSize: 0xD8 }
  - { offset: 0x7123C, size: 0x8, addend: 0x0, symName: __ZNSt3__112basic_stringIcNS_11char_traitsIcEENS_9allocatorIcEEEC2INS_17basic_string_viewIcS2_EETnNS_9enable_ifIXaasr33__can_be_converted_to_string_viewIcS2_T_EE5valuentsr17__is_same_uncvrefISA_S5_EE5valueEiE4typeELi0EEERKSA_RKS4_, symObjAddr: 0x2F770, symBinAddr: 0x100030F5C, symSize: 0x2A8 }
  - { offset: 0x712B8, size: 0x8, addend: 0x0, symName: __ZNSt3__117__compressed_pairINS_12basic_stringIcNS_11char_traitsIcEENS_9allocatorIcEEE5__repES5_EC1B8ne190107INS_18__default_init_tagERKS5_EEOT_OT0_, symObjAddr: 0x2FA18, symBinAddr: 0x100031204, symSize: 0x74 }
  - { offset: 0x71310, size: 0x8, addend: 0x0, symName: __ZNKSt3__117basic_string_viewIcNS_11char_traitsIcEEE4dataB8ne190107Ev, symObjAddr: 0x2FA8C, symBinAddr: 0x100031278, symSize: 0x9C }
  - { offset: 0x71336, size: 0x8, addend: 0x0, symName: __ZNKSt3__117basic_string_viewIcNS_11char_traitsIcEEE4sizeB8ne190107Ev, symObjAddr: 0x2FB28, symBinAddr: 0x100031314, symSize: 0xA0 }
  - { offset: 0x7135C, size: 0x8, addend: 0x0, symName: __ZNSt3__117__compressed_pairINS_12basic_stringIcNS_11char_traitsIcEENS_9allocatorIcEEE5__repES5_EC2B8ne190107INS_18__default_init_tagERKS5_EEOT_OT0_, symObjAddr: 0x2FBC8, symBinAddr: 0x1000313B4, symSize: 0xF0 }
  - { offset: 0x713B4, size: 0x8, addend: 0x0, symName: __ZNSt3__122__compressed_pair_elemINS_9allocatorIcEELi1ELb1EEC2B8ne190107IRKS2_TnNS_9enable_ifIXntsr7is_sameIS3_u7__decayIT_EEE5valueEiE4typeELi0EEEOS8_, symObjAddr: 0x2FCB8, symBinAddr: 0x1000314A4, symSize: 0x4C }
  - { offset: 0x713FC, size: 0x8, addend: 0x0, symName: __ZNKSt3__112basic_stringIcNS_11char_traitsIcEENS_9allocatorIcEEE7__allocB8ne190107Ev, symObjAddr: 0x2FD04, symBinAddr: 0x1000314F0, symSize: 0xB4 }
  - { offset: 0x71422, size: 0x8, addend: 0x0, symName: __ZNKSt3__117__compressed_pairINS_12basic_stringIcNS_11char_traitsIcEENS_9allocatorIcEEE5__repES5_E6secondB8ne190107Ev, symObjAddr: 0x2FDB8, symBinAddr: 0x1000315A4, symSize: 0xC4 }
  - { offset: 0x71448, size: 0x8, addend: 0x0, symName: __ZNKSt3__122__compressed_pair_elemINS_9allocatorIcEELi1ELb1EE5__getB8ne190107Ev, symObjAddr: 0x2FE7C, symBinAddr: 0x100031668, symSize: 0x64 }
  - { offset: 0x7146E, size: 0x8, addend: 0x0, symName: __ZN7testing25StringMatchResultListenerD2Ev, symObjAddr: 0x2FEE0, symBinAddr: 0x1000316CC, symSize: 0xC4 }
  - { offset: 0x7149B, size: 0x8, addend: 0x0, symName: __ZNSt3__118basic_stringstreamIcNS_11char_traitsIcEENS_9allocatorIcEEED2Ev, symObjAddr: 0x2FFA4, symBinAddr: 0x100031790, symSize: 0x224 }
  - { offset: 0x714D5, size: 0x8, addend: 0x0, symName: __ZThn16_NSt3__118basic_stringstreamIcNS_11char_traitsIcEENS_9allocatorIcEEED1Ev, symObjAddr: 0x301C8, symBinAddr: 0x1000319B4, symSize: 0x1C }
  - { offset: 0x714EC, size: 0x8, addend: 0x0, symName: __ZTv0_n24_NSt3__118basic_stringstreamIcNS_11char_traitsIcEENS_9allocatorIcEEED1Ev, symObjAddr: 0x301E4, symBinAddr: 0x1000319D0, symSize: 0xA0 }
  - { offset: 0x71509, size: 0x8, addend: 0x0, symName: __ZNSt3__115basic_stringbufIcNS_11char_traitsIcEENS_9allocatorIcEEED1Ev, symObjAddr: 0x30284, symBinAddr: 0x100031A70, symSize: 0x64 }
  - { offset: 0x71536, size: 0x8, addend: 0x0, symName: __ZNSt3__115basic_stringbufIcNS_11char_traitsIcEENS_9allocatorIcEEED2Ev, symObjAddr: 0x302E8, symBinAddr: 0x100031AD4, symSize: 0xC4 }
  - { offset: 0x71563, size: 0x8, addend: 0x0, symName: __ZN7testing7MatcherIRKNSt3__16vectorINS1_12basic_stringIcNS1_11char_traitsIcEENS1_9allocatorIcEEEENS6_IS8_EEEEED2Ev, symObjAddr: 0x303AC, symBinAddr: 0x100031B98, symSize: 0x64 }
  - { offset: 0x7158F, size: 0x8, addend: 0x0, symName: __ZNK7testing15AssertionResult7messageEv, symObjAddr: 0x30410, symBinAddr: 0x100031BFC, symSize: 0x150 }
  - { offset: 0x715B5, size: 0x8, addend: 0x0, symName: __ZN7testing7MessageD2Ev, symObjAddr: 0x30560, symBinAddr: 0x100031D4C, symSize: 0x64 }
  - { offset: 0x715E1, size: 0x8, addend: 0x0, symName: __ZNSt3__110unique_ptrINS_18basic_stringstreamIcNS_11char_traitsIcEENS_9allocatorIcEEEENS_14default_deleteIS6_EEED1B8ne190107Ev, symObjAddr: 0x305C4, symBinAddr: 0x100031DB0, symSize: 0x64 }
  - { offset: 0x7160B, size: 0x8, addend: 0x0, symName: __ZNSt3__110unique_ptrINS_18basic_stringstreamIcNS_11char_traitsIcEENS_9allocatorIcEEEENS_14default_deleteIS6_EEED2B8ne190107Ev, symObjAddr: 0x30628, symBinAddr: 0x100031E14, symSize: 0x68 }
  - { offset: 0x71635, size: 0x8, addend: 0x0, symName: __ZNSt3__110unique_ptrINS_18basic_stringstreamIcNS_11char_traitsIcEENS_9allocatorIcEEEENS_14default_deleteIS6_EEE5resetB8ne190107EPS6_, symObjAddr: 0x30690, symBinAddr: 0x100031E7C, symSize: 0x240 }
  - { offset: 0x71679, size: 0x8, addend: 0x0, symName: __ZNSt3__117__compressed_pairIPNS_18basic_stringstreamIcNS_11char_traitsIcEENS_9allocatorIcEEEENS_14default_deleteIS6_EEE5firstB8ne190107Ev, symObjAddr: 0x308D0, symBinAddr: 0x1000320BC, symSize: 0xEC }
  - { offset: 0x7169F, size: 0x8, addend: 0x0, symName: __ZNSt3__117__compressed_pairIPNS_18basic_stringstreamIcNS_11char_traitsIcEENS_9allocatorIcEEEENS_14default_deleteIS6_EEE6secondB8ne190107Ev, symObjAddr: 0x309BC, symBinAddr: 0x1000321A8, symSize: 0xC4 }
  - { offset: 0x716C5, size: 0x8, addend: 0x0, symName: __ZNKSt3__114default_deleteINS_18basic_stringstreamIcNS_11char_traitsIcEENS_9allocatorIcEEEEEclB8ne190107EPS6_, symObjAddr: 0x30A80, symBinAddr: 0x10003226C, symSize: 0x18C }
  - { offset: 0x716F9, size: 0x8, addend: 0x0, symName: __ZNSt3__122__compressed_pair_elemIPNS_18basic_stringstreamIcNS_11char_traitsIcEENS_9allocatorIcEEEELi0ELb0EE5__getB8ne190107Ev, symObjAddr: 0x30C0C, symBinAddr: 0x1000323F8, symSize: 0x8C }
  - { offset: 0x7171F, size: 0x8, addend: 0x0, symName: __ZNSt3__122__compressed_pair_elemINS_14default_deleteINS_18basic_stringstreamIcNS_11char_traitsIcEENS_9allocatorIcEEEEEELi1ELb1EE5__getB8ne190107Ev, symObjAddr: 0x30C98, symBinAddr: 0x100032484, symSize: 0x64 }
  - { offset: 0x71745, size: 0x8, addend: 0x0, symName: __ZN7testing15AssertionResultD2Ev, symObjAddr: 0x30CFC, symBinAddr: 0x1000324E8, symSize: 0x68 }
  - { offset: 0x71771, size: 0x8, addend: 0x0, symName: __ZNSt3__16vectorINS_12basic_stringIcNS_11char_traitsIcEENS_9allocatorIcEEEENS4_IS6_EEED2B8ne190107Ev, symObjAddr: 0x30D64, symBinAddr: 0x100032550, symSize: 0x254 }
  - { offset: 0x7179C, size: 0x8, addend: 0x0, symName: __ZNSt3__16vectorINS_12basic_stringIcNS_11char_traitsIcEENS_9allocatorIcEEEENS4_IS6_EEE16__destroy_vectorC1B8ne190107ERS8_, symObjAddr: 0x30FB8, symBinAddr: 0x1000327A4, symSize: 0x6C }
  - { offset: 0x717D5, size: 0x8, addend: 0x0, symName: __ZNSt3__16vectorINS_12basic_stringIcNS_11char_traitsIcEENS_9allocatorIcEEEENS4_IS6_EEE16__destroy_vectorclB8ne190107Ev, symObjAddr: 0x31024, symBinAddr: 0x100032810, symSize: 0x39C }
  - { offset: 0x717FB, size: 0x8, addend: 0x0, symName: __ZNSt3__16vectorINS_12basic_stringIcNS_11char_traitsIcEENS_9allocatorIcEEEENS4_IS6_EEE16__destroy_vectorC2B8ne190107ERS8_, symObjAddr: 0x313C0, symBinAddr: 0x100032BAC, symSize: 0xE8 }
  - { offset: 0x71834, size: 0x8, addend: 0x0, symName: __ZNSt3__16vectorINS_12basic_stringIcNS_11char_traitsIcEENS_9allocatorIcEEEENS4_IS6_EEE7__clearB8ne190107Ev, symObjAddr: 0x314A8, symBinAddr: 0x100032C94, symSize: 0xA0 }
  - { offset: 0x7185A, size: 0x8, addend: 0x0, symName: __ZNKSt3__16vectorINS_12basic_stringIcNS_11char_traitsIcEENS_9allocatorIcEEEENS4_IS6_EEE17__annotate_deleteB8ne190107Ev, symObjAddr: 0x31548, symBinAddr: 0x100032D34, symSize: 0x210 }
  - { offset: 0x71880, size: 0x8, addend: 0x0, symName: __ZNSt3__116allocator_traitsINS_9allocatorINS_12basic_stringIcNS_11char_traitsIcEENS1_IcEEEEEEE10deallocateB8ne190107ERS7_PS6_m, symObjAddr: 0x31760, symBinAddr: 0x100032F4C, symSize: 0x0 }
  - { offset: 0x718C2, size: 0x8, addend: 0x0, symName: __ZNSt3__16vectorINS_12basic_stringIcNS_11char_traitsIcEENS_9allocatorIcEEEENS4_IS6_EEE7__allocB8ne190107Ev, symObjAddr: 0x31794, symBinAddr: 0x100032F80, symSize: 0xC4 }
  - { offset: 0x718E8, size: 0x8, addend: 0x0, symName: __ZNKSt3__16vectorINS_12basic_stringIcNS_11char_traitsIcEENS_9allocatorIcEEEENS4_IS6_EEE8capacityB8ne190107Ev, symObjAddr: 0x31858, symBinAddr: 0x100033044, symSize: 0x124 }
  - { offset: 0x7190E, size: 0x8, addend: 0x0, symName: __ZNSt3__16vectorINS_12basic_stringIcNS_11char_traitsIcEENS_9allocatorIcEEEENS4_IS6_EEE22__base_destruct_at_endB8ne190107EPS6_, symObjAddr: 0x3197C, symBinAddr: 0x100033168, symSize: 0x1C8 }
  - { offset: 0x71952, size: 0x8, addend: 0x0, symName: __ZNSt3__116allocator_traitsINS_9allocatorINS_12basic_stringIcNS_11char_traitsIcEENS1_IcEEEEEEE7destroyB8ne190107IS6_vTnNS_9enable_ifIXntsr13__has_destroyIS7_PT_EE5valueEiE4typeELi0EEEvRS7_SC_, symObjAddr: 0x31B4C, symBinAddr: 0x100033338, symSize: 0x0 }
  - { offset: 0x71992, size: 0x8, addend: 0x0, symName: __ZNKSt3__16vectorINS_12basic_stringIcNS_11char_traitsIcEENS_9allocatorIcEEEENS4_IS6_EEE31__annotate_contiguous_containerB8ne190107EPKvSA_, symObjAddr: 0x31BF4, symBinAddr: 0x1000333E0, symSize: 0x14C }
  - { offset: 0x719D6, size: 0x8, addend: 0x0, symName: __ZNKSt3__16vectorINS_12basic_stringIcNS_11char_traitsIcEENS_9allocatorIcEEEENS4_IS6_EEE4dataB8ne190107Ev, symObjAddr: 0x31D40, symBinAddr: 0x10003352C, symSize: 0xA0 }
  - { offset: 0x719FC, size: 0x8, addend: 0x0, symName: __ZNSt3__19allocatorINS_12basic_stringIcNS_11char_traitsIcEENS0_IcEEEEE10deallocateB8ne190107EPS5_m, symObjAddr: 0x31E34, symBinAddr: 0x100033620, symSize: 0x74 }
  - { offset: 0x71A3E, size: 0x8, addend: 0x0, symName: __ZNSt3__117__compressed_pairIPNS_12basic_stringIcNS_11char_traitsIcEENS_9allocatorIcEEEENS4_IS6_EEE6secondB8ne190107Ev, symObjAddr: 0x32014, symBinAddr: 0x100033800, symSize: 0xC4 }
  - { offset: 0x71A64, size: 0x8, addend: 0x0, symName: __ZNSt3__122__compressed_pair_elemINS_9allocatorINS_12basic_stringIcNS_11char_traitsIcEENS1_IcEEEEEELi1ELb1EE5__getB8ne190107Ev, symObjAddr: 0x320D8, symBinAddr: 0x1000338C4, symSize: 0x64 }
  - { offset: 0x71A8A, size: 0x8, addend: 0x0, symName: __ZNKSt3__16vectorINS_12basic_stringIcNS_11char_traitsIcEENS_9allocatorIcEEEENS4_IS6_EEE9__end_capB8ne190107Ev, symObjAddr: 0x3213C, symBinAddr: 0x100033928, symSize: 0xD8 }
  - { offset: 0x71AB0, size: 0x8, addend: 0x0, symName: __ZNKSt3__117__compressed_pairIPNS_12basic_stringIcNS_11char_traitsIcEENS_9allocatorIcEEEENS4_IS6_EEE5firstB8ne190107Ev, symObjAddr: 0x32214, symBinAddr: 0x100033A00, symSize: 0xEC }
  - { offset: 0x71AD6, size: 0x8, addend: 0x0, symName: __ZN7testing8internal12CodeLocationD2Ev, symObjAddr: 0x32300, symBinAddr: 0x100033AEC, symSize: 0x64 }
  - { offset: 0x71B03, size: 0x8, addend: 0x0, symName: __ZN7testing8internal15TestFactoryImplIN12_GLOBAL__N_129CaesarDec_RotVec_OneElem_TestEEC2Ev, symObjAddr: 0x32364, symBinAddr: 0x100033B50, symSize: 0xF8 }
  - { offset: 0x71B30, size: 0x8, addend: 0x0, symName: __ZN7testing8internal15TestFactoryImplIN12_GLOBAL__N_129CaesarDec_RotVec_OneElem_TestEED1Ev, symObjAddr: 0x3245C, symBinAddr: 0x100033C48, symSize: 0x64 }
  - { offset: 0x71B5D, size: 0x8, addend: 0x0, symName: __ZN7testing8internal15TestFactoryImplIN12_GLOBAL__N_129CaesarDec_RotVec_OneElem_TestEED0Ev, symObjAddr: 0x324C0, symBinAddr: 0x100033CAC, symSize: 0x68 }
  - { offset: 0x71B8A, size: 0x8, addend: 0x0, symName: __ZN7testing8internal15TestFactoryImplIN12_GLOBAL__N_129CaesarDec_RotVec_OneElem_TestEE10CreateTestEv, symObjAddr: 0x32528, symBinAddr: 0x100033D14, symSize: 0xFC }
  - { offset: 0x71BB0, size: 0x8, addend: 0x0, symName: __ZN7testing8internal15TestFactoryImplIN12_GLOBAL__N_129CaesarDec_RotVec_OneElem_TestEED2Ev, symObjAddr: 0x32624, symBinAddr: 0x100033E10, symSize: 0x64 }
  - { offset: 0x71BDD, size: 0x8, addend: 0x0, symName: __ZN12_GLOBAL__N_129CaesarDec_RotVec_OneElem_TestC1Ev, symObjAddr: 0x32688, symBinAddr: 0x100033E74, symSize: 0x64 }
  - { offset: 0x71C07, size: 0x8, addend: 0x0, symName: __ZN12_GLOBAL__N_129CaesarDec_RotVec_OneElem_TestC2Ev, symObjAddr: 0x326EC, symBinAddr: 0x100033ED8, symSize: 0xF8 }
  - { offset: 0x71C31, size: 0x8, addend: 0x0, symName: __ZN12_GLOBAL__N_129CaesarDec_RotVec_OneElem_TestD1Ev, symObjAddr: 0x327E4, symBinAddr: 0x100033FD0, symSize: 0x64 }
  - { offset: 0x71C5B, size: 0x8, addend: 0x0, symName: __ZN12_GLOBAL__N_129CaesarDec_RotVec_OneElem_TestD0Ev, symObjAddr: 0x32848, symBinAddr: 0x100034034, symSize: 0x68 }
  - { offset: 0x71C85, size: 0x8, addend: 0x0, symName: __ZN12_GLOBAL__N_129CaesarDec_RotVec_OneElem_Test8TestBodyEv, symObjAddr: 0x328B0, symBinAddr: 0x10003409C, symSize: 0xB34 }
  - { offset: 0x71CFF, size: 0x8, addend: 0x0, symName: __ZN12_GLOBAL__N_129CaesarDec_RotVec_OneElem_TestD2Ev, symObjAddr: 0x333E4, symBinAddr: 0x100034BD0, symSize: 0x64 }
  - { offset: 0x71D29, size: 0x8, addend: 0x0, symName: __ZNSt3__16vectorINS_12basic_stringIcNS_11char_traitsIcEENS_9allocatorIcEEEENS4_IS6_EEEC1B8ne190107ESt16initializer_listIS6_E, symObjAddr: 0x33448, symBinAddr: 0x100034C34, symSize: 0x74 }
  - { offset: 0x71D62, size: 0x8, addend: 0x0, symName: __ZNSt3__16vectorINS_12basic_stringIcNS_11char_traitsIcEENS_9allocatorIcEEEENS4_IS6_EEE4dataB8ne190107Ev, symObjAddr: 0x334BC, symBinAddr: 0x100034CA8, symSize: 0xA0 }
  - { offset: 0x71D93, size: 0x8, addend: 0x0, symName: __ZNK7testing8internal29PredicateFormatterFromMatcherINS0_9EqMatcherIPNSt3__112basic_stringIcNS3_11char_traitsIcEENS3_9allocatorIcEEEEEEEclISA_EENS_15AssertionResultEPKcRKT_, symObjAddr: 0x33910, symBinAddr: 0x1000350FC, symSize: 0xCC8 }
  - { offset: 0x71E34, size: 0x8, addend: 0x0, symName: __ZN7testing7MessagelsIA74_cEERS0_RKT_, symObjAddr: 0x345D8, symBinAddr: 0x100035DC4, symSize: 0x140 }
  - { offset: 0x71E83, size: 0x8, addend: 0x0, symName: __ZNK7testing8internal29PredicateFormatterFromMatcherINS0_23ElementsAreArrayMatcherIPKcEEEclINSt3__16vectorINS8_12basic_stringIcNS8_11char_traitsIcEENS8_9allocatorIcEEEENSD_ISF_EEEEEENS_15AssertionResultES4_RKT_, symObjAddr: 0x34BD0, symBinAddr: 0x1000363BC, symSize: 0xCC8 }
  - { offset: 0x71F0D, size: 0x8, addend: 0x0, symName: __ZN7testing8internal29PredicateFormatterFromMatcherINS0_23ElementsAreArrayMatcherIPKcEEED1Ev, symObjAddr: 0x35898, symBinAddr: 0x100037084, symSize: 0x64 }
  - { offset: 0x71F40, size: 0x8, addend: 0x0, symName: __ZN7testing8internal23ElementsAreArrayMatcherIPKcED1Ev, symObjAddr: 0x358FC, symBinAddr: 0x1000370E8, symSize: 0x64 }
  - { offset: 0x71F6D, size: 0x8, addend: 0x0, symName: __ZNSt3__16vectorINS_12basic_stringIcNS_11char_traitsIcEENS_9allocatorIcEEEENS4_IS6_EEEC2B8ne190107ESt16initializer_listIS6_E, symObjAddr: 0x35960, symBinAddr: 0x10003714C, symSize: 0x4C4 }
  - { offset: 0x71FC4, size: 0x8, addend: 0x0, symName: __ZNKSt16initializer_listINSt3__112basic_stringIcNS0_11char_traitsIcEENS0_9allocatorIcEEEEE4sizeB8ne190107Ev, symObjAddr: 0x35EA0, symBinAddr: 0x10003768C, symSize: 0xA0 }
  - { offset: 0x71FEA, size: 0x8, addend: 0x0, symName: __ZNSt3__16vectorINS_12basic_stringIcNS_11char_traitsIcEENS_9allocatorIcEEEENS4_IS6_EEE11__vallocateB8ne190107Em, symObjAddr: 0x35F40, symBinAddr: 0x10003772C, symSize: 0x48C }
  - { offset: 0x72034, size: 0x8, addend: 0x0, symName: __ZNSt3__16vectorINS_12basic_stringIcNS_11char_traitsIcEENS_9allocatorIcEEEENS4_IS6_EEE18__construct_at_endIPKS6_SB_EEvT_T0_m, symObjAddr: 0x363CC, symBinAddr: 0x100037BB8, symSize: 0x3D4 }
  - { offset: 0x720B0, size: 0x8, addend: 0x0, symName: __ZNKSt16initializer_listINSt3__112basic_stringIcNS0_11char_traitsIcEENS0_9allocatorIcEEEEE5beginB8ne190107Ev, symObjAddr: 0x367A0, symBinAddr: 0x100037F8C, symSize: 0x9C }
  - { offset: 0x720D6, size: 0x8, addend: 0x0, symName: __ZNKSt16initializer_listINSt3__112basic_stringIcNS0_11char_traitsIcEENS0_9allocatorIcEEEEE3endB8ne190107Ev, symObjAddr: 0x3683C, symBinAddr: 0x100038028, symSize: 0x184 }
  - { offset: 0x720FC, size: 0x8, addend: 0x0, symName: __ZNSt3__128__exception_guard_exceptionsINS_6vectorINS_12basic_stringIcNS_11char_traitsIcEENS_9allocatorIcEEEENS5_IS7_EEE16__destroy_vectorEE10__completeB8ne190107Ev, symObjAddr: 0x369C0, symBinAddr: 0x1000381AC, symSize: 0xC4 }
  - { offset: 0x72122, size: 0x8, addend: 0x0, symName: __ZNSt3__128__exception_guard_exceptionsINS_6vectorINS_12basic_stringIcNS_11char_traitsIcEENS_9allocatorIcEEEENS5_IS7_EEE16__destroy_vectorEED1B8ne190107Ev, symObjAddr: 0x36A84, symBinAddr: 0x100038270, symSize: 0x64 }
  - { offset: 0x7214C, size: 0x8, addend: 0x0, symName: __ZNSt3__128__exception_guard_exceptionsINS_6vectorINS_12basic_stringIcNS_11char_traitsIcEENS_9allocatorIcEEEENS5_IS7_EEE16__destroy_vectorEEC1B8ne190107ESA_, symObjAddr: 0x36AE8, symBinAddr: 0x1000382D4, symSize: 0x6C }
  - { offset: 0x72184, size: 0x8, addend: 0x0, symName: __ZNSt3__128__exception_guard_exceptionsINS_6vectorINS_12basic_stringIcNS_11char_traitsIcEENS_9allocatorIcEEEENS5_IS7_EEE16__destroy_vectorEEC2B8ne190107ESA_, symObjAddr: 0x36B54, symBinAddr: 0x100038340, symSize: 0xE0 }
  - { offset: 0x721BC, size: 0x8, addend: 0x0, symName: __ZNKSt3__16vectorINS_12basic_stringIcNS_11char_traitsIcEENS_9allocatorIcEEEENS4_IS6_EEE8max_sizeEv, symObjAddr: 0x36C34, symBinAddr: 0x100038420, symSize: 0x2FC }
  - { offset: 0x721E3, size: 0x8, addend: 0x0, symName: __ZNKSt3__16vectorINS_12basic_stringIcNS_11char_traitsIcEENS_9allocatorIcEEEENS4_IS6_EEE20__throw_length_errorB8ne190107Ev, symObjAddr: 0x36F30, symBinAddr: 0x10003871C, symSize: 0x74 }
  - { offset: 0x72209, size: 0x8, addend: 0x0, symName: __ZNSt3__16vectorINS_12basic_stringIcNS_11char_traitsIcEENS_9allocatorIcEEEENS4_IS6_EEE9__end_capB8ne190107Ev, symObjAddr: 0x36FEC, symBinAddr: 0x1000387D8, symSize: 0xD8 }
  - { offset: 0x7222F, size: 0x8, addend: 0x0, symName: __ZNKSt3__16vectorINS_12basic_stringIcNS_11char_traitsIcEENS_9allocatorIcEEEENS4_IS6_EEE14__annotate_newB8ne190107Em, symObjAddr: 0x370C4, symBinAddr: 0x1000388B0, symSize: 0x200 }
  - { offset: 0x7226F, size: 0x8, addend: 0x0, symName: __ZNSt3__116allocator_traitsINS_9allocatorINS_12basic_stringIcNS_11char_traitsIcEENS1_IcEEEEEEE8max_sizeB8ne190107IS7_vTnNS_9enable_ifIXntsr14__has_max_sizeIKT_EE5valueEiE4typeELi0EEEmRKS7_, symObjAddr: 0x373A8, symBinAddr: 0x100038B94, symSize: 0x0 }
  - { offset: 0x722A0, size: 0x8, addend: 0x0, symName: __ZNKSt3__16vectorINS_12basic_stringIcNS_11char_traitsIcEENS_9allocatorIcEEEENS4_IS6_EEE7__allocB8ne190107Ev, symObjAddr: 0x373FC, symBinAddr: 0x100038BE8, symSize: 0xC4 }
  - { offset: 0x722C6, size: 0x8, addend: 0x0, symName: __ZNSt3__114numeric_limitsIlE3maxB8ne190107Ev, symObjAddr: 0x374C8, symBinAddr: 0x100038CB4, symSize: 0x0 }
  - { offset: 0x722E5, size: 0x8, addend: 0x0, symName: __ZNKSt3__16__lessIvvEclB8ne190107ImmEEbRKT_RKT0_, symObjAddr: 0x37754, symBinAddr: 0x100038F40, symSize: 0xD0 }
  - { offset: 0x72339, size: 0x8, addend: 0x0, symName: __ZNSt3__114numeric_limitsImE3maxB8ne190107Ev, symObjAddr: 0x3782C, symBinAddr: 0x100039018, symSize: 0x0 }
  - { offset: 0x7234D, size: 0x8, addend: 0x0, symName: __ZNSt3__123__libcpp_numeric_limitsImLb1EE3maxB8ne190107Ev, symObjAddr: 0x37848, symBinAddr: 0x100039034, symSize: 0x0 }
  - { offset: 0x72361, size: 0x8, addend: 0x0, symName: __ZNKSt3__117__compressed_pairIPNS_12basic_stringIcNS_11char_traitsIcEENS_9allocatorIcEEEENS4_IS6_EEE6secondB8ne190107Ev, symObjAddr: 0x37850, symBinAddr: 0x10003903C, symSize: 0xC4 }
  - { offset: 0x72387, size: 0x8, addend: 0x0, symName: __ZNKSt3__122__compressed_pair_elemINS_9allocatorINS_12basic_stringIcNS_11char_traitsIcEENS1_IcEEEEEELi1ELb1EE5__getB8ne190107Ev, symObjAddr: 0x37914, symBinAddr: 0x100039100, symSize: 0x64 }
  - { offset: 0x723AD, size: 0x8, addend: 0x0, symName: __ZNSt3__123__libcpp_numeric_limitsIlLb1EE3maxB8ne190107Ev, symObjAddr: 0x37980, symBinAddr: 0x10003916C, symSize: 0x0 }
  - { offset: 0x723C1, size: 0x8, addend: 0x0, symName: __ZNSt12length_errorC1B8ne190107EPKc, symObjAddr: 0x37A34, symBinAddr: 0x100039220, symSize: 0x6C }
  - { offset: 0x723F9, size: 0x8, addend: 0x0, symName: __ZNSt12length_errorC2B8ne190107EPKc, symObjAddr: 0x37AA0, symBinAddr: 0x10003928C, symSize: 0x108 }
  - { offset: 0x72431, size: 0x8, addend: 0x0, symName: __ZNSt3__19allocatorINS_12basic_stringIcNS_11char_traitsIcEENS0_IcEEEEE8allocateB8ne190107Em, symObjAddr: 0x37BA8, symBinAddr: 0x100039394, symSize: 0xBC }
  - { offset: 0x72465, size: 0x8, addend: 0x0, symName: __ZNSt3__117__compressed_pairIPNS_12basic_stringIcNS_11char_traitsIcEENS_9allocatorIcEEEENS4_IS6_EEE5firstB8ne190107Ev, symObjAddr: 0x37DDC, symBinAddr: 0x1000395C8, symSize: 0xEC }
  - { offset: 0x724A7, size: 0x8, addend: 0x0, symName: __ZNSt3__16vectorINS_12basic_stringIcNS_11char_traitsIcEENS_9allocatorIcEEEENS4_IS6_EEE21_ConstructTransactionC1B8ne190107ERS8_m, symObjAddr: 0x37EC8, symBinAddr: 0x1000396B4, symSize: 0x74 }
  - { offset: 0x724EF, size: 0x8, addend: 0x0, symName: __ZNSt3__16vectorINS_12basic_stringIcNS_11char_traitsIcEENS_9allocatorIcEEEENS4_IS6_EEE21_ConstructTransactionD1B8ne190107Ev, symObjAddr: 0x381A8, symBinAddr: 0x100039994, symSize: 0x64 }
  - { offset: 0x72519, size: 0x8, addend: 0x0, symName: __ZNSt3__16vectorINS_12basic_stringIcNS_11char_traitsIcEENS_9allocatorIcEEEENS4_IS6_EEE21_ConstructTransactionC2B8ne190107ERS8_m, symObjAddr: 0x3820C, symBinAddr: 0x1000399F8, symSize: 0x354 }
  - { offset: 0x72561, size: 0x8, addend: 0x0, symName: __ZNKSt3__16vectorINS_12basic_stringIcNS_11char_traitsIcEENS_9allocatorIcEEEENS4_IS6_EEE19__annotate_increaseB8ne190107Em, symObjAddr: 0x38560, symBinAddr: 0x100039D4C, symSize: 0x2C8 }
  - { offset: 0x725B3, size: 0x8, addend: 0x0, symName: __ZNSt3__119__unwrap_range_implIPKNS_12basic_stringIcNS_11char_traitsIcEENS_9allocatorIcEEEES8_E8__unwrapB8ne190107ES8_S8_, symObjAddr: 0x38E18, symBinAddr: 0x10003A604, symSize: 0x0 }
  - { offset: 0x725EC, size: 0x8, addend: 0x0, symName: __ZNSt3__14pairIPKNS_12basic_stringIcNS_11char_traitsIcEENS_9allocatorIcEEEES8_EC1B8ne190107IS8_S8_TnNS_9enable_ifIXclsr10_CheckArgsE23__is_pair_constructibleIT_T0_EEEiE4typeELi0EEEOSC_OSD_, symObjAddr: 0x3908C, symBinAddr: 0x10003A878, symSize: 0x74 }
  - { offset: 0x7264B, size: 0x8, addend: 0x0, symName: __ZNSt3__118__unwrap_iter_implIPKNS_12basic_stringIcNS_11char_traitsIcEENS_9allocatorIcEEEELb1EE8__unwrapB8ne190107ES8_, symObjAddr: 0x39108, symBinAddr: 0x10003A8F4, symSize: 0x0 }
  - { offset: 0x7266E, size: 0x8, addend: 0x0, symName: __ZNSt3__14pairIPKNS_12basic_stringIcNS_11char_traitsIcEENS_9allocatorIcEEEES8_EC2B8ne190107IS8_S8_TnNS_9enable_ifIXclsr10_CheckArgsE23__is_pair_constructibleIT_T0_EEEiE4typeELi0EEEOSC_OSD_, symObjAddr: 0x39148, symBinAddr: 0x10003A934, symSize: 0x1D8 }
  - { offset: 0x726CD, size: 0x8, addend: 0x0, symName: __ZNSt3__129_AllocatorDestroyRangeReverseINS_9allocatorINS_12basic_stringIcNS_11char_traitsIcEENS1_IcEEEEEEPS6_EC1B8ne190107ERS7_RS8_SB_, symObjAddr: 0x3952C, symBinAddr: 0x10003AD18, symSize: 0x7C }
  - { offset: 0x72724, size: 0x8, addend: 0x0, symName: __ZNSt3__116allocator_traitsINS_9allocatorINS_12basic_stringIcNS_11char_traitsIcEENS1_IcEEEEEEE9constructB8ne190107IS6_JRKS6_EvTnNS_9enable_ifIXntsr15__has_constructIS7_PT_DpT0_EE5valueEiE4typeELi0EEEvRS7_SE_DpOSF_, symObjAddr: 0x395B0, symBinAddr: 0x10003AD9C, symSize: 0x0 }
  - { offset: 0x7277E, size: 0x8, addend: 0x0, symName: __ZNSt3__128__exception_guard_exceptionsINS_29_AllocatorDestroyRangeReverseINS_9allocatorINS_12basic_stringIcNS_11char_traitsIcEENS2_IcEEEEEEPS7_EEE10__completeB8ne190107Ev, symObjAddr: 0x39620, symBinAddr: 0x10003AE0C, symSize: 0xC4 }
  - { offset: 0x727A4, size: 0x8, addend: 0x0, symName: __ZNSt3__128__exception_guard_exceptionsINS_29_AllocatorDestroyRangeReverseINS_9allocatorINS_12basic_stringIcNS_11char_traitsIcEENS2_IcEEEEEEPS7_EEED1B8ne190107Ev, symObjAddr: 0x396E4, symBinAddr: 0x10003AED0, symSize: 0x64 }
  - { offset: 0x727CE, size: 0x8, addend: 0x0, symName: __ZNSt3__128__exception_guard_exceptionsINS_29_AllocatorDestroyRangeReverseINS_9allocatorINS_12basic_stringIcNS_11char_traitsIcEENS2_IcEEEEEEPS7_EEEC1B8ne190107ESA_, symObjAddr: 0x39748, symBinAddr: 0x10003AF34, symSize: 0x70 }
  - { offset: 0x72807, size: 0x8, addend: 0x0, symName: __ZNSt3__128__exception_guard_exceptionsINS_29_AllocatorDestroyRangeReverseINS_9allocatorINS_12basic_stringIcNS_11char_traitsIcEENS2_IcEEEEEEPS7_EEEC2B8ne190107ESA_, symObjAddr: 0x397B8, symBinAddr: 0x10003AFA4, symSize: 0xE4 }
  - { offset: 0x72840, size: 0x8, addend: 0x0, symName: __ZNSt3__129_AllocatorDestroyRangeReverseINS_9allocatorINS_12basic_stringIcNS_11char_traitsIcEENS1_IcEEEEEEPS6_EC2B8ne190107ERS7_RS8_SB_, symObjAddr: 0x3989C, symBinAddr: 0x10003B088, symSize: 0x1C4 }
  - { offset: 0x72897, size: 0x8, addend: 0x0, symName: __ZNSt3__128__exception_guard_exceptionsINS_29_AllocatorDestroyRangeReverseINS_9allocatorINS_12basic_stringIcNS_11char_traitsIcEENS2_IcEEEEEEPS7_EEED2B8ne190107Ev, symObjAddr: 0x39BBC, symBinAddr: 0x10003B3A8, symSize: 0x158 }
  - { offset: 0x728C1, size: 0x8, addend: 0x0, symName: __ZNKSt3__129_AllocatorDestroyRangeReverseINS_9allocatorINS_12basic_stringIcNS_11char_traitsIcEENS1_IcEEEEEEPS6_EclB8ne190107Ev, symObjAddr: 0x39D14, symBinAddr: 0x10003B500, symSize: 0x33C }
  - { offset: 0x728E8, size: 0x8, addend: 0x0, symName: __ZNSt3__116reverse_iteratorIPNS_12basic_stringIcNS_11char_traitsIcEENS_9allocatorIcEEEEEC1B8ne190107ES7_, symObjAddr: 0x3A29C, symBinAddr: 0x10003BA88, symSize: 0x6C }
  - { offset: 0x72920, size: 0x8, addend: 0x0, symName: __ZNSt3__116reverse_iteratorIPNS_12basic_stringIcNS_11char_traitsIcEENS_9allocatorIcEEEEEppB8ne190107Ev, symObjAddr: 0x3A404, symBinAddr: 0x10003BBF0, symSize: 0x180 }
  - { offset: 0x72946, size: 0x8, addend: 0x0, symName: __ZNKSt3__116reverse_iteratorIPNS_12basic_stringIcNS_11char_traitsIcEENS_9allocatorIcEEEEE4baseB8ne190107Ev, symObjAddr: 0x3A584, symBinAddr: 0x10003BD70, symSize: 0xA0 }
  - { offset: 0x72972, size: 0x8, addend: 0x0, symName: __ZNSt3__119__to_address_helperINS_16reverse_iteratorIPNS_12basic_stringIcNS_11char_traitsIcEENS_9allocatorIcEEEEEEvE6__callB8ne190107ERKS9_, symObjAddr: 0x3A62C, symBinAddr: 0x10003BE18, symSize: 0x0 }
  - { offset: 0x72995, size: 0x8, addend: 0x0, symName: __ZNKSt3__116reverse_iteratorIPNS_12basic_stringIcNS_11char_traitsIcEENS_9allocatorIcEEEEEptB8ne190107EvQoo12is_pointer_vIT_ErQS9__XcldtfpK_onptEE, symObjAddr: 0x3A698, symBinAddr: 0x10003BE84, symSize: 0xA8 }
  - { offset: 0x729BB, size: 0x8, addend: 0x0, symName: __ZNSt3__116reverse_iteratorIPNS_12basic_stringIcNS_11char_traitsIcEENS_9allocatorIcEEEEEC2B8ne190107ES7_, symObjAddr: 0x3AB30, symBinAddr: 0x10003C31C, symSize: 0xF4 }
  - { offset: 0x729F3, size: 0x8, addend: 0x0, symName: __ZNSt3__118__unwrap_iter_implIPNS_12basic_stringIcNS_11char_traitsIcEENS_9allocatorIcEEEELb1EE8__unwrapB8ne190107ES7_, symObjAddr: 0x3AC2C, symBinAddr: 0x10003C418, symSize: 0x0 }
  - { offset: 0x72A16, size: 0x8, addend: 0x0, symName: __ZNSt3__118__unwrap_iter_implIPNS_12basic_stringIcNS_11char_traitsIcEENS_9allocatorIcEEEELb1EE8__rewrapB8ne190107ES7_S7_, symObjAddr: 0x3AC58, symBinAddr: 0x10003C444, symSize: 0x0 }
  - { offset: 0x72A47, size: 0x8, addend: 0x0, symName: __ZNSt3__16vectorINS_12basic_stringIcNS_11char_traitsIcEENS_9allocatorIcEEEENS4_IS6_EEE21_ConstructTransactionD2B8ne190107Ev, symObjAddr: 0x3AD64, symBinAddr: 0x10003C550, symSize: 0x31C }
  - { offset: 0x72A71, size: 0x8, addend: 0x0, symName: __ZNKSt3__16vectorINS_12basic_stringIcNS_11char_traitsIcEENS_9allocatorIcEEEENS4_IS6_EEE17__annotate_shrinkB8ne190107Em, symObjAddr: 0x3B080, symBinAddr: 0x10003C86C, symSize: 0x200 }
  - { offset: 0x72AA6, size: 0x8, addend: 0x0, symName: __ZNSt3__128__exception_guard_exceptionsINS_6vectorINS_12basic_stringIcNS_11char_traitsIcEENS_9allocatorIcEEEENS5_IS7_EEE16__destroy_vectorEED2B8ne190107Ev, symObjAddr: 0x3B280, symBinAddr: 0x10003CA6C, symSize: 0x144 }
  - { offset: 0x72AD0, size: 0x8, addend: 0x0, symName: __ZN7testing8internal29PredicateFormatterFromMatcherINS0_9EqMatcherIPNSt3__112basic_stringIcNS3_11char_traitsIcEENS3_9allocatorIcEEEEEEEC1ESB_, symObjAddr: 0x3B3C4, symBinAddr: 0x10003CBB0, symSize: 0x6C }
  - { offset: 0x72B09, size: 0x8, addend: 0x0, symName: __ZN7testing8internal29PredicateFormatterFromMatcherINS0_9EqMatcherIPNSt3__112basic_stringIcNS3_11char_traitsIcEENS3_9allocatorIcEEEEEEEC2ESB_, symObjAddr: 0x3B430, symBinAddr: 0x10003CC1C, symSize: 0x70 }
  - { offset: 0x72B42, size: 0x8, addend: 0x0, symName: __ZN7testing8internal9EqMatcherIPNSt3__112basic_stringIcNS2_11char_traitsIcEENS2_9allocatorIcEEEEEC1ERKS9_, symObjAddr: 0x3B4A0, symBinAddr: 0x10003CC8C, symSize: 0x6C }
  - { offset: 0x72B7B, size: 0x8, addend: 0x0, symName: __ZN7testing8internal9EqMatcherIPNSt3__112basic_stringIcNS2_11char_traitsIcEENS2_9allocatorIcEEEEEC2ERKS9_, symObjAddr: 0x3B50C, symBinAddr: 0x10003CCF8, symSize: 0xD8 }
  - { offset: 0x72BB4, size: 0x8, addend: 0x0, symName: __ZN7testing8internal14ComparisonBaseINS0_9EqMatcherIPNSt3__112basic_stringIcNS3_11char_traitsIcEENS3_9allocatorIcEEEEEESA_NS3_8equal_toIvEEEC2ERKSA_, symObjAddr: 0x3B5E4, symBinAddr: 0x10003CDD0, symSize: 0xE8 }
  - { offset: 0x72BED, size: 0x8, addend: 0x0, symName: __ZNK7testing8internal11MatcherBaseIRKPNSt3__112basic_stringIcNS2_11char_traitsIcEENS2_9allocatorIcEEEEE7MatchesESB_, symObjAddr: 0x3B73C, symBinAddr: 0x10003CF28, symSize: 0x350 }
  - { offset: 0x72C35, size: 0x8, addend: 0x0, symName: __ZNK7testing8internal11MatcherBaseIRKPNSt3__112basic_stringIcNS2_11char_traitsIcEENS2_9allocatorIcEEEEE10DescribeToEPNS2_13basic_ostreamIcS5_EE, symObjAddr: 0x3BA8C, symBinAddr: 0x10003D278, symSize: 0x59C }
  - { offset: 0x72C7C, size: 0x8, addend: 0x0, symName: __ZN7testing7MatcherIRKPNSt3__112basic_stringIcNS1_11char_traitsIcEENS1_9allocatorIcEEEEED1Ev, symObjAddr: 0x3CC60, symBinAddr: 0x10003E44C, symSize: 0x64 }
  - { offset: 0x72CA8, size: 0x8, addend: 0x0, symName: __ZN7testing8internal15MatcherCastImplIRKPNSt3__112basic_stringIcNS2_11char_traitsIcEENS2_9allocatorIcEEEENS0_9EqMatcherIS9_EEE4CastERKSD_, symObjAddr: 0x3CD3C, symBinAddr: 0x10003E528, symSize: 0x0 }
  - { offset: 0x72CCC, size: 0x8, addend: 0x0, symName: __ZN7testing8internal15MatcherCastImplIRKPNSt3__112basic_stringIcNS2_11char_traitsIcEENS2_9allocatorIcEEEENS0_9EqMatcherIS9_EEE8CastImplILb0EEENS_7MatcherISB_EERKSD_NS2_17integral_constantIbLb1EEENSK_IbXT_EEE, symObjAddr: 0x3CDAC, symBinAddr: 0x10003E598, symSize: 0x0 }
  - { offset: 0x72D10, size: 0x8, addend: 0x0, symName: __ZN7testing7MatcherIRKPNSt3__112basic_stringIcNS1_11char_traitsIcEENS1_9allocatorIcEEEEEC1IRKNS_8internal9EqMatcherIS8_EEvEEOT_, symObjAddr: 0x3CE48, symBinAddr: 0x10003E634, symSize: 0x6C }
  - { offset: 0x72D53, size: 0x8, addend: 0x0, symName: __ZN7testing7MatcherIRKPNSt3__112basic_stringIcNS1_11char_traitsIcEENS1_9allocatorIcEEEEEC2IRKNS_8internal9EqMatcherIS8_EEvEEOT_, symObjAddr: 0x3CEB4, symBinAddr: 0x10003E6A0, symSize: 0x138 }
  - { offset: 0x72D96, size: 0x8, addend: 0x0, symName: __ZN7testing8internal11MatcherBaseIRKPNSt3__112basic_stringIcNS2_11char_traitsIcEENS2_9allocatorIcEEEEEC2IRKNS0_9EqMatcherIS9_EEvEEOT_, symObjAddr: 0x3CFEC, symBinAddr: 0x10003E7D8, symSize: 0x214 }
  - { offset: 0x72DD9, size: 0x8, addend: 0x0, symName: __ZN7testing7MatcherIRKPNSt3__112basic_stringIcNS1_11char_traitsIcEENS1_9allocatorIcEEEEED0Ev, symObjAddr: 0x3D200, symBinAddr: 0x10003E9EC, symSize: 0x68 }
  - { offset: 0x72E05, size: 0x8, addend: 0x0, symName: __ZNK7testing8internal11MatcherBaseIRKPNSt3__112basic_stringIcNS2_11char_traitsIcEENS2_9allocatorIcEEEEE18DescribeNegationToEPNS2_13basic_ostreamIcS5_EE, symObjAddr: 0x3D268, symBinAddr: 0x10003EA54, symSize: 0x59C }
  - { offset: 0x72E3B, size: 0x8, addend: 0x0, symName: __ZN7testing8internal11MatcherBaseIRKPNSt3__112basic_stringIcNS2_11char_traitsIcEENS2_9allocatorIcEEEEE4InitIRKNS0_9EqMatcherIS9_EEEEvOT_, symObjAddr: 0x3D804, symBinAddr: 0x10003EFF0, symSize: 0x1D8 }
  - { offset: 0x72E79, size: 0x8, addend: 0x0, symName: __ZN7testing8internal11MatcherBaseIRKPNSt3__112basic_stringIcNS2_11char_traitsIcEENS2_9allocatorIcEEEEED1Ev, symObjAddr: 0x3D9DC, symBinAddr: 0x10003F1C8, symSize: 0x64 }
  - { offset: 0x72EA3, size: 0x8, addend: 0x0, symName: __ZN7testing8internal11MatcherBaseIRKPNSt3__112basic_stringIcNS2_11char_traitsIcEENS2_9allocatorIcEEEEED0Ev, symObjAddr: 0x3DA40, symBinAddr: 0x10003F22C, symSize: 0x68 }
  - { offset: 0x72ECD, size: 0x8, addend: 0x0, symName: __ZN7testing8internal11MatcherBaseIRKPNSt3__112basic_stringIcNS2_11char_traitsIcEENS2_9allocatorIcEEEEE11ValuePolicyINS0_9EqMatcherIS9_EELb1EE4InitERSC_SF_, symObjAddr: 0x3DB0C, symBinAddr: 0x10003F2F8, symSize: 0x0 }
  - { offset: 0x72F00, size: 0x8, addend: 0x0, symName: __ZN7testing8internal11MatcherBaseIRKPNSt3__112basic_stringIcNS2_11char_traitsIcEENS2_9allocatorIcEEEEE19MatchAndExplainImplINSC_11ValuePolicyINS0_9EqMatcherIS9_EELb1EEEEEDTcldtclsrT_3Getfp_E15MatchAndExplainfp0_clptfp1_6streamEEERKSC_SB_PNS_19MatchResultListenerE, symObjAddr: 0x3DB8C, symBinAddr: 0x10003F378, symSize: 0x0 }
  - { offset: 0x72F4B, size: 0x8, addend: 0x0, symName: __ZN7testing8internal11MatcherBaseIRKPNSt3__112basic_stringIcNS2_11char_traitsIcEENS2_9allocatorIcEEEEE12DescribeImplINSC_11ValuePolicyINS0_9EqMatcherIS9_EELb1EEEEEvRKSC_PNS2_13basic_ostreamIcS5_EEb, symObjAddr: 0x3DD5C, symBinAddr: 0x10003F548, symSize: 0x0 }
  - { offset: 0x72F96, size: 0x8, addend: 0x0, symName: __ZN7testing8internal11MatcherBaseIRKPNSt3__112basic_stringIcNS2_11char_traitsIcEENS2_9allocatorIcEEEEE16GetDescriberImplINSC_11ValuePolicyINS0_9EqMatcherIS9_EELb1EEEEEPKNS_25MatcherDescriberInterfaceERKSC_, symObjAddr: 0x3DF0C, symBinAddr: 0x10003F6F8, symSize: 0x0 }
  - { offset: 0x72FC4, size: 0x8, addend: 0x0, symName: __ZN7testing8internal11MatcherBaseIRKPNSt3__112basic_stringIcNS2_11char_traitsIcEENS2_9allocatorIcEEEEE11ValuePolicyINS0_9EqMatcherIS9_EELb1EE3GetERKSC_, symObjAddr: 0x3E230, symBinAddr: 0x10003FA1C, symSize: 0x0 }
  - { offset: 0x72FF7, size: 0x8, addend: 0x0, symName: __ZNK7testing8internal14ComparisonBaseINS0_9EqMatcherIPNSt3__112basic_stringIcNS3_11char_traitsIcEENS3_9allocatorIcEEEEEESA_NS3_8equal_toIvEEE15MatchAndExplainISA_EEbRKT_PNS3_13basic_ostreamIcS6_EE, symObjAddr: 0x3E294, symBinAddr: 0x10003FA80, symSize: 0x2B0 }
  - { offset: 0x7304E, size: 0x8, addend: 0x0, symName: __ZNKSt3__18equal_toIvEclB8ne190107IRKPNS_12basic_stringIcNS_11char_traitsIcEENS_9allocatorIcEEEESB_EEDTeqclsr3stdE7forwardIT_Efp_Eclsr3stdE7forwardIT0_Efp0_EEOSC_OSD_, symObjAddr: 0x3E544, symBinAddr: 0x10003FD30, symSize: 0x148 }
  - { offset: 0x730A4, size: 0x8, addend: 0x0, symName: __ZN7testing8internal14ComparisonBaseINS0_9EqMatcherIPNSt3__112basic_stringIcNS3_11char_traitsIcEENS3_9allocatorIcEEEEEESA_NS3_8equal_toIvEEE6UnwrapISA_EERKT_SI_, symObjAddr: 0x3E694, symBinAddr: 0x10003FE80, symSize: 0x0 }
  - { offset: 0x730D1, size: 0x8, addend: 0x0, symName: __ZNK7testing8internal14ComparisonBaseINS0_9EqMatcherIPNSt3__112basic_stringIcNS3_11char_traitsIcEENS3_9allocatorIcEEEEEESA_NS3_8equal_toIvEEE18DescribeNegationToEPNS3_13basic_ostreamIcS6_EE, symObjAddr: 0x3E6EC, symBinAddr: 0x10003FED8, symSize: 0x160 }
  - { offset: 0x73106, size: 0x8, addend: 0x0, symName: __ZNK7testing8internal14ComparisonBaseINS0_9EqMatcherIPNSt3__112basic_stringIcNS3_11char_traitsIcEENS3_9allocatorIcEEEEEESA_NS3_8equal_toIvEEE10DescribeToEPNS3_13basic_ostreamIcS6_EE, symObjAddr: 0x3E84C, symBinAddr: 0x100040038, symSize: 0x160 }
  - { offset: 0x7313B, size: 0x8, addend: 0x0, symName: __ZN7testing8internal9EqMatcherIPNSt3__112basic_stringIcNS2_11char_traitsIcEENS2_9allocatorIcEEEEE11NegatedDescEv, symObjAddr: 0x3E9B4, symBinAddr: 0x1000401A0, symSize: 0x0 }
  - { offset: 0x7314F, size: 0x8, addend: 0x0, symName: __ZN7testing8internal16UniversalPrinterIPNSt3__112basic_stringIcNS2_11char_traitsIcEENS2_9allocatorIcEEEEE5PrintERKS9_PNS2_13basic_ostreamIcS5_EE, symObjAddr: 0x3EA34, symBinAddr: 0x100040220, symSize: 0x0 }
  - { offset: 0x73182, size: 0x8, addend: 0x0, symName: __ZN7testing8internal14PointerPrinter10PrintValueINSt3__112basic_stringIcNS3_11char_traitsIcEENS3_9allocatorIcEEEEEEvPT_PNS3_13basic_ostreamIcS6_EE, symObjAddr: 0x3EB78, symBinAddr: 0x100040364, symSize: 0x0 }
  - { offset: 0x731BC, size: 0x8, addend: 0x0, symName: __ZN7testing8internal9EqMatcherIPNSt3__112basic_stringIcNS2_11char_traitsIcEENS2_9allocatorIcEEEEE4DescEv, symObjAddr: 0x3ECC4, symBinAddr: 0x1000404B0, symSize: 0x0 }
  - { offset: 0x7320A, size: 0x8, addend: 0x0, symName: __ZNSt3__112__tuple_leafILm0EPKN7testing8internal11MatcherBaseIRKPNS_12basic_stringIcNS_11char_traitsIcEENS_9allocatorIcEEEEEELb0EE3getB8ne190107Ev, symObjAddr: 0x3EFC8, symBinAddr: 0x1000407B4, symSize: 0x8C }
  - { offset: 0x732B0, size: 0x8, addend: 0x0, symName: __ZNSt3__15tupleIJPKN7testing8internal11MatcherBaseIRKPNS_12basic_stringIcNS_11char_traitsIcEENS_9allocatorIcEEEEEEPKNS2_9EqMatcherISA_EEEEC1B8ne190107IJSF_SJ_ETnNS_9enable_ifIXsr4_AndINS_17integral_constantIbXeqsZT_sZT_EEENSK_17_EnableUTypesCtorIJDpT_EEEEE5valueEiE4typeELi0EEEDpOSQ_, symObjAddr: 0x3F054, symBinAddr: 0x100040840, symSize: 0x74 }
  - { offset: 0x7330F, size: 0x8, addend: 0x0, symName: __ZNSt3__15tupleIJPKN7testing8internal11MatcherBaseIRKPNS_12basic_stringIcNS_11char_traitsIcEENS_9allocatorIcEEEEEEPKNS2_9EqMatcherISA_EEEEC2B8ne190107IJSF_SJ_ETnNS_9enable_ifIXsr4_AndINS_17integral_constantIbXeqsZT_sZT_EEENSK_17_EnableUTypesCtorIJDpT_EEEEE5valueEiE4typeELi0EEEDpOSQ_, symObjAddr: 0x3F0C8, symBinAddr: 0x1000408B4, symSize: 0xE4 }
  - { offset: 0x7336E, size: 0x8, addend: 0x0, symName: __ZNSt3__112__tuple_implINS_15__tuple_indicesIJLm0ELm1EEEEJPKN7testing8internal11MatcherBaseIRKPNS_12basic_stringIcNS_11char_traitsIcEENS_9allocatorIcEEEEEEPKNS4_9EqMatcherISC_EEEEC1B8ne190107IJLm0ELm1EEJSH_SL_ETpTnmJEJEJSH_SL_EEENS1_IJXspT_EEEENS_13__tuple_typesIJDpT0_EEENS1_IJXspT1_EEEENSP_IJDpT2_EEEDpOT3_, symObjAddr: 0x3F1AC, symBinAddr: 0x100040998, symSize: 0x74 }
  - { offset: 0x73420, size: 0x8, addend: 0x0, symName: __ZNSt3__112__tuple_implINS_15__tuple_indicesIJLm0ELm1EEEEJPKN7testing8internal11MatcherBaseIRKPNS_12basic_stringIcNS_11char_traitsIcEENS_9allocatorIcEEEEEEPKNS4_9EqMatcherISC_EEEEC2B8ne190107IJLm0ELm1EEJSH_SL_ETpTnmJEJEJSH_SL_EEENS1_IJXspT_EEEENS_13__tuple_typesIJDpT0_EEENS1_IJXspT1_EEEENSP_IJDpT2_EEEDpOT3_, symObjAddr: 0x3F220, symBinAddr: 0x100040A0C, symSize: 0x168 }
  - { offset: 0x734D2, size: 0x8, addend: 0x0, symName: __ZNSt3__112__tuple_leafILm0EPKN7testing8internal11MatcherBaseIRKPNS_12basic_stringIcNS_11char_traitsIcEENS_9allocatorIcEEEEEELb0EEC2B8ne190107ISF_TnNS_9enable_ifIXsr4_AndINS_17integral_constantIbXntu9__is_sameu14__remove_cvrefIT_ESG_EEEENS_16is_constructibleISF_JSK_EEEEE5valueEiE4typeELi0EEEOSK_, symObjAddr: 0x3F388, symBinAddr: 0x100040B74, symSize: 0x124 }
  - { offset: 0x7351B, size: 0x8, addend: 0x0, symName: __ZNSt3__112__tuple_leafILm1EPKN7testing8internal9EqMatcherIPNS_12basic_stringIcNS_11char_traitsIcEENS_9allocatorIcEEEEEELb0EEC2B8ne190107ISD_TnNS_9enable_ifIXsr4_AndINS_17integral_constantIbXntu9__is_sameu14__remove_cvrefIT_ESE_EEEENS_16is_constructibleISD_JSI_EEEEE5valueEiE4typeELi0EEEOSI_, symObjAddr: 0x3F4AC, symBinAddr: 0x100040C98, symSize: 0x124 }
  - { offset: 0x73564, size: 0x8, addend: 0x0, symName: __ZN7testing8internal11MatcherBaseIRKPNSt3__112basic_stringIcNS2_11char_traitsIcEENS2_9allocatorIcEEEEED2Ev, symObjAddr: 0x3F5D0, symBinAddr: 0x100040DBC, symSize: 0x140 }
  - { offset: 0x7358E, size: 0x8, addend: 0x0, symName: __ZN7testing8internal11MatcherBaseIRKPNSt3__112basic_stringIcNS2_11char_traitsIcEENS2_9allocatorIcEEEEE7DestroyEv, symObjAddr: 0x3F710, symBinAddr: 0x100040EFC, symSize: 0x468 }
  - { offset: 0x735B4, size: 0x8, addend: 0x0, symName: __ZNK7testing8internal11MatcherBaseIRKPNSt3__112basic_stringIcNS2_11char_traitsIcEENS2_9allocatorIcEEEEE8IsSharedEv, symObjAddr: 0x3FB78, symBinAddr: 0x100041364, symSize: 0x27C }
  - { offset: 0x735DA, size: 0x8, addend: 0x0, symName: __ZNK7testing8internal11MatcherBaseIRKPNSt3__112basic_stringIcNS2_11char_traitsIcEENS2_9allocatorIcEEEEE15MatchAndExplainESB_PNS_19MatchResultListenerE, symObjAddr: 0x3FDF4, symBinAddr: 0x1000415E0, symSize: 0x5D4 }
  - { offset: 0x7361F, size: 0x8, addend: 0x0, symName: __ZN7testing7MatcherIRKPNSt3__112basic_stringIcNS1_11char_traitsIcEENS1_9allocatorIcEEEEED2Ev, symObjAddr: 0x403FC, symBinAddr: 0x100041BE8, symSize: 0x64 }
  - { offset: 0x73651, size: 0x8, addend: 0x0, symName: __ZN7testing8internal23ElementsAreArrayMatcherIPKcEC1EOS4_, symObjAddr: 0x40460, symBinAddr: 0x100041C4C, symSize: 0x6C }
  - { offset: 0x73687, size: 0x8, addend: 0x0, symName: __ZN7testing8internal29PredicateFormatterFromMatcherINS0_23ElementsAreArrayMatcherIPKcEEEC1ES5_, symObjAddr: 0x404CC, symBinAddr: 0x100041CB8, symSize: 0x70 }
  - { offset: 0x736C1, size: 0x8, addend: 0x0, symName: __ZN7testing8internal23ElementsAreArrayMatcherIPKcEC2EOS4_, symObjAddr: 0x4053C, symBinAddr: 0x100041D28, symSize: 0xD8 }
  - { offset: 0x736F7, size: 0x8, addend: 0x0, symName: __ZNSt3__16vectorIPKcNS_9allocatorIS2_EEEC1ERKS5_, symObjAddr: 0x40614, symBinAddr: 0x100041E00, symSize: 0x6C }
  - { offset: 0x73730, size: 0x8, addend: 0x0, symName: __ZNSt3__16vectorIPKcNS_9allocatorIS2_EEEC2ERKS5_, symObjAddr: 0x40680, symBinAddr: 0x100041E6C, symSize: 0x424 }
  - { offset: 0x73776, size: 0x8, addend: 0x0, symName: __ZNSt3__116allocator_traitsINS_9allocatorIPKcEEE37select_on_container_copy_constructionB8ne190107IS4_vTnNS_9enable_ifIXntsr43__has_select_on_container_copy_constructionIKT_EE5valueEiE4typeELi0EEES4_RKS4_, symObjAddr: 0x40AAC, symBinAddr: 0x100042298, symSize: 0x0 }
  - { offset: 0x737AB, size: 0x8, addend: 0x0, symName: __ZNKSt3__16vectorIPKcNS_9allocatorIS2_EEE7__allocB8ne190107Ev, symObjAddr: 0x40ABC, symBinAddr: 0x1000422A8, symSize: 0xC4 }
  - { offset: 0x737D7, size: 0x8, addend: 0x0, symName: __ZNSt3__117__compressed_pairIPPKcNS_9allocatorIS2_EEEC1B8ne190107IDnS5_EEOT_OT0_, symObjAddr: 0x40B80, symBinAddr: 0x10004236C, symSize: 0x74 }
  - { offset: 0x7382F, size: 0x8, addend: 0x0, symName: __ZNSt3__16vectorIPKcNS_9allocatorIS2_EEE16__init_with_sizeB8ne190107IPS2_S7_EEvT_T0_m, symObjAddr: 0x40BF4, symBinAddr: 0x1000423E0, symSize: 0x370 }
  - { offset: 0x738AB, size: 0x8, addend: 0x0, symName: __ZNKSt3__16vectorIPKcNS_9allocatorIS2_EEE4sizeB8ne190107Ev, symObjAddr: 0x40F64, symBinAddr: 0x100042750, symSize: 0xE0 }
  - { offset: 0x738D1, size: 0x8, addend: 0x0, symName: __ZNKSt3__117__compressed_pairIPPKcNS_9allocatorIS2_EEE6secondB8ne190107Ev, symObjAddr: 0x41044, symBinAddr: 0x100042830, symSize: 0xC4 }
  - { offset: 0x738F7, size: 0x8, addend: 0x0, symName: __ZNKSt3__122__compressed_pair_elemINS_9allocatorIPKcEELi1ELb1EE5__getB8ne190107Ev, symObjAddr: 0x41108, symBinAddr: 0x1000428F4, symSize: 0x64 }
  - { offset: 0x7391D, size: 0x8, addend: 0x0, symName: __ZNSt3__117__compressed_pairIPPKcNS_9allocatorIS2_EEEC2B8ne190107IDnS5_EEOT_OT0_, symObjAddr: 0x4116C, symBinAddr: 0x100042958, symSize: 0x12C }
  - { offset: 0x73975, size: 0x8, addend: 0x0, symName: __ZNSt3__122__compressed_pair_elemIPPKcLi0ELb0EEC2B8ne190107IDnTnNS_9enable_ifIXntsr7is_sameIS4_u7__decayIT_EEE5valueEiE4typeELi0EEEOS7_, symObjAddr: 0x41298, symBinAddr: 0x100042A84, symSize: 0xAC }
  - { offset: 0x739BD, size: 0x8, addend: 0x0, symName: __ZNSt3__122__compressed_pair_elemINS_9allocatorIPKcEELi1ELb1EEC2B8ne190107IS4_TnNS_9enable_ifIXntsr7is_sameIS5_u7__decayIT_EEE5valueEiE4typeELi0EEEOS8_, symObjAddr: 0x41344, symBinAddr: 0x100042B30, symSize: 0x4C }
  - { offset: 0x73A05, size: 0x8, addend: 0x0, symName: __ZNSt3__16vectorIPKcNS_9allocatorIS2_EEE16__destroy_vectorC1B8ne190107ERS5_, symObjAddr: 0x4140C, symBinAddr: 0x100042BF8, symSize: 0x6C }
  - { offset: 0x73A3E, size: 0x8, addend: 0x0, symName: __ZNSt3__16vectorIPKcNS_9allocatorIS2_EEE11__vallocateB8ne190107Em, symObjAddr: 0x41478, symBinAddr: 0x100042C64, symSize: 0x484 }
  - { offset: 0x73A88, size: 0x8, addend: 0x0, symName: __ZNSt3__16vectorIPKcNS_9allocatorIS2_EEE18__construct_at_endIPS2_S7_EEvT_T0_m, symObjAddr: 0x418FC, symBinAddr: 0x1000430E8, symSize: 0x3D4 }
  - { offset: 0x73B04, size: 0x8, addend: 0x0, symName: __ZNSt3__128__exception_guard_exceptionsINS_6vectorIPKcNS_9allocatorIS3_EEE16__destroy_vectorEE10__completeB8ne190107Ev, symObjAddr: 0x41CD0, symBinAddr: 0x1000434BC, symSize: 0xC4 }
  - { offset: 0x73B2A, size: 0x8, addend: 0x0, symName: __ZNSt3__128__exception_guard_exceptionsINS_6vectorIPKcNS_9allocatorIS3_EEE16__destroy_vectorEED1B8ne190107Ev, symObjAddr: 0x41D94, symBinAddr: 0x100043580, symSize: 0x64 }
  - { offset: 0x73B54, size: 0x8, addend: 0x0, symName: __ZNSt3__128__exception_guard_exceptionsINS_6vectorIPKcNS_9allocatorIS3_EEE16__destroy_vectorEEC1B8ne190107ES7_, symObjAddr: 0x41DF8, symBinAddr: 0x1000435E4, symSize: 0x6C }
  - { offset: 0x73B8C, size: 0x8, addend: 0x0, symName: __ZNSt3__128__exception_guard_exceptionsINS_6vectorIPKcNS_9allocatorIS3_EEE16__destroy_vectorEEC2B8ne190107ES7_, symObjAddr: 0x41E64, symBinAddr: 0x100043650, symSize: 0xE0 }
  - { offset: 0x73BC4, size: 0x8, addend: 0x0, symName: __ZNSt3__16vectorIPKcNS_9allocatorIS2_EEE16__destroy_vectorC2B8ne190107ERS5_, symObjAddr: 0x41F44, symBinAddr: 0x100043730, symSize: 0xE8 }
  - { offset: 0x73BFD, size: 0x8, addend: 0x0, symName: __ZNKSt3__16vectorIPKcNS_9allocatorIS2_EEE8max_sizeEv, symObjAddr: 0x4202C, symBinAddr: 0x100043818, symSize: 0x2FC }
  - { offset: 0x73C24, size: 0x8, addend: 0x0, symName: __ZNKSt3__16vectorIPKcNS_9allocatorIS2_EEE20__throw_length_errorB8ne190107Ev, symObjAddr: 0x42328, symBinAddr: 0x100043B14, symSize: 0x74 }
  - { offset: 0x73C4A, size: 0x8, addend: 0x0, symName: __ZNSt3__16vectorIPKcNS_9allocatorIS2_EEE7__allocB8ne190107Ev, symObjAddr: 0x423E4, symBinAddr: 0x100043BD0, symSize: 0xC4 }
  - { offset: 0x73C70, size: 0x8, addend: 0x0, symName: __ZNSt3__16vectorIPKcNS_9allocatorIS2_EEE9__end_capB8ne190107Ev, symObjAddr: 0x424A8, symBinAddr: 0x100043C94, symSize: 0xD8 }
  - { offset: 0x73C96, size: 0x8, addend: 0x0, symName: __ZNKSt3__16vectorIPKcNS_9allocatorIS2_EEE14__annotate_newB8ne190107Em, symObjAddr: 0x42580, symBinAddr: 0x100043D6C, symSize: 0x1F0 }
  - { offset: 0x73CCB, size: 0x8, addend: 0x0, symName: __ZNSt3__116allocator_traitsINS_9allocatorIPKcEEE8max_sizeB8ne190107IS4_vTnNS_9enable_ifIXntsr14__has_max_sizeIKT_EE5valueEiE4typeELi0EEEmRKS4_, symObjAddr: 0x42778, symBinAddr: 0x100043F64, symSize: 0x0 }
  - { offset: 0x73CFC, size: 0x8, addend: 0x0, symName: __ZNSt3__19allocatorIPKcE8allocateB8ne190107Em, symObjAddr: 0x427CC, symBinAddr: 0x100043FB8, symSize: 0xB8 }
  - { offset: 0x73D30, size: 0x8, addend: 0x0, symName: __ZNSt3__117__compressed_pairIPPKcNS_9allocatorIS2_EEE6secondB8ne190107Ev, symObjAddr: 0x42884, symBinAddr: 0x100044070, symSize: 0xC4 }
  - { offset: 0x73D56, size: 0x8, addend: 0x0, symName: __ZNSt3__122__compressed_pair_elemINS_9allocatorIPKcEELi1ELb1EE5__getB8ne190107Ev, symObjAddr: 0x42948, symBinAddr: 0x100044134, symSize: 0x64 }
  - { offset: 0x73D7C, size: 0x8, addend: 0x0, symName: __ZNSt3__117__compressed_pairIPPKcNS_9allocatorIS2_EEE5firstB8ne190107Ev, symObjAddr: 0x429AC, symBinAddr: 0x100044198, symSize: 0xEC }
  - { offset: 0x73DA2, size: 0x8, addend: 0x0, symName: __ZNSt3__122__compressed_pair_elemIPPKcLi0ELb0EE5__getB8ne190107Ev, symObjAddr: 0x42A98, symBinAddr: 0x100044284, symSize: 0x8C }
  - { offset: 0x73DC8, size: 0x8, addend: 0x0, symName: __ZNKSt3__16vectorIPKcNS_9allocatorIS2_EEE31__annotate_contiguous_containerB8ne190107EPKvS7_, symObjAddr: 0x42B24, symBinAddr: 0x100044310, symSize: 0x144 }
  - { offset: 0x73E0C, size: 0x8, addend: 0x0, symName: __ZNKSt3__16vectorIPKcNS_9allocatorIS2_EEE4dataB8ne190107Ev, symObjAddr: 0x42C68, symBinAddr: 0x100044454, symSize: 0xA0 }
  - { offset: 0x73E32, size: 0x8, addend: 0x0, symName: __ZNKSt3__16vectorIPKcNS_9allocatorIS2_EEE8capacityB8ne190107Ev, symObjAddr: 0x42D08, symBinAddr: 0x1000444F4, symSize: 0x124 }
  - { offset: 0x73E58, size: 0x8, addend: 0x0, symName: __ZNKSt3__16vectorIPKcNS_9allocatorIS2_EEE9__end_capB8ne190107Ev, symObjAddr: 0x42E9C, symBinAddr: 0x100044688, symSize: 0xD8 }
  - { offset: 0x73E7E, size: 0x8, addend: 0x0, symName: __ZNKSt3__117__compressed_pairIPPKcNS_9allocatorIS2_EEE5firstB8ne190107Ev, symObjAddr: 0x42F74, symBinAddr: 0x100044760, symSize: 0xEC }
  - { offset: 0x73EA4, size: 0x8, addend: 0x0, symName: __ZNKSt3__122__compressed_pair_elemIPPKcLi0ELb0EE5__getB8ne190107Ev, symObjAddr: 0x43060, symBinAddr: 0x10004484C, symSize: 0x8C }
  - { offset: 0x73EE6, size: 0x8, addend: 0x0, symName: __ZNSt3__16vectorIPKcNS_9allocatorIS2_EEE21_ConstructTransactionC1B8ne190107ERS5_m, symObjAddr: 0x430EC, symBinAddr: 0x1000448D8, symSize: 0x74 }
  - { offset: 0x73F2E, size: 0x8, addend: 0x0, symName: __ZNSt3__16vectorIPKcNS_9allocatorIS2_EEE21_ConstructTransactionD1B8ne190107Ev, symObjAddr: 0x433CC, symBinAddr: 0x100044BB8, symSize: 0x64 }
  - { offset: 0x73F58, size: 0x8, addend: 0x0, symName: __ZNSt3__16vectorIPKcNS_9allocatorIS2_EEE21_ConstructTransactionC2B8ne190107ERS5_m, symObjAddr: 0x43430, symBinAddr: 0x100044C1C, symSize: 0x34C }
  - { offset: 0x73FA0, size: 0x8, addend: 0x0, symName: __ZNKSt3__16vectorIPKcNS_9allocatorIS2_EEE19__annotate_increaseB8ne190107Em, symObjAddr: 0x4377C, symBinAddr: 0x100044F68, symSize: 0x2B0 }
  - { offset: 0x73FF2, size: 0x8, addend: 0x0, symName: __ZNSt3__119__unwrap_range_implIPPKcS3_E8__unwrapB8ne190107ES3_S3_, symObjAddr: 0x43B34, symBinAddr: 0x100045320, symSize: 0x0 }
  - { offset: 0x7402B, size: 0x8, addend: 0x0, symName: __ZNSt3__14pairIPPKcS3_EC1B8ne190107IS3_S3_TnNS_9enable_ifIXclsr10_CheckArgsE23__is_pair_constructibleIT_T0_EEEiE4typeELi0EEEOS7_OS8_, symObjAddr: 0x43D7C, symBinAddr: 0x100045568, symSize: 0x74 }
  - { offset: 0x7408A, size: 0x8, addend: 0x0, symName: __ZNSt3__14pairIPPKcS3_EC2B8ne190107IS3_S3_TnNS_9enable_ifIXclsr10_CheckArgsE23__is_pair_constructibleIT_T0_EEEiE4typeELi0EEEOS7_OS8_, symObjAddr: 0x43DF0, symBinAddr: 0x1000455DC, symSize: 0x1D8 }
  - { offset: 0x740F4, size: 0x8, addend: 0x0, symName: __ZNKSt3__111__copy_implINS_17_ClassicAlgPolicyEEclB8ne190107IPKcS5_TnNS_9enable_ifIXsr38__can_lower_copy_assignment_to_memmoveIT_T0_EE5valueEiE4typeELi0EEENS_4pairIPS7_PS8_EESC_SC_SD_, symObjAddr: 0x445F4, symBinAddr: 0x100045DE0, symSize: 0x6C }
  - { offset: 0x7415D, size: 0x8, addend: 0x0, symName: __ZNSt3__14pairIPPKcS3_EC1B8ne190107IRS3_S3_TnNS_9enable_ifIXclsr10_CheckArgsE23__is_pair_constructibleIT_T0_EEEiE4typeELi0EEEOS8_OS9_, symObjAddr: 0x44EC0, symBinAddr: 0x1000466AC, symSize: 0x74 }
  - { offset: 0x741BC, size: 0x8, addend: 0x0, symName: __ZNSt3__14pairIPPKcS3_EC2B8ne190107IRS3_S3_TnNS_9enable_ifIXclsr10_CheckArgsE23__is_pair_constructibleIT_T0_EEEiE4typeELi0EEEOS8_OS9_, symObjAddr: 0x44F34, symBinAddr: 0x100046720, symSize: 0x1D8 }
  - { offset: 0x7421B, size: 0x8, addend: 0x0, symName: __ZNSt3__119__unwrap_range_implIPPKcS3_E8__rewrapB8ne190107ES3_S3_, symObjAddr: 0x45114, symBinAddr: 0x100046900, symSize: 0x0 }
  - { offset: 0x7424C, size: 0x8, addend: 0x0, symName: __ZNSt3__118__unwrap_iter_implIPPKcLb1EE8__unwrapB8ne190107ES3_, symObjAddr: 0x45148, symBinAddr: 0x100046934, symSize: 0x0 }
  - { offset: 0x7426F, size: 0x8, addend: 0x0, symName: __ZNSt3__118__unwrap_iter_implIPPKcLb1EE8__rewrapB8ne190107ES3_S3_, symObjAddr: 0x45174, symBinAddr: 0x100046960, symSize: 0x0 }
  - { offset: 0x742A0, size: 0x8, addend: 0x0, symName: __ZNSt3__16vectorIPKcNS_9allocatorIS2_EEE21_ConstructTransactionD2B8ne190107Ev, symObjAddr: 0x45278, symBinAddr: 0x100046A64, symSize: 0x31C }
  - { offset: 0x742CA, size: 0x8, addend: 0x0, symName: __ZNKSt3__16vectorIPKcNS_9allocatorIS2_EEE17__annotate_shrinkB8ne190107Em, symObjAddr: 0x45594, symBinAddr: 0x100046D80, symSize: 0x1F0 }
  - { offset: 0x742FF, size: 0x8, addend: 0x0, symName: __ZNSt3__128__exception_guard_exceptionsINS_6vectorIPKcNS_9allocatorIS3_EEE16__destroy_vectorEED2B8ne190107Ev, symObjAddr: 0x45784, symBinAddr: 0x100046F70, symSize: 0x158 }
  - { offset: 0x74329, size: 0x8, addend: 0x0, symName: __ZNSt3__16vectorIPKcNS_9allocatorIS2_EEE16__destroy_vectorclB8ne190107Ev, symObjAddr: 0x458DC, symBinAddr: 0x1000470C8, symSize: 0x39C }
  - { offset: 0x7434F, size: 0x8, addend: 0x0, symName: __ZNSt3__16vectorIPKcNS_9allocatorIS2_EEE7__clearB8ne190107Ev, symObjAddr: 0x45C78, symBinAddr: 0x100047464, symSize: 0xA0 }
  - { offset: 0x74375, size: 0x8, addend: 0x0, symName: __ZNKSt3__16vectorIPKcNS_9allocatorIS2_EEE17__annotate_deleteB8ne190107Ev, symObjAddr: 0x45D18, symBinAddr: 0x100047504, symSize: 0x200 }
  - { offset: 0x7439B, size: 0x8, addend: 0x0, symName: __ZNSt3__116allocator_traitsINS_9allocatorIPKcEEE10deallocateB8ne190107ERS4_PS3_m, symObjAddr: 0x45F20, symBinAddr: 0x10004770C, symSize: 0x0 }
  - { offset: 0x743DD, size: 0x8, addend: 0x0, symName: __ZNSt3__16vectorIPKcNS_9allocatorIS2_EEE22__base_destruct_at_endB8ne190107EPS2_, symObjAddr: 0x45F54, symBinAddr: 0x100047740, symSize: 0x1C8 }
  - { offset: 0x74421, size: 0x8, addend: 0x0, symName: __ZNSt3__116allocator_traitsINS_9allocatorIPKcEEE7destroyB8ne190107IS3_vTnNS_9enable_ifIXntsr13__has_destroyIS4_PT_EE5valueEiE4typeELi0EEEvRS4_S9_, symObjAddr: 0x46124, symBinAddr: 0x100047910, symSize: 0x0 }
  - { offset: 0x74461, size: 0x8, addend: 0x0, symName: __ZNSt3__19allocatorIPKcE10deallocateB8ne190107EPS2_m, symObjAddr: 0x46164, symBinAddr: 0x100047950, symSize: 0x70 }
  - { offset: 0x744A3, size: 0x8, addend: 0x0, symName: __ZN7testing8internal29PredicateFormatterFromMatcherINS0_23ElementsAreArrayMatcherIPKcEEEC2ES5_, symObjAddr: 0x461D4, symBinAddr: 0x1000479C0, symSize: 0xA4 }
  - { offset: 0x744DD, size: 0x8, addend: 0x0, symName: __ZNKSt16initializer_listIPKcE5beginB8ne190107Ev, symObjAddr: 0x462F8, symBinAddr: 0x100047AE4, symSize: 0x9C }
  - { offset: 0x74503, size: 0x8, addend: 0x0, symName: __ZNKSt16initializer_listIPKcE3endB8ne190107Ev, symObjAddr: 0x46394, symBinAddr: 0x100047B80, symSize: 0x17C }
  - { offset: 0x74529, size: 0x8, addend: 0x0, symName: __ZN7testing8internal23ElementsAreArrayMatcherIPKcEC1IPKS3_EET_S8_, symObjAddr: 0x46510, symBinAddr: 0x100047CFC, symSize: 0x74 }
  - { offset: 0x7457A, size: 0x8, addend: 0x0, symName: __ZN7testing8internal23ElementsAreArrayMatcherIPKcEC2IPKS3_EET_S8_, symObjAddr: 0x46584, symBinAddr: 0x100047D70, symSize: 0x74 }
  - { offset: 0x745CB, size: 0x8, addend: 0x0, symName: __ZNSt3__16vectorIPKcNS_9allocatorIS2_EEEC1IPKS2_TnNS_9enable_ifIXaasr31__has_forward_iterator_categoryIT_EE5valuesr16is_constructibleIS2_NS_15iterator_traitsISA_E9referenceEEE5valueEiE4typeELi0EEESA_SA_, symObjAddr: 0x465F8, symBinAddr: 0x100047DE4, symSize: 0x74 }
  - { offset: 0x74623, size: 0x8, addend: 0x0, symName: __ZNSt3__16vectorIPKcNS_9allocatorIS2_EEEC2IPKS2_TnNS_9enable_ifIXaasr31__has_forward_iterator_categoryIT_EE5valuesr16is_constructibleIS2_NS_15iterator_traitsISA_E9referenceEEE5valueEiE4typeELi0EEESA_SA_, symObjAddr: 0x4666C, symBinAddr: 0x100047E58, symSize: 0x2E0 }
  - { offset: 0x7469C, size: 0x8, addend: 0x0, symName: __ZNSt3__117__compressed_pairIPPKcNS_9allocatorIS2_EEEC1B8ne190107IDnNS_18__default_init_tagEEEOT_OT0_, symObjAddr: 0x4694C, symBinAddr: 0x100048138, symSize: 0x74 }
  - { offset: 0x746F4, size: 0x8, addend: 0x0, symName: __ZNSt3__16vectorIPKcNS_9allocatorIS2_EEE16__init_with_sizeB8ne190107IPKS2_S8_EEvT_T0_m, symObjAddr: 0x469F4, symBinAddr: 0x1000481E0, symSize: 0x370 }
  - { offset: 0x74770, size: 0x8, addend: 0x0, symName: __ZNSt3__117__compressed_pairIPPKcNS_9allocatorIS2_EEEC2B8ne190107IDnNS_18__default_init_tagEEEOT_OT0_, symObjAddr: 0x46D64, symBinAddr: 0x100048550, symSize: 0x104 }
  - { offset: 0x747C8, size: 0x8, addend: 0x0, symName: __ZNSt3__122__compressed_pair_elemINS_9allocatorIPKcEELi1ELb1EEC2B8ne190107ENS_18__default_init_tagE, symObjAddr: 0x46E68, symBinAddr: 0x100048654, symSize: 0x70 }
  - { offset: 0x747FD, size: 0x8, addend: 0x0, symName: __ZNSt3__19allocatorIPKcEC2B8ne190107Ev, symObjAddr: 0x46ED8, symBinAddr: 0x1000486C4, symSize: 0x70 }
  - { offset: 0x74827, size: 0x8, addend: 0x0, symName: __ZNSt3__116__non_trivial_ifILb1ENS_9allocatorIPKcEEEC2B8ne190107Ev, symObjAddr: 0x46F48, symBinAddr: 0x100048734, symSize: 0x48 }
  - { offset: 0x74851, size: 0x8, addend: 0x0, symName: __ZNSt3__16vectorIPKcNS_9allocatorIS2_EEE18__construct_at_endIPKS2_S8_EEvT_T0_m, symObjAddr: 0x46FC0, symBinAddr: 0x1000487AC, symSize: 0x3D4 }
  - { offset: 0x748EA, size: 0x8, addend: 0x0, symName: __ZNSt3__119__unwrap_range_implIPKPKcS4_E8__unwrapB8ne190107ES4_S4_, symObjAddr: 0x4768C, symBinAddr: 0x100048E78, symSize: 0x0 }
  - { offset: 0x74923, size: 0x8, addend: 0x0, symName: __ZNSt3__14pairIPKPKcS4_EC1B8ne190107IS4_S4_TnNS_9enable_ifIXclsr10_CheckArgsE23__is_pair_constructibleIT_T0_EEEiE4typeELi0EEEOS8_OS9_, symObjAddr: 0x47900, symBinAddr: 0x1000490EC, symSize: 0x74 }
  - { offset: 0x74982, size: 0x8, addend: 0x0, symName: __ZNSt3__118__unwrap_iter_implIPKPKcLb1EE8__unwrapB8ne190107ES4_, symObjAddr: 0x4797C, symBinAddr: 0x100049168, symSize: 0x0 }
  - { offset: 0x749A5, size: 0x8, addend: 0x0, symName: __ZNSt3__14pairIPKPKcS4_EC2B8ne190107IS4_S4_TnNS_9enable_ifIXclsr10_CheckArgsE23__is_pair_constructibleIT_T0_EEEiE4typeELi0EEEOS8_OS9_, symObjAddr: 0x479BC, symBinAddr: 0x1000491A8, symSize: 0x1D8 }
  - { offset: 0x74A21, size: 0x8, addend: 0x0, symName: __ZNKSt3__111__copy_implINS_17_ClassicAlgPolicyEEclB8ne190107IKPKcS5_TnNS_9enable_ifIXsr38__can_lower_copy_assignment_to_memmoveIT_T0_EE5valueEiE4typeELi0EEENS_4pairIPS8_PS9_EESD_SD_SE_, symObjAddr: 0x481C0, symBinAddr: 0x1000499AC, symSize: 0x6C }
  - { offset: 0x74A90, size: 0x8, addend: 0x0, symName: __ZNSt3__14pairIPKPKcPS2_EC1B8ne190107IRS4_S5_TnNS_9enable_ifIXclsr10_CheckArgsE23__is_pair_constructibleIT_T0_EEEiE4typeELi0EEEOSA_OSB_, symObjAddr: 0x48A8C, symBinAddr: 0x10004A278, symSize: 0x74 }
  - { offset: 0x74AEF, size: 0x8, addend: 0x0, symName: __ZNSt3__14pairIPKPKcPS2_EC2B8ne190107IRS4_S5_TnNS_9enable_ifIXclsr10_CheckArgsE23__is_pair_constructibleIT_T0_EEEiE4typeELi0EEEOSA_OSB_, symObjAddr: 0x48B00, symBinAddr: 0x10004A2EC, symSize: 0x1D8 }
  - { offset: 0x74B4E, size: 0x8, addend: 0x0, symName: __ZNSt3__14pairIPKPKcPS2_EC1B8ne190107IS4_S5_TnNS_9enable_ifIXclsr10_CheckArgsE23__is_pair_constructibleIT_T0_EEEiE4typeELi0EEEOS9_OSA_, symObjAddr: 0x48CD8, symBinAddr: 0x10004A4C4, symSize: 0x74 }
  - { offset: 0x74BAD, size: 0x8, addend: 0x0, symName: __ZNSt3__14pairIPKPKcPS2_EC2B8ne190107IS4_S5_TnNS_9enable_ifIXclsr10_CheckArgsE23__is_pair_constructibleIT_T0_EEEiE4typeELi0EEEOS9_OSA_, symObjAddr: 0x48D4C, symBinAddr: 0x10004A538, symSize: 0x1D8 }
  - { offset: 0x74C0C, size: 0x8, addend: 0x0, symName: __ZNSt3__119__unwrap_range_implIPKPKcS4_E8__rewrapB8ne190107ES4_S4_, symObjAddr: 0x48F2C, symBinAddr: 0x10004A718, symSize: 0x0 }
  - { offset: 0x74C3D, size: 0x8, addend: 0x0, symName: __ZNSt3__118__unwrap_iter_implIPKPKcLb1EE8__rewrapB8ne190107ES4_S4_, symObjAddr: 0x48FB0, symBinAddr: 0x10004A79C, symSize: 0x0 }
  - { offset: 0x74C74, size: 0x8, addend: 0x0, symName: __ZN7testing8internal15MatcherCastImplIRKNSt3__16vectorINS2_12basic_stringIcNS2_11char_traitsIcEENS2_9allocatorIcEEEENS7_IS9_EEEENS0_23ElementsAreArrayMatcherIPKcEEE4CastERKSH_, symObjAddr: 0x4919C, symBinAddr: 0x10004A988, symSize: 0x0 }
  - { offset: 0x74C98, size: 0x8, addend: 0x0, symName: __ZN7testing8internal15MatcherCastImplIRKNSt3__16vectorINS2_12basic_stringIcNS2_11char_traitsIcEENS2_9allocatorIcEEEENS7_IS9_EEEENS0_23ElementsAreArrayMatcherIPKcEEE8CastImplILb0EEENS_7MatcherISD_EERKSH_NS2_17integral_constantIbLb1EEENSO_IbXT_EEE, symObjAddr: 0x4920C, symBinAddr: 0x10004A9F8, symSize: 0x0 }
  - { offset: 0x74CE2, size: 0x8, addend: 0x0, symName: __ZNK7testing8internal23ElementsAreArrayMatcherIPKcEcvNS_7MatcherIT_EEIRKNSt3__16vectorINS9_12basic_stringIcNS9_11char_traitsIcEENS9_9allocatorIcEEEENSE_ISG_EEEEEEv, symObjAddr: 0x49264, symBinAddr: 0x10004AA50, symSize: 0x1CC }
  - { offset: 0x74D11, size: 0x8, addend: 0x0, symName: __ZNKSt3__16vectorIPKcNS_9allocatorIS2_EEE5beginB8ne190107Ev, symObjAddr: 0x49430, symBinAddr: 0x10004AC1C, symSize: 0xA8 }
  - { offset: 0x74D37, size: 0x8, addend: 0x0, symName: __ZNKSt3__16vectorIPKcNS_9allocatorIS2_EEE3endB8ne190107Ev, symObjAddr: 0x494D8, symBinAddr: 0x10004ACC4, symSize: 0xAC }
  - { offset: 0x74D6E, size: 0x8, addend: 0x0, symName: __ZN7testing8internal22ElementsAreMatcherImplIRKNSt3__16vectorINS2_12basic_stringIcNS2_11char_traitsIcEENS2_9allocatorIcEEEENS7_IS9_EEEEEC1INS2_11__wrap_iterIPKPKcEEEET_SM_, symObjAddr: 0x49584, symBinAddr: 0x10004AD70, symSize: 0x74 }
  - { offset: 0x74DBF, size: 0x8, addend: 0x0, symName: __ZNKSt3__16vectorIPKcNS_9allocatorIS2_EEE11__make_iterB8ne190107EPKS2_, symObjAddr: 0x495F8, symBinAddr: 0x10004ADE4, symSize: 0x1E8 }
  - { offset: 0x74DF6, size: 0x8, addend: 0x0, symName: __ZNSt3__111__wrap_iterIPKPKcEC1B8ne190107ES4_, symObjAddr: 0x497E0, symBinAddr: 0x10004AFCC, symSize: 0x6C }
  - { offset: 0x74E2E, size: 0x8, addend: 0x0, symName: __ZNSt3__111__wrap_iterIPKPKcEC2B8ne190107ES4_, symObjAddr: 0x4984C, symBinAddr: 0x10004B038, symSize: 0xB8 }
  - { offset: 0x74E66, size: 0x8, addend: 0x0, symName: __ZN7testing8internal22ElementsAreMatcherImplIRKNSt3__16vectorINS2_12basic_stringIcNS2_11char_traitsIcEENS2_9allocatorIcEEEENS7_IS9_EEEEEC2INS2_11__wrap_iterIPKPKcEEEET_SM_, symObjAddr: 0x49904, symBinAddr: 0x10004B0F0, symSize: 0x5AC }
  - { offset: 0x74EC0, size: 0x8, addend: 0x0, symName: __ZNSt3__16vectorIN7testing7MatcherIRKNS_12basic_stringIcNS_11char_traitsIcEENS_9allocatorIcEEEEEENS6_ISB_EEEC1B8ne190107Ev, symObjAddr: 0x49EB0, symBinAddr: 0x10004B69C, symSize: 0x64 }
  - { offset: 0x74EEA, size: 0x8, addend: 0x0, symName: __ZNSt3__16vectorIN7testing7MatcherIRKNS_12basic_stringIcNS_11char_traitsIcEENS_9allocatorIcEEEEEENS6_ISB_EEE9push_backB8ne190107EOSB_, symObjAddr: 0x49FAC, symBinAddr: 0x10004B798, symSize: 0x27C }
  - { offset: 0x74F2E, size: 0x8, addend: 0x0, symName: __ZNSt3__111__wrap_iterIPKPKcEppB8ne190107Ei, symObjAddr: 0x4A298, symBinAddr: 0x10004BA84, symSize: 0xA8 }
  - { offset: 0x74F6D, size: 0x8, addend: 0x0, symName: __ZNKSt3__111__wrap_iterIPKPKcEdeB8ne190107Ev, symObjAddr: 0x4A340, symBinAddr: 0x10004BB2C, symSize: 0xD4 }
  - { offset: 0x74F93, size: 0x8, addend: 0x0, symName: __ZN7testing7MatcherIRKNSt3__112basic_stringIcNS1_11char_traitsIcEENS1_9allocatorIcEEEEED1Ev, symObjAddr: 0x4A414, symBinAddr: 0x10004BC00, symSize: 0x64 }
  - { offset: 0x74FC0, size: 0x8, addend: 0x0, symName: __ZNSt3__16vectorIN7testing7MatcherIRKNS_12basic_stringIcNS_11char_traitsIcEENS_9allocatorIcEEEEEENS6_ISB_EEED1B8ne190107Ev, symObjAddr: 0x4A478, symBinAddr: 0x10004BC64, symSize: 0x64 }
  - { offset: 0x74FEA, size: 0x8, addend: 0x0, symName: __ZN7testing8internal22ElementsAreMatcherImplIRKNSt3__16vectorINS2_12basic_stringIcNS2_11char_traitsIcEENS2_9allocatorIcEEEENS7_IS9_EEEEED1Ev, symObjAddr: 0x4A4DC, symBinAddr: 0x10004BCC8, symSize: 0x64 }
  - { offset: 0x75017, size: 0x8, addend: 0x0, symName: __ZN7testing8internal22ElementsAreMatcherImplIRKNSt3__16vectorINS2_12basic_stringIcNS2_11char_traitsIcEENS2_9allocatorIcEEEENS7_IS9_EEEEED0Ev, symObjAddr: 0x4A540, symBinAddr: 0x10004BD2C, symSize: 0x68 }
  - { offset: 0x75044, size: 0x8, addend: 0x0, symName: __ZNK7testing8internal22ElementsAreMatcherImplIRKNSt3__16vectorINS2_12basic_stringIcNS2_11char_traitsIcEENS2_9allocatorIcEEEENS7_IS9_EEEEE10DescribeToEPNS2_13basic_ostreamIcS6_EE, symObjAddr: 0x4A5A8, symBinAddr: 0x10004BD94, symSize: 0xAF8 }
  - { offset: 0x75091, size: 0x8, addend: 0x0, symName: __ZNK7testing8internal22ElementsAreMatcherImplIRKNSt3__16vectorINS2_12basic_stringIcNS2_11char_traitsIcEENS2_9allocatorIcEEEENS7_IS9_EEEEE18DescribeNegationToEPNS2_13basic_ostreamIcS6_EE, symObjAddr: 0x4B0A0, symBinAddr: 0x10004C88C, symSize: 0x8BC }
  - { offset: 0x750DE, size: 0x8, addend: 0x0, symName: __ZNK7testing8internal22ElementsAreMatcherImplIRKNSt3__16vectorINS2_12basic_stringIcNS2_11char_traitsIcEENS2_9allocatorIcEEEENS7_IS9_EEEEE15MatchAndExplainESD_PNS_19MatchResultListenerE, symObjAddr: 0x4B95C, symBinAddr: 0x10004D148, symSize: 0x1A88 }
  - { offset: 0x75215, size: 0x8, addend: 0x0, symName: __ZNSt3__16vectorIN7testing7MatcherIRKNS_12basic_stringIcNS_11char_traitsIcEENS_9allocatorIcEEEEEENS6_ISB_EEEC2B8ne190107Ev, symObjAddr: 0x4D3E4, symBinAddr: 0x10004EBD0, symSize: 0x2C4 }
  - { offset: 0x75240, size: 0x8, addend: 0x0, symName: __ZNSt3__117__compressed_pairIPN7testing7MatcherIRKNS_12basic_stringIcNS_11char_traitsIcEENS_9allocatorIcEEEEEENS6_ISB_EEEC1B8ne190107IDnNS_18__default_init_tagEEEOT_OT0_, symObjAddr: 0x4D6A8, symBinAddr: 0x10004EE94, symSize: 0x74 }
  - { offset: 0x75298, size: 0x8, addend: 0x0, symName: __ZNSt3__117__compressed_pairIPN7testing7MatcherIRKNS_12basic_stringIcNS_11char_traitsIcEENS_9allocatorIcEEEEEENS6_ISB_EEEC2B8ne190107IDnNS_18__default_init_tagEEEOT_OT0_, symObjAddr: 0x4D71C, symBinAddr: 0x10004EF08, symSize: 0x104 }
  - { offset: 0x752F0, size: 0x8, addend: 0x0, symName: __ZNSt3__122__compressed_pair_elemIPN7testing7MatcherIRKNS_12basic_stringIcNS_11char_traitsIcEENS_9allocatorIcEEEEEELi0ELb0EEC2B8ne190107IDnTnNS_9enable_ifIXntsr7is_sameISD_u7__decayIT_EEE5valueEiE4typeELi0EEEOSG_, symObjAddr: 0x4D820, symBinAddr: 0x10004F00C, symSize: 0xAC }
  - { offset: 0x75338, size: 0x8, addend: 0x0, symName: __ZNSt3__122__compressed_pair_elemINS_9allocatorIN7testing7MatcherIRKNS_12basic_stringIcNS_11char_traitsIcEENS1_IcEEEEEEEELi1ELb1EEC2B8ne190107ENS_18__default_init_tagE, symObjAddr: 0x4D8CC, symBinAddr: 0x10004F0B8, symSize: 0x70 }
  - { offset: 0x7536D, size: 0x8, addend: 0x0, symName: __ZNSt3__19allocatorIN7testing7MatcherIRKNS_12basic_stringIcNS_11char_traitsIcEENS0_IcEEEEEEEC2B8ne190107Ev, symObjAddr: 0x4D93C, symBinAddr: 0x10004F128, symSize: 0x70 }
  - { offset: 0x75397, size: 0x8, addend: 0x0, symName: __ZNSt3__116__non_trivial_ifILb1ENS_9allocatorIN7testing7MatcherIRKNS_12basic_stringIcNS_11char_traitsIcEENS1_IcEEEEEEEEEC2B8ne190107Ev, symObjAddr: 0x4D9AC, symBinAddr: 0x10004F198, symSize: 0x48 }
  - { offset: 0x753C1, size: 0x8, addend: 0x0, symName: __ZNKSt3__111__wrap_iterIPKPKcE4baseB8ne190107Ev, symObjAddr: 0x4D9F4, symBinAddr: 0x10004F1E0, symSize: 0x9C }
  - { offset: 0x753E7, size: 0x8, addend: 0x0, symName: __ZNSt3__16vectorIN7testing7MatcherIRKNS_12basic_stringIcNS_11char_traitsIcEENS_9allocatorIcEEEEEENS6_ISB_EEE9__end_capB8ne190107Ev, symObjAddr: 0x4DA90, symBinAddr: 0x10004F27C, symSize: 0xD8 }
  - { offset: 0x75413, size: 0x8, addend: 0x0, symName: __ZNSt3__16vectorIN7testing7MatcherIRKNS_12basic_stringIcNS_11char_traitsIcEENS_9allocatorIcEEEEEENS6_ISB_EEE22__construct_one_at_endB8ne190107IJSB_EEEvDpOT_, symObjAddr: 0x4DB68, symBinAddr: 0x10004F354, symSize: 0x440 }
  - { offset: 0x75468, size: 0x8, addend: 0x0, symName: __ZNSt3__16vectorIN7testing7MatcherIRKNS_12basic_stringIcNS_11char_traitsIcEENS_9allocatorIcEEEEEENS6_ISB_EEE21__push_back_slow_pathISB_EEPSB_OT_, symObjAddr: 0x4DFA8, symBinAddr: 0x10004F794, symSize: 0x4E4 }
  - { offset: 0x754CB, size: 0x8, addend: 0x0, symName: __ZNSt3__117__compressed_pairIPN7testing7MatcherIRKNS_12basic_stringIcNS_11char_traitsIcEENS_9allocatorIcEEEEEENS6_ISB_EEE5firstB8ne190107Ev, symObjAddr: 0x4E48C, symBinAddr: 0x10004FC78, symSize: 0xEC }
  - { offset: 0x754F1, size: 0x8, addend: 0x0, symName: __ZNSt3__122__compressed_pair_elemIPN7testing7MatcherIRKNS_12basic_stringIcNS_11char_traitsIcEENS_9allocatorIcEEEEEELi0ELb0EE5__getB8ne190107Ev, symObjAddr: 0x4E578, symBinAddr: 0x10004FD64, symSize: 0x8C }
  - { offset: 0x75533, size: 0x8, addend: 0x0, symName: __ZNSt3__16vectorIN7testing7MatcherIRKNS_12basic_stringIcNS_11char_traitsIcEENS_9allocatorIcEEEEEENS6_ISB_EEE21_ConstructTransactionC1B8ne190107ERSD_m, symObjAddr: 0x4E604, symBinAddr: 0x10004FDF0, symSize: 0x74 }
  - { offset: 0x7557B, size: 0x8, addend: 0x0, symName: __ZNSt3__116allocator_traitsINS_9allocatorIN7testing7MatcherIRKNS_12basic_stringIcNS_11char_traitsIcEENS1_IcEEEEEEEEE9constructB8ne190107ISB_JSB_EvTnNS_9enable_ifIXntsr15__has_constructISC_PT_DpT0_EE5valueEiE4typeELi0EEEvRSC_SH_DpOSI_, symObjAddr: 0x4E680, symBinAddr: 0x10004FE6C, symSize: 0x0 }
  - { offset: 0x755D5, size: 0x8, addend: 0x0, symName: __ZNSt3__16vectorIN7testing7MatcherIRKNS_12basic_stringIcNS_11char_traitsIcEENS_9allocatorIcEEEEEENS6_ISB_EEE7__allocB8ne190107Ev, symObjAddr: 0x4E6F0, symBinAddr: 0x10004FEDC, symSize: 0xC4 }
  - { offset: 0x755FB, size: 0x8, addend: 0x0, symName: __ZNSt3__16vectorIN7testing7MatcherIRKNS_12basic_stringIcNS_11char_traitsIcEENS_9allocatorIcEEEEEENS6_ISB_EEE21_ConstructTransactionD1B8ne190107Ev, symObjAddr: 0x4E7D0, symBinAddr: 0x10004FFBC, symSize: 0x64 }
  - { offset: 0x75625, size: 0x8, addend: 0x0, symName: __ZNSt3__16vectorIN7testing7MatcherIRKNS_12basic_stringIcNS_11char_traitsIcEENS_9allocatorIcEEEEEENS6_ISB_EEE21_ConstructTransactionC2B8ne190107ERSD_m, symObjAddr: 0x4E834, symBinAddr: 0x100050020, symSize: 0x354 }
  - { offset: 0x7566D, size: 0x8, addend: 0x0, symName: __ZNKSt3__16vectorIN7testing7MatcherIRKNS_12basic_stringIcNS_11char_traitsIcEENS_9allocatorIcEEEEEENS6_ISB_EEE19__annotate_increaseB8ne190107Em, symObjAddr: 0x4EB88, symBinAddr: 0x100050374, symSize: 0x2C8 }
  - { offset: 0x756A2, size: 0x8, addend: 0x0, symName: __ZNKSt3__16vectorIN7testing7MatcherIRKNS_12basic_stringIcNS_11char_traitsIcEENS_9allocatorIcEEEEEENS6_ISB_EEE31__annotate_contiguous_containerB8ne190107EPKvSF_, symObjAddr: 0x4EE50, symBinAddr: 0x10005063C, symSize: 0x14C }
  - { offset: 0x756E6, size: 0x8, addend: 0x0, symName: __ZNKSt3__16vectorIN7testing7MatcherIRKNS_12basic_stringIcNS_11char_traitsIcEENS_9allocatorIcEEEEEENS6_ISB_EEE4dataB8ne190107Ev, symObjAddr: 0x4EF9C, symBinAddr: 0x100050788, symSize: 0xA0 }
  - { offset: 0x7570C, size: 0x8, addend: 0x0, symName: __ZNKSt3__16vectorIN7testing7MatcherIRKNS_12basic_stringIcNS_11char_traitsIcEENS_9allocatorIcEEEEEENS6_ISB_EEE4sizeB8ne190107Ev, symObjAddr: 0x4F03C, symBinAddr: 0x100050828, symSize: 0xE0 }
  - { offset: 0x75732, size: 0x8, addend: 0x0, symName: __ZNKSt3__16vectorIN7testing7MatcherIRKNS_12basic_stringIcNS_11char_traitsIcEENS_9allocatorIcEEEEEENS6_ISB_EEE8capacityB8ne190107Ev, symObjAddr: 0x4F170, symBinAddr: 0x10005095C, symSize: 0x124 }
  - { offset: 0x75758, size: 0x8, addend: 0x0, symName: __ZNKSt3__16vectorIN7testing7MatcherIRKNS_12basic_stringIcNS_11char_traitsIcEENS_9allocatorIcEEEEEENS6_ISB_EEE9__end_capB8ne190107Ev, symObjAddr: 0x4F294, symBinAddr: 0x100050A80, symSize: 0xD8 }
  - { offset: 0x7577E, size: 0x8, addend: 0x0, symName: __ZNKSt3__117__compressed_pairIPN7testing7MatcherIRKNS_12basic_stringIcNS_11char_traitsIcEENS_9allocatorIcEEEEEENS6_ISB_EEE5firstB8ne190107Ev, symObjAddr: 0x4F36C, symBinAddr: 0x100050B58, symSize: 0xEC }
  - { offset: 0x757A4, size: 0x8, addend: 0x0, symName: __ZNKSt3__122__compressed_pair_elemIPN7testing7MatcherIRKNS_12basic_stringIcNS_11char_traitsIcEENS_9allocatorIcEEEEEELi0ELb0EE5__getB8ne190107Ev, symObjAddr: 0x4F458, symBinAddr: 0x100050C44, symSize: 0x8C }
  - { offset: 0x757CA, size: 0x8, addend: 0x0, symName: __ZN7testing7MatcherIRKNSt3__112basic_stringIcNS1_11char_traitsIcEENS1_9allocatorIcEEEEEC1EOSA_, symObjAddr: 0x4F640, symBinAddr: 0x100050E2C, symSize: 0x6C }
  - { offset: 0x75800, size: 0x8, addend: 0x0, symName: __ZN7testing7MatcherIRKNSt3__112basic_stringIcNS1_11char_traitsIcEENS1_9allocatorIcEEEEEC2EOSA_, symObjAddr: 0x4F6AC, symBinAddr: 0x100050E98, symSize: 0x15C }
  - { offset: 0x75836, size: 0x8, addend: 0x0, symName: __ZN7testing8internal11MatcherBaseIRKNSt3__112basic_stringIcNS2_11char_traitsIcEENS2_9allocatorIcEEEEEC2EOSB_, symObjAddr: 0x4F808, symBinAddr: 0x100050FF4, symSize: 0x218 }
  - { offset: 0x7586F, size: 0x8, addend: 0x0, symName: __ZN7testing7MatcherIRKNSt3__112basic_stringIcNS1_11char_traitsIcEENS1_9allocatorIcEEEEED0Ev, symObjAddr: 0x4FA20, symBinAddr: 0x10005120C, symSize: 0x68 }
  - { offset: 0x7589C, size: 0x8, addend: 0x0, symName: __ZNK7testing8internal11MatcherBaseIRKNSt3__112basic_stringIcNS2_11char_traitsIcEENS2_9allocatorIcEEEEE10DescribeToEPNS2_13basic_ostreamIcS5_EE, symObjAddr: 0x4FA88, symBinAddr: 0x100051274, symSize: 0x59C }
  - { offset: 0x758D2, size: 0x8, addend: 0x0, symName: __ZNK7testing8internal11MatcherBaseIRKNSt3__112basic_stringIcNS2_11char_traitsIcEENS2_9allocatorIcEEEEE18DescribeNegationToEPNS2_13basic_ostreamIcS5_EE, symObjAddr: 0x50024, symBinAddr: 0x100051810, symSize: 0x59C }
  - { offset: 0x75908, size: 0x8, addend: 0x0, symName: __ZN7testing8internal11MatcherBaseIRKNSt3__112basic_stringIcNS2_11char_traitsIcEENS2_9allocatorIcEEEEED1Ev, symObjAddr: 0x505C0, symBinAddr: 0x100051DAC, symSize: 0x64 }
  - { offset: 0x75932, size: 0x8, addend: 0x0, symName: __ZN7testing8internal11MatcherBaseIRKNSt3__112basic_stringIcNS2_11char_traitsIcEENS2_9allocatorIcEEEEED0Ev, symObjAddr: 0x50624, symBinAddr: 0x100051E10, symSize: 0x68 }
  - { offset: 0x7595C, size: 0x8, addend: 0x0, symName: __ZN7testing8internal11MatcherBaseIRKNSt3__112basic_stringIcNS2_11char_traitsIcEENS2_9allocatorIcEEEEED2Ev, symObjAddr: 0x5068C, symBinAddr: 0x100051E78, symSize: 0x140 }
  - { offset: 0x75986, size: 0x8, addend: 0x0, symName: __ZN7testing8internal11MatcherBaseIRKNSt3__112basic_stringIcNS2_11char_traitsIcEENS2_9allocatorIcEEEEE7DestroyEv, symObjAddr: 0x507CC, symBinAddr: 0x100051FB8, symSize: 0x468 }
  - { offset: 0x759AC, size: 0x8, addend: 0x0, symName: __ZNK7testing8internal11MatcherBaseIRKNSt3__112basic_stringIcNS2_11char_traitsIcEENS2_9allocatorIcEEEEE8IsSharedEv, symObjAddr: 0x50C34, symBinAddr: 0x100052420, symSize: 0x27C }
  - { offset: 0x759D2, size: 0x8, addend: 0x0, symName: __ZNSt3__117__compressed_pairIPN7testing7MatcherIRKNS_12basic_stringIcNS_11char_traitsIcEENS_9allocatorIcEEEEEENS6_ISB_EEE6secondB8ne190107Ev, symObjAddr: 0x50EB0, symBinAddr: 0x10005269C, symSize: 0xC4 }
  - { offset: 0x759F8, size: 0x8, addend: 0x0, symName: __ZNSt3__122__compressed_pair_elemINS_9allocatorIN7testing7MatcherIRKNS_12basic_stringIcNS_11char_traitsIcEENS1_IcEEEEEEEELi1ELb1EE5__getB8ne190107Ev, symObjAddr: 0x50F74, symBinAddr: 0x100052760, symSize: 0x64 }
  - { offset: 0x75A1E, size: 0x8, addend: 0x0, symName: __ZNSt3__16vectorIN7testing7MatcherIRKNS_12basic_stringIcNS_11char_traitsIcEENS_9allocatorIcEEEEEENS6_ISB_EEE21_ConstructTransactionD2B8ne190107Ev, symObjAddr: 0x50FD8, symBinAddr: 0x1000527C4, symSize: 0x31C }
  - { offset: 0x75A48, size: 0x8, addend: 0x0, symName: __ZNKSt3__16vectorIN7testing7MatcherIRKNS_12basic_stringIcNS_11char_traitsIcEENS_9allocatorIcEEEEEENS6_ISB_EEE17__annotate_shrinkB8ne190107Em, symObjAddr: 0x512F4, symBinAddr: 0x100052AE0, symSize: 0x200 }
  - { offset: 0x75A7D, size: 0x8, addend: 0x0, symName: __ZNKSt3__16vectorIN7testing7MatcherIRKNS_12basic_stringIcNS_11char_traitsIcEENS_9allocatorIcEEEEEENS6_ISB_EEE11__recommendB8ne190107Em, symObjAddr: 0x514F4, symBinAddr: 0x100052CE0, symSize: 0x378 }
  - { offset: 0x75AD7, size: 0x8, addend: 0x0, symName: __ZNSt3__114__split_bufferIN7testing7MatcherIRKNS_12basic_stringIcNS_11char_traitsIcEENS_9allocatorIcEEEEEERNS6_ISB_EEEC1EmmSD_, symObjAddr: 0x5186C, symBinAddr: 0x100053058, symSize: 0x7C }
  - { offset: 0x75B2B, size: 0x8, addend: 0x0, symName: __ZNSt3__16vectorIN7testing7MatcherIRKNS_12basic_stringIcNS_11char_traitsIcEENS_9allocatorIcEEEEEENS6_ISB_EEE26__swap_out_circular_bufferERNS_14__split_bufferISB_RSC_EE, symObjAddr: 0x518E8, symBinAddr: 0x1000530D4, symSize: 0x660 }
  - { offset: 0x75B6F, size: 0x8, addend: 0x0, symName: __ZNSt3__114__split_bufferIN7testing7MatcherIRKNS_12basic_stringIcNS_11char_traitsIcEENS_9allocatorIcEEEEEERNS6_ISB_EEED1Ev, symObjAddr: 0x51F48, symBinAddr: 0x100053734, symSize: 0x64 }
  - { offset: 0x75B99, size: 0x8, addend: 0x0, symName: __ZNKSt3__16vectorIN7testing7MatcherIRKNS_12basic_stringIcNS_11char_traitsIcEENS_9allocatorIcEEEEEENS6_ISB_EEE8max_sizeEv, symObjAddr: 0x51FAC, symBinAddr: 0x100053798, symSize: 0x2FC }
  - { offset: 0x75BC0, size: 0x8, addend: 0x0, symName: __ZNKSt3__16vectorIN7testing7MatcherIRKNS_12basic_stringIcNS_11char_traitsIcEENS_9allocatorIcEEEEEENS6_ISB_EEE20__throw_length_errorB8ne190107Ev, symObjAddr: 0x522A8, symBinAddr: 0x100053A94, symSize: 0x74 }
  - { offset: 0x75BF1, size: 0x8, addend: 0x0, symName: __ZNSt3__116allocator_traitsINS_9allocatorIN7testing7MatcherIRKNS_12basic_stringIcNS_11char_traitsIcEENS1_IcEEEEEEEEE8max_sizeB8ne190107ISC_vTnNS_9enable_ifIXntsr14__has_max_sizeIKT_EE5valueEiE4typeELi0EEEmRKSC_, symObjAddr: 0x52400, symBinAddr: 0x100053BEC, symSize: 0x0 }
  - { offset: 0x75C22, size: 0x8, addend: 0x0, symName: __ZNKSt3__16vectorIN7testing7MatcherIRKNS_12basic_stringIcNS_11char_traitsIcEENS_9allocatorIcEEEEEENS6_ISB_EEE7__allocB8ne190107Ev, symObjAddr: 0x52454, symBinAddr: 0x100053C40, symSize: 0xC4 }
  - { offset: 0x75C48, size: 0x8, addend: 0x0, symName: __ZNKSt3__117__compressed_pairIPN7testing7MatcherIRKNS_12basic_stringIcNS_11char_traitsIcEENS_9allocatorIcEEEEEENS6_ISB_EEE6secondB8ne190107Ev, symObjAddr: 0x52518, symBinAddr: 0x100053D04, symSize: 0xC4 }
  - { offset: 0x75C6E, size: 0x8, addend: 0x0, symName: __ZNKSt3__122__compressed_pair_elemINS_9allocatorIN7testing7MatcherIRKNS_12basic_stringIcNS_11char_traitsIcEENS1_IcEEEEEEEELi1ELb1EE5__getB8ne190107Ev, symObjAddr: 0x525DC, symBinAddr: 0x100053DC8, symSize: 0x64 }
  - { offset: 0x75C94, size: 0x8, addend: 0x0, symName: __ZNSt3__114__split_bufferIN7testing7MatcherIRKNS_12basic_stringIcNS_11char_traitsIcEENS_9allocatorIcEEEEEERNS6_ISB_EEEC2EmmSD_, symObjAddr: 0x528B8, symBinAddr: 0x1000540A4, symSize: 0x630 }
  - { offset: 0x75D0D, size: 0x8, addend: 0x0, symName: __ZNSt3__117__compressed_pairIPN7testing7MatcherIRKNS_12basic_stringIcNS_11char_traitsIcEENS_9allocatorIcEEEEEERNS6_ISB_EEEC1B8ne190107IDnSE_EEOT_OT0_, symObjAddr: 0x52EE8, symBinAddr: 0x1000546D4, symSize: 0x74 }
  - { offset: 0x75D65, size: 0x8, addend: 0x0, symName: __ZNSt3__114__split_bufferIN7testing7MatcherIRKNS_12basic_stringIcNS_11char_traitsIcEENS_9allocatorIcEEEEEERNS6_ISB_EEE7__allocB8ne190107Ev, symObjAddr: 0x52FA4, symBinAddr: 0x100054790, symSize: 0xC4 }
  - { offset: 0x75D8B, size: 0x8, addend: 0x0, symName: __ZNSt3__114__split_bufferIN7testing7MatcherIRKNS_12basic_stringIcNS_11char_traitsIcEENS_9allocatorIcEEEEEERNS6_ISB_EEE9__end_capB8ne190107Ev, symObjAddr: 0x53068, symBinAddr: 0x100054854, symSize: 0xD8 }
  - { offset: 0x75DB1, size: 0x8, addend: 0x0, symName: __ZNSt3__117__compressed_pairIPN7testing7MatcherIRKNS_12basic_stringIcNS_11char_traitsIcEENS_9allocatorIcEEEEEERNS6_ISB_EEEC2B8ne190107IDnSE_EEOT_OT0_, symObjAddr: 0x53140, symBinAddr: 0x10005492C, symSize: 0x154 }
  - { offset: 0x75E09, size: 0x8, addend: 0x0, symName: __ZNSt3__122__compressed_pair_elemIRNS_9allocatorIN7testing7MatcherIRKNS_12basic_stringIcNS_11char_traitsIcEENS1_IcEEEEEEEELi1ELb0EEC2B8ne190107ISD_TnNS_9enable_ifIXntsr7is_sameISE_u7__decayIT_EEE5valueEiE4typeELi0EEEOSH_, symObjAddr: 0x53294, symBinAddr: 0x100054A80, symSize: 0xD4 }
  - { offset: 0x75E51, size: 0x8, addend: 0x0, symName: __ZNSt3__19allocatorIN7testing7MatcherIRKNS_12basic_stringIcNS_11char_traitsIcEENS0_IcEEEEEEE8allocateB8ne190107Em, symObjAddr: 0x53368, symBinAddr: 0x100054B54, symSize: 0xBC }
  - { offset: 0x75E85, size: 0x8, addend: 0x0, symName: __ZNSt3__117__compressed_pairIPN7testing7MatcherIRKNS_12basic_stringIcNS_11char_traitsIcEENS_9allocatorIcEEEEEERNS6_ISB_EEE6secondB8ne190107Ev, symObjAddr: 0x53424, symBinAddr: 0x100054C10, symSize: 0xE8 }
  - { offset: 0x75EAB, size: 0x8, addend: 0x0, symName: __ZNSt3__122__compressed_pair_elemIRNS_9allocatorIN7testing7MatcherIRKNS_12basic_stringIcNS_11char_traitsIcEENS1_IcEEEEEEEELi1ELb0EE5__getB8ne190107Ev, symObjAddr: 0x5350C, symBinAddr: 0x100054CF8, symSize: 0xC0 }
  - { offset: 0x75ED1, size: 0x8, addend: 0x0, symName: __ZNSt3__117__compressed_pairIPN7testing7MatcherIRKNS_12basic_stringIcNS_11char_traitsIcEENS_9allocatorIcEEEEEERNS6_ISB_EEE5firstB8ne190107Ev, symObjAddr: 0x535CC, symBinAddr: 0x100054DB8, symSize: 0xEC }
  - { offset: 0x75EF7, size: 0x8, addend: 0x0, symName: __ZNKSt3__16vectorIN7testing7MatcherIRKNS_12basic_stringIcNS_11char_traitsIcEENS_9allocatorIcEEEEEENS6_ISB_EEE17__annotate_deleteB8ne190107Ev, symObjAddr: 0x536B8, symBinAddr: 0x100054EA4, symSize: 0x210 }
  - { offset: 0x75F1D, size: 0x8, addend: 0x0, symName: __ZNKSt3__16vectorIN7testing7MatcherIRKNS_12basic_stringIcNS_11char_traitsIcEENS_9allocatorIcEEEEEENS6_ISB_EEE14__annotate_newB8ne190107Em, symObjAddr: 0x53FB4, symBinAddr: 0x1000557A0, symSize: 0x200 }
  - { offset: 0x75F52, size: 0x8, addend: 0x0, symName: __ZNSt3__129_AllocatorDestroyRangeReverseINS_9allocatorIN7testing7MatcherIRKNS_12basic_stringIcNS_11char_traitsIcEENS1_IcEEEEEEEEPSB_EC1B8ne190107ERSC_RSD_SG_, symObjAddr: 0x543C0, symBinAddr: 0x100055BAC, symSize: 0x7C }
  - { offset: 0x75FAF, size: 0x8, addend: 0x0, symName: __ZNSt3__116allocator_traitsINS_9allocatorIN7testing7MatcherIRKNS_12basic_stringIcNS_11char_traitsIcEENS1_IcEEEEEEEEE9constructB8ne190107ISB_JRKSB_EvTnNS_9enable_ifIXntsr15__has_constructISC_PT_DpT0_EE5valueEiE4typeELi0EEEvRSC_SJ_DpOSK_, symObjAddr: 0x54444, symBinAddr: 0x100055C30, symSize: 0x0 }
  - { offset: 0x76009, size: 0x8, addend: 0x0, symName: __ZNSt3__128__exception_guard_exceptionsINS_29_AllocatorDestroyRangeReverseINS_9allocatorIN7testing7MatcherIRKNS_12basic_stringIcNS_11char_traitsIcEENS2_IcEEEEEEEEPSC_EEE10__completeB8ne190107Ev, symObjAddr: 0x544B4, symBinAddr: 0x100055CA0, symSize: 0xC4 }
  - { offset: 0x7602F, size: 0x8, addend: 0x0, symName: __ZNSt3__128__exception_guard_exceptionsINS_29_AllocatorDestroyRangeReverseINS_9allocatorIN7testing7MatcherIRKNS_12basic_stringIcNS_11char_traitsIcEENS2_IcEEEEEEEEPSC_EEED1B8ne190107Ev, symObjAddr: 0x54674, symBinAddr: 0x100055E60, symSize: 0x64 }
  - { offset: 0x76059, size: 0x8, addend: 0x0, symName: __ZNSt3__128__exception_guard_exceptionsINS_29_AllocatorDestroyRangeReverseINS_9allocatorIN7testing7MatcherIRKNS_12basic_stringIcNS_11char_traitsIcEENS2_IcEEEEEEEEPSC_EEEC1B8ne190107ESF_, symObjAddr: 0x546D8, symBinAddr: 0x100055EC4, symSize: 0x70 }
  - { offset: 0x76092, size: 0x8, addend: 0x0, symName: __ZNSt3__128__exception_guard_exceptionsINS_29_AllocatorDestroyRangeReverseINS_9allocatorIN7testing7MatcherIRKNS_12basic_stringIcNS_11char_traitsIcEENS2_IcEEEEEEEEPSC_EEEC2B8ne190107ESF_, symObjAddr: 0x54748, symBinAddr: 0x100055F34, symSize: 0xE4 }
  - { offset: 0x760CB, size: 0x8, addend: 0x0, symName: __ZNSt3__129_AllocatorDestroyRangeReverseINS_9allocatorIN7testing7MatcherIRKNS_12basic_stringIcNS_11char_traitsIcEENS1_IcEEEEEEEEPSB_EC2B8ne190107ERSC_RSD_SG_, symObjAddr: 0x5482C, symBinAddr: 0x100056018, symSize: 0x1C4 }
  - { offset: 0x76122, size: 0x8, addend: 0x0, symName: __ZN7testing7MatcherIRKNSt3__112basic_stringIcNS1_11char_traitsIcEENS1_9allocatorIcEEEEEC1ERKSA_, symObjAddr: 0x54B4C, symBinAddr: 0x100056338, symSize: 0x6C }
  - { offset: 0x76158, size: 0x8, addend: 0x0, symName: __ZN7testing7MatcherIRKNSt3__112basic_stringIcNS1_11char_traitsIcEENS1_9allocatorIcEEEEEC2ERKSA_, symObjAddr: 0x54BB8, symBinAddr: 0x1000563A4, symSize: 0x15C }
  - { offset: 0x7618E, size: 0x8, addend: 0x0, symName: __ZN7testing8internal11MatcherBaseIRKNSt3__112basic_stringIcNS2_11char_traitsIcEENS2_9allocatorIcEEEEEC2ERKSB_, symObjAddr: 0x54D14, symBinAddr: 0x100056500, symSize: 0x378 }
  - { offset: 0x761C7, size: 0x8, addend: 0x0, symName: __ZN7testing8internal17SharedPayloadBase3RefEv, symObjAddr: 0x5508C, symBinAddr: 0x100056878, symSize: 0xBC }
  - { offset: 0x761ED, size: 0x8, addend: 0x0, symName: __ZNSt3__113__atomic_baseIiLb1EE9fetch_addB8ne190107EiNS_12memory_orderE, symObjAddr: 0x55148, symBinAddr: 0x100056934, symSize: 0xC4 }
  - { offset: 0x7622F, size: 0x8, addend: 0x0, symName: __ZNSt3__116allocator_traitsINS_9allocatorIN7testing7MatcherIRKNS_12basic_stringIcNS_11char_traitsIcEENS1_IcEEEEEEEEE7destroyB8ne190107ISB_vTnNS_9enable_ifIXntsr13__has_destroyISC_PT_EE5valueEiE4typeELi0EEEvRSC_SH_, symObjAddr: 0x554EC, symBinAddr: 0x100056CD8, symSize: 0x0 }
  - { offset: 0x7626F, size: 0x8, addend: 0x0, symName: __ZNSt3__128__exception_guard_exceptionsINS_29_AllocatorDestroyRangeReverseINS_9allocatorIN7testing7MatcherIRKNS_12basic_stringIcNS_11char_traitsIcEENS2_IcEEEEEEEEPSC_EEED2B8ne190107Ev, symObjAddr: 0x5566C, symBinAddr: 0x100056E58, symSize: 0x158 }
  - { offset: 0x76299, size: 0x8, addend: 0x0, symName: __ZNKSt3__129_AllocatorDestroyRangeReverseINS_9allocatorIN7testing7MatcherIRKNS_12basic_stringIcNS_11char_traitsIcEENS1_IcEEEEEEEEPSB_EclB8ne190107Ev, symObjAddr: 0x557C4, symBinAddr: 0x100056FB0, symSize: 0x33C }
  - { offset: 0x762C0, size: 0x8, addend: 0x0, symName: __ZNSt3__116reverse_iteratorIPN7testing7MatcherIRKNS_12basic_stringIcNS_11char_traitsIcEENS_9allocatorIcEEEEEEEC1B8ne190107ESC_, symObjAddr: 0x55D4C, symBinAddr: 0x100057538, symSize: 0x6C }
  - { offset: 0x762F8, size: 0x8, addend: 0x0, symName: __ZNSt3__116reverse_iteratorIPN7testing7MatcherIRKNS_12basic_stringIcNS_11char_traitsIcEENS_9allocatorIcEEEEEEEppB8ne190107Ev, symObjAddr: 0x55EB4, symBinAddr: 0x1000576A0, symSize: 0x180 }
  - { offset: 0x7631E, size: 0x8, addend: 0x0, symName: __ZNKSt3__116reverse_iteratorIPN7testing7MatcherIRKNS_12basic_stringIcNS_11char_traitsIcEENS_9allocatorIcEEEEEEE4baseB8ne190107Ev, symObjAddr: 0x56034, symBinAddr: 0x100057820, symSize: 0xA0 }
  - { offset: 0x7634A, size: 0x8, addend: 0x0, symName: __ZNSt3__119__to_address_helperINS_16reverse_iteratorIPN7testing7MatcherIRKNS_12basic_stringIcNS_11char_traitsIcEENS_9allocatorIcEEEEEEEEvE6__callB8ne190107ERKSE_, symObjAddr: 0x560DC, symBinAddr: 0x1000578C8, symSize: 0x0 }
  - { offset: 0x7636D, size: 0x8, addend: 0x0, symName: __ZNKSt3__116reverse_iteratorIPN7testing7MatcherIRKNS_12basic_stringIcNS_11char_traitsIcEENS_9allocatorIcEEEEEEEptB8ne190107EvQoo12is_pointer_vIT_ErQSE__XcldtfpK_onptEE, symObjAddr: 0x56148, symBinAddr: 0x100057934, symSize: 0xA8 }
  - { offset: 0x76393, size: 0x8, addend: 0x0, symName: __ZNSt3__116reverse_iteratorIPN7testing7MatcherIRKNS_12basic_stringIcNS_11char_traitsIcEENS_9allocatorIcEEEEEEEC2B8ne190107ESC_, symObjAddr: 0x565C4, symBinAddr: 0x100057DB0, symSize: 0xF4 }
  - { offset: 0x763CB, size: 0x8, addend: 0x0, symName: __ZNSt3__114__split_bufferIN7testing7MatcherIRKNS_12basic_stringIcNS_11char_traitsIcEENS_9allocatorIcEEEEEERNS6_ISB_EEED2Ev, symObjAddr: 0x566B8, symBinAddr: 0x100057EA4, symSize: 0x144 }
  - { offset: 0x763F5, size: 0x8, addend: 0x0, symName: __ZNSt3__114__split_bufferIN7testing7MatcherIRKNS_12basic_stringIcNS_11char_traitsIcEENS_9allocatorIcEEEEEERNS6_ISB_EEE5clearB8ne190107Ev, symObjAddr: 0x567FC, symBinAddr: 0x100057FE8, symSize: 0xA4 }
  - { offset: 0x7641B, size: 0x8, addend: 0x0, symName: __ZNSt3__116allocator_traitsINS_9allocatorIN7testing7MatcherIRKNS_12basic_stringIcNS_11char_traitsIcEENS1_IcEEEEEEEEE10deallocateB8ne190107ERSC_PSB_m, symObjAddr: 0x568A8, symBinAddr: 0x100058094, symSize: 0x0 }
  - { offset: 0x7645D, size: 0x8, addend: 0x0, symName: __ZNKSt3__114__split_bufferIN7testing7MatcherIRKNS_12basic_stringIcNS_11char_traitsIcEENS_9allocatorIcEEEEEERNS6_ISB_EEE8capacityB8ne190107Ev, symObjAddr: 0x568DC, symBinAddr: 0x1000580C8, symSize: 0x124 }
  - { offset: 0x76483, size: 0x8, addend: 0x0, symName: __ZNSt3__114__split_bufferIN7testing7MatcherIRKNS_12basic_stringIcNS_11char_traitsIcEENS_9allocatorIcEEEEEERNS6_ISB_EEE17__destruct_at_endB8ne190107EPSB_, symObjAddr: 0x56A00, symBinAddr: 0x1000581EC, symSize: 0x64 }
  - { offset: 0x764B7, size: 0x8, addend: 0x0, symName: __ZNSt3__114__split_bufferIN7testing7MatcherIRKNS_12basic_stringIcNS_11char_traitsIcEENS_9allocatorIcEEEEEERNS6_ISB_EEE17__destruct_at_endB8ne190107EPSB_NS_17integral_constantIbLb0EEE, symObjAddr: 0x56A64, symBinAddr: 0x100058250, symSize: 0x1E8 }
  - { offset: 0x764F6, size: 0x8, addend: 0x0, symName: __ZNSt3__19allocatorIN7testing7MatcherIRKNS_12basic_stringIcNS_11char_traitsIcEENS0_IcEEEEEEE10deallocateB8ne190107EPSA_m, symObjAddr: 0x56C4C, symBinAddr: 0x100058438, symSize: 0x74 }
  - { offset: 0x76538, size: 0x8, addend: 0x0, symName: __ZNKSt3__114__split_bufferIN7testing7MatcherIRKNS_12basic_stringIcNS_11char_traitsIcEENS_9allocatorIcEEEEEERNS6_ISB_EEE9__end_capB8ne190107Ev, symObjAddr: 0x56CC0, symBinAddr: 0x1000584AC, symSize: 0xD8 }
  - { offset: 0x7655E, size: 0x8, addend: 0x0, symName: __ZNKSt3__117__compressed_pairIPN7testing7MatcherIRKNS_12basic_stringIcNS_11char_traitsIcEENS_9allocatorIcEEEEEERNS6_ISB_EEE5firstB8ne190107Ev, symObjAddr: 0x56D98, symBinAddr: 0x100058584, symSize: 0xEC }
  - { offset: 0x76584, size: 0x8, addend: 0x0, symName: __ZN7testing8internal15MatcherCastImplIRKNSt3__112basic_stringIcNS2_11char_traitsIcEENS2_9allocatorIcEEEEPKcE4CastERKSC_, symObjAddr: 0x56E8C, symBinAddr: 0x100058678, symSize: 0x0 }
  - { offset: 0x765A8, size: 0x8, addend: 0x0, symName: __ZN7testing8internal15MatcherCastImplIRKNSt3__112basic_stringIcNS2_11char_traitsIcEENS2_9allocatorIcEEEEPKcE8CastImplILb1EEENS_7MatcherISA_EERKSC_NS2_17integral_constantIbLb1EEENSJ_IbXT_EEE, symObjAddr: 0x56EFC, symBinAddr: 0x1000586E8, symSize: 0x0 }
  - { offset: 0x765EC, size: 0x8, addend: 0x0, symName: __ZNSt3__111__wrap_iterIPKPKcEppB8ne190107Ev, symObjAddr: 0x56FA4, symBinAddr: 0x100058790, symSize: 0x178 }
  - { offset: 0x76612, size: 0x8, addend: 0x0, symName: __ZN7testing7MatcherIRKNSt3__112basic_stringIcNS1_11char_traitsIcEENS1_9allocatorIcEEEEED2Ev, symObjAddr: 0x5711C, symBinAddr: 0x100058908, symSize: 0x64 }
  - { offset: 0x7663F, size: 0x8, addend: 0x0, symName: __ZNSt3__16vectorIN7testing7MatcherIRKNS_12basic_stringIcNS_11char_traitsIcEENS_9allocatorIcEEEEEENS6_ISB_EEED2B8ne190107Ev, symObjAddr: 0x57180, symBinAddr: 0x10005896C, symSize: 0x254 }
  - { offset: 0x7666A, size: 0x8, addend: 0x0, symName: __ZNSt3__16vectorIN7testing7MatcherIRKNS_12basic_stringIcNS_11char_traitsIcEENS_9allocatorIcEEEEEENS6_ISB_EEE16__destroy_vectorC1B8ne190107ERSD_, symObjAddr: 0x573D4, symBinAddr: 0x100058BC0, symSize: 0x6C }
  - { offset: 0x766A3, size: 0x8, addend: 0x0, symName: __ZNSt3__16vectorIN7testing7MatcherIRKNS_12basic_stringIcNS_11char_traitsIcEENS_9allocatorIcEEEEEENS6_ISB_EEE16__destroy_vectorclB8ne190107Ev, symObjAddr: 0x57440, symBinAddr: 0x100058C2C, symSize: 0x39C }
  - { offset: 0x766C9, size: 0x8, addend: 0x0, symName: __ZNSt3__16vectorIN7testing7MatcherIRKNS_12basic_stringIcNS_11char_traitsIcEENS_9allocatorIcEEEEEENS6_ISB_EEE16__destroy_vectorC2B8ne190107ERSD_, symObjAddr: 0x577DC, symBinAddr: 0x100058FC8, symSize: 0xE8 }
  - { offset: 0x76702, size: 0x8, addend: 0x0, symName: __ZNSt3__16vectorIN7testing7MatcherIRKNS_12basic_stringIcNS_11char_traitsIcEENS_9allocatorIcEEEEEENS6_ISB_EEE7__clearB8ne190107Ev, symObjAddr: 0x578C4, symBinAddr: 0x1000590B0, symSize: 0xA0 }
  - { offset: 0x76728, size: 0x8, addend: 0x0, symName: __ZNSt3__16vectorIN7testing7MatcherIRKNS_12basic_stringIcNS_11char_traitsIcEENS_9allocatorIcEEEEEENS6_ISB_EEE22__base_destruct_at_endB8ne190107EPSB_, symObjAddr: 0x57964, symBinAddr: 0x100059150, symSize: 0x1C8 }
  - { offset: 0x7676C, size: 0x8, addend: 0x0, symName: __ZN7testing8internal22ElementsAreMatcherImplIRKNSt3__16vectorINS2_12basic_stringIcNS2_11char_traitsIcEENS2_9allocatorIcEEEENS7_IS9_EEEEED2Ev, symObjAddr: 0x57B2C, symBinAddr: 0x100059318, symSize: 0xC4 }
  - { offset: 0x76799, size: 0x8, addend: 0x0, symName: __ZNK7testing8internal22ElementsAreMatcherImplIRKNSt3__16vectorINS2_12basic_stringIcNS2_11char_traitsIcEENS2_9allocatorIcEEEENS7_IS9_EEEEE5countEv, symObjAddr: 0x57BF0, symBinAddr: 0x1000593DC, symSize: 0x114 }
  - { offset: 0x767BF, size: 0x8, addend: 0x0, symName: __ZNKSt3__16vectorIN7testing7MatcherIRKNS_12basic_stringIcNS_11char_traitsIcEENS_9allocatorIcEEEEEENS6_ISB_EEEixB8ne190107Em, symObjAddr: 0x57D04, symBinAddr: 0x1000594F0, symSize: 0x188 }
  - { offset: 0x767F4, size: 0x8, addend: 0x0, symName: __ZN7testing8internal22ElementsAreMatcherImplIRKNSt3__16vectorINS2_12basic_stringIcNS2_11char_traitsIcEENS2_9allocatorIcEEEENS7_IS9_EEEEE8ElementsEm, symObjAddr: 0x581EC, symBinAddr: 0x1000599D8, symSize: 0x0 }
  - { offset: 0x7681C, size: 0x8, addend: 0x0, symName: __ZN7testing7MessagelsImEERS0_RKT_, symObjAddr: 0x585C8, symBinAddr: 0x100059DB4, symSize: 0x200 }
  - { offset: 0x76860, size: 0x8, addend: 0x0, symName: __ZN7testing7MessagelsIKcEERS0_RKPT_, symObjAddr: 0x587C8, symBinAddr: 0x100059FB4, symSize: 0x278 }
  - { offset: 0x7689D, size: 0x8, addend: 0x0, symName: __ZN7testing7MessageC1ERKS0_, symObjAddr: 0x58A40, symBinAddr: 0x10005A22C, symSize: 0x6C }
  - { offset: 0x768D5, size: 0x8, addend: 0x0, symName: __ZN7testing7MessageC2ERKS0_, symObjAddr: 0x58AAC, symBinAddr: 0x10005A298, symSize: 0x45C }
  - { offset: 0x7690F, size: 0x8, addend: 0x0, symName: __ZNSt3__110unique_ptrINS_18basic_stringstreamIcNS_11char_traitsIcEENS_9allocatorIcEEEENS_14default_deleteIS6_EEEC1B8ne190107ILb1EvEEPS6_, symObjAddr: 0x58F08, symBinAddr: 0x10005A6F4, symSize: 0x6C }
  - { offset: 0x76952, size: 0x8, addend: 0x0, symName: __ZNSt3__110unique_ptrINS_18basic_stringstreamIcNS_11char_traitsIcEENS_9allocatorIcEEEENS_14default_deleteIS6_EEEC2B8ne190107ILb1EvEEPS6_, symObjAddr: 0x58F74, symBinAddr: 0x10005A760, symSize: 0x250 }
  - { offset: 0x769A0, size: 0x8, addend: 0x0, symName: __ZNSt3__117__compressed_pairIPNS_18basic_stringstreamIcNS_11char_traitsIcEENS_9allocatorIcEEEENS_14default_deleteIS6_EEEC1B8ne190107IRS7_NS_16__value_init_tagEEEOT_OT0_, symObjAddr: 0x591C4, symBinAddr: 0x10005A9B0, symSize: 0x74 }
  - { offset: 0x769F8, size: 0x8, addend: 0x0, symName: __ZNSt3__117__compressed_pairIPNS_18basic_stringstreamIcNS_11char_traitsIcEENS_9allocatorIcEEEENS_14default_deleteIS6_EEEC2B8ne190107IRS7_NS_16__value_init_tagEEEOT_OT0_, symObjAddr: 0x59238, symBinAddr: 0x10005AA24, symSize: 0x104 }
  - { offset: 0x76A50, size: 0x8, addend: 0x0, symName: __ZNSt3__122__compressed_pair_elemIPNS_18basic_stringstreamIcNS_11char_traitsIcEENS_9allocatorIcEEEELi0ELb0EEC2B8ne190107IRS7_TnNS_9enable_ifIXntsr7is_sameIS8_u7__decayIT_EEE5valueEiE4typeELi0EEEOSC_, symObjAddr: 0x5933C, symBinAddr: 0x10005AB28, symSize: 0x124 }
  - { offset: 0x76A98, size: 0x8, addend: 0x0, symName: __ZNSt3__122__compressed_pair_elemINS_14default_deleteINS_18basic_stringstreamIcNS_11char_traitsIcEENS_9allocatorIcEEEEEELi1ELb1EEC2B8ne190107ENS_16__value_init_tagE, symObjAddr: 0x59460, symBinAddr: 0x10005AC4C, symSize: 0x48 }
  - { offset: 0x76ACD, size: 0x8, addend: 0x0, symName: __ZNSt3__16vectorINS_12basic_stringIcNS_11char_traitsIcEENS_9allocatorIcEEEENS4_IS6_EEEC1B8ne190107Em, symObjAddr: 0x594A8, symBinAddr: 0x10005AC94, symSize: 0x6C }
  - { offset: 0x76B11, size: 0x8, addend: 0x0, symName: __ZN7testing8internal16StlContainerViewINSt3__16vectorINS2_12basic_stringIcNS2_11char_traitsIcEENS2_9allocatorIcEEEENS7_IS9_EEEEE14ConstReferenceERKSB_, symObjAddr: 0x5951C, symBinAddr: 0x10005AD08, symSize: 0x0 }
  - { offset: 0x76B35, size: 0x8, addend: 0x0, symName: __ZNK7testing8internal11MatcherBaseIRKNSt3__112basic_stringIcNS2_11char_traitsIcEENS2_9allocatorIcEEEEE15MatchAndExplainESA_PNS_19MatchResultListenerE, symObjAddr: 0x59574, symBinAddr: 0x10005AD60, symSize: 0x5D4 }
  - { offset: 0x76B7A, size: 0x8, addend: 0x0, symName: __ZNSt3__16vectorINS_12basic_stringIcNS_11char_traitsIcEENS_9allocatorIcEEEENS4_IS6_EEEixB8ne190107Em, symObjAddr: 0x59B48, symBinAddr: 0x10005B334, symSize: 0x188 }
  - { offset: 0x76BAF, size: 0x8, addend: 0x0, symName: __ZNSt3__112basic_stringIcNS_11char_traitsIcEENS_9allocatorIcEEEaSB8ne190107EOS5_, symObjAddr: 0x59CD0, symBinAddr: 0x10005B4BC, symSize: 0xD4 }
  - { offset: 0x76BE4, size: 0x8, addend: 0x0, symName: __ZNK7testing8internal11MatcherBaseIRKNSt3__112basic_stringIcNS2_11char_traitsIcEENS2_9allocatorIcEEEEE7MatchesESA_, symObjAddr: 0x59DA4, symBinAddr: 0x10005B590, symSize: 0x350 }
  - { offset: 0x76C43, size: 0x8, addend: 0x0, symName: __ZN7testing19MatchResultListenerlsIA11_cEERS0_RKT_, symObjAddr: 0x5A0F4, symBinAddr: 0x10005B8E0, symSize: 0x234 }
  - { offset: 0x76C80, size: 0x8, addend: 0x0, symName: __ZN7testing19MatchResultListenerlsINS_7MessageEEERS0_RKT_, symObjAddr: 0x5A328, symBinAddr: 0x10005BB14, symSize: 0x26C }
  - { offset: 0x76CD4, size: 0x8, addend: 0x0, symName: __ZN7testing19MatchResultListenerlsIA16_cEERS0_RKT_, symObjAddr: 0x5A594, symBinAddr: 0x10005BD80, symSize: 0x234 }
  - { offset: 0x76D28, size: 0x8, addend: 0x0, symName: __ZN7testing19MatchResultListenerlsIA7_cEERS0_RKT_, symObjAddr: 0x5A7C8, symBinAddr: 0x10005BFB4, symSize: 0x234 }
  - { offset: 0x76D65, size: 0x8, addend: 0x0, symName: __ZN7testing19MatchResultListenerlsINSt3__112basic_stringIcNS2_11char_traitsIcEENS2_9allocatorIcEEEEEERS0_RKT_, symObjAddr: 0x5A9FC, symBinAddr: 0x10005C1E8, symSize: 0x26C }
  - { offset: 0x76DA2, size: 0x8, addend: 0x0, symName: __ZNSt3__16vectorINS_12basic_stringIcNS_11char_traitsIcEENS_9allocatorIcEEEENS4_IS6_EEEC2B8ne190107Em, symObjAddr: 0x5AC68, symBinAddr: 0x10005C454, symSize: 0x464 }
  - { offset: 0x76DF6, size: 0x8, addend: 0x0, symName: __ZNSt3__16vectorINS_12basic_stringIcNS_11char_traitsIcEENS_9allocatorIcEEEENS4_IS6_EEE18__construct_at_endEm, symObjAddr: 0x5B0CC, symBinAddr: 0x10005C8B8, symSize: 0x494 }
  - { offset: 0x76E70, size: 0x8, addend: 0x0, symName: __ZNSt3__116allocator_traitsINS_9allocatorINS_12basic_stringIcNS_11char_traitsIcEENS1_IcEEEEEEE9constructB8ne190107IS6_JEvTnNS_9enable_ifIXntsr15__has_constructIS7_PT_DpT0_EE5valueEiE4typeELi0EEEvRS7_SC_DpOSD_, symObjAddr: 0x5B568, symBinAddr: 0x10005CD54, symSize: 0x0 }
  - { offset: 0x76EB6, size: 0x8, addend: 0x0, symName: __ZNSt3__112basic_stringIcNS_11char_traitsIcEENS_9allocatorIcEEE13__move_assignB8ne190107ERS5_NS_17integral_constantIbLb1EEE, symObjAddr: 0x5B664, symBinAddr: 0x10005CE50, symSize: 0x564 }
  - { offset: 0x76F19, size: 0x8, addend: 0x0, symName: __ZNSt3__116allocator_traitsINS_9allocatorIcEEE10deallocateB8ne190107ERS2_Pcm, symObjAddr: 0x5BBD0, symBinAddr: 0x10005D3BC, symSize: 0x0 }
  - { offset: 0x76F5B, size: 0x8, addend: 0x0, symName: __ZNSt3__112basic_stringIcNS_11char_traitsIcEENS_9allocatorIcEEE7__allocB8ne190107Ev, symObjAddr: 0x5BC04, symBinAddr: 0x10005D3F0, symSize: 0xB4 }
  - { offset: 0x76F81, size: 0x8, addend: 0x0, symName: __ZNKSt3__112basic_stringIcNS_11char_traitsIcEENS_9allocatorIcEEE14__get_long_capB8ne190107Ev, symObjAddr: 0x5BCB8, symBinAddr: 0x10005D4A4, symSize: 0x154 }
  - { offset: 0x76FA7, size: 0x8, addend: 0x0, symName: __ZNSt3__112basic_stringIcNS_11char_traitsIcEENS_9allocatorIcEEE19__move_assign_allocB8ne190107ERS5_, symObjAddr: 0x5BE0C, symBinAddr: 0x10005D5F8, symSize: 0x9C }
  - { offset: 0x76FDC, size: 0x8, addend: 0x0, symName: __ZNSt3__112basic_stringIcNS_11char_traitsIcEENS_9allocatorIcEEE16__set_short_sizeB8ne190107Em, symObjAddr: 0x5BEA8, symBinAddr: 0x10005D694, symSize: 0x2A4 }
  - { offset: 0x77011, size: 0x8, addend: 0x0, symName: __ZNSt3__111char_traitsIcE6assignB8ne190107ERcRKc, symObjAddr: 0x5C154, symBinAddr: 0x10005D940, symSize: 0x0 }
  - { offset: 0x77042, size: 0x8, addend: 0x0, symName: __ZNKSt3__112basic_stringIcNS_11char_traitsIcEENS_9allocatorIcEEE17__annotate_shrinkB8ne190107Em, symObjAddr: 0x5C230, symBinAddr: 0x10005DA1C, symSize: 0x58 }
  - { offset: 0x77077, size: 0x8, addend: 0x0, symName: __ZNSt3__19allocatorIcE10deallocateB8ne190107EPcm, symObjAddr: 0x5C288, symBinAddr: 0x10005DA74, symSize: 0x70 }
  - { offset: 0x770B9, size: 0x8, addend: 0x0, symName: __ZNSt3__117__compressed_pairINS_12basic_stringIcNS_11char_traitsIcEENS_9allocatorIcEEE5__repES5_E6secondB8ne190107Ev, symObjAddr: 0x5C2F8, symBinAddr: 0x10005DAE4, symSize: 0xC4 }
  - { offset: 0x770DF, size: 0x8, addend: 0x0, symName: __ZNSt3__122__compressed_pair_elemINS_9allocatorIcEELi1ELb1EE5__getB8ne190107Ev, symObjAddr: 0x5C3BC, symBinAddr: 0x10005DBA8, symSize: 0x64 }
  - { offset: 0x77105, size: 0x8, addend: 0x0, symName: __ZNSt3__112basic_stringIcNS_11char_traitsIcEENS_9allocatorIcEEE19__move_assign_allocB8ne190107ERS5_NS_17integral_constantIbLb1EEE, symObjAddr: 0x5C420, symBinAddr: 0x10005DC0C, symSize: 0x90 }
  - { offset: 0x77145, size: 0x8, addend: 0x0, symName: __ZN7testing8internal29PredicateFormatterFromMatcherINS0_23ElementsAreArrayMatcherIPKcEEED2Ev, symObjAddr: 0x5C4B0, symBinAddr: 0x10005DC9C, symSize: 0x64 }
  - { offset: 0x77172, size: 0x8, addend: 0x0, symName: __ZN7testing8internal23ElementsAreArrayMatcherIPKcED2Ev, symObjAddr: 0x5C514, symBinAddr: 0x10005DD00, symSize: 0x64 }
  - { offset: 0x7719F, size: 0x8, addend: 0x0, symName: __ZNSt3__16vectorIPKcNS_9allocatorIS2_EEED1B8ne190107Ev, symObjAddr: 0x5C578, symBinAddr: 0x10005DD64, symSize: 0x64 }
  - { offset: 0x771C9, size: 0x8, addend: 0x0, symName: __ZNSt3__16vectorIPKcNS_9allocatorIS2_EEED2B8ne190107Ev, symObjAddr: 0x5C5DC, symBinAddr: 0x10005DDC8, symSize: 0x250 }
  - { offset: 0x771F4, size: 0x8, addend: 0x0, symName: __ZN7testing8internal15TestFactoryImplIN12_GLOBAL__N_135CaesarDec_RotVec_MultipleElems_TestEEC2Ev, symObjAddr: 0x5C82C, symBinAddr: 0x10005E018, symSize: 0xF8 }
  - { offset: 0x77221, size: 0x8, addend: 0x0, symName: __ZN7testing8internal15TestFactoryImplIN12_GLOBAL__N_135CaesarDec_RotVec_MultipleElems_TestEED1Ev, symObjAddr: 0x5C924, symBinAddr: 0x10005E110, symSize: 0x64 }
  - { offset: 0x7724E, size: 0x8, addend: 0x0, symName: __ZN7testing8internal15TestFactoryImplIN12_GLOBAL__N_135CaesarDec_RotVec_MultipleElems_TestEED0Ev, symObjAddr: 0x5C988, symBinAddr: 0x10005E174, symSize: 0x68 }
  - { offset: 0x7727B, size: 0x8, addend: 0x0, symName: __ZN7testing8internal15TestFactoryImplIN12_GLOBAL__N_135CaesarDec_RotVec_MultipleElems_TestEE10CreateTestEv, symObjAddr: 0x5C9F0, symBinAddr: 0x10005E1DC, symSize: 0xFC }
  - { offset: 0x772A1, size: 0x8, addend: 0x0, symName: __ZN7testing8internal15TestFactoryImplIN12_GLOBAL__N_135CaesarDec_RotVec_MultipleElems_TestEED2Ev, symObjAddr: 0x5CAEC, symBinAddr: 0x10005E2D8, symSize: 0x64 }
  - { offset: 0x772CE, size: 0x8, addend: 0x0, symName: __ZN12_GLOBAL__N_135CaesarDec_RotVec_MultipleElems_TestC1Ev, symObjAddr: 0x5CB50, symBinAddr: 0x10005E33C, symSize: 0x64 }
  - { offset: 0x772F8, size: 0x8, addend: 0x0, symName: __ZN12_GLOBAL__N_135CaesarDec_RotVec_MultipleElems_TestC2Ev, symObjAddr: 0x5CBB4, symBinAddr: 0x10005E3A0, symSize: 0xF8 }
  - { offset: 0x77322, size: 0x8, addend: 0x0, symName: __ZN12_GLOBAL__N_135CaesarDec_RotVec_MultipleElems_TestD1Ev, symObjAddr: 0x5CCAC, symBinAddr: 0x10005E498, symSize: 0x64 }
  - { offset: 0x7734C, size: 0x8, addend: 0x0, symName: __ZN12_GLOBAL__N_135CaesarDec_RotVec_MultipleElems_TestD0Ev, symObjAddr: 0x5CD10, symBinAddr: 0x10005E4FC, symSize: 0x68 }
  - { offset: 0x77376, size: 0x8, addend: 0x0, symName: __ZN12_GLOBAL__N_135CaesarDec_RotVec_MultipleElems_Test8TestBodyEv, symObjAddr: 0x5CD78, symBinAddr: 0x10005E564, symSize: 0x93C }
  - { offset: 0x773C8, size: 0x8, addend: 0x0, symName: __ZN12_GLOBAL__N_135CaesarDec_RotVec_MultipleElems_TestD2Ev, symObjAddr: 0x5D6B4, symBinAddr: 0x10005EEA0, symSize: 0x64 }
  - { offset: 0x773F2, size: 0x8, addend: 0x0, symName: __ZN7testing8internal26ParameterizedTestSuiteInfoIN12_GLOBAL__N_115CaesarDec_CleanEE14AddTestPatternEPKcS6_PNS0_19TestMetaFactoryBaseINSt3__15tupleIJNS8_12basic_stringIcNS8_11char_traitsIcEENS8_9allocatorIcEEEESF_EEEEENS0_12CodeLocationE, symObjAddr: 0x5D718, symBinAddr: 0x10005EF04, symSize: 0x478 }
  - { offset: 0x7746D, size: 0x8, addend: 0x0, symName: __ZN7testing8internal15TestMetaFactoryIN12_GLOBAL__N_125CaesarDec_Clean_Case_TestEEC1Ev, symObjAddr: 0x5DB90, symBinAddr: 0x10005F37C, symSize: 0x64 }
  - { offset: 0x774A3, size: 0x8, addend: 0x0, symName: __ZNSt3__16vectorINS_10shared_ptrIN7testing8internal26ParameterizedTestSuiteInfoIN12_GLOBAL__N_115CaesarDec_CleanEE8TestInfoEEENS_9allocatorIS9_EEE12emplace_backIJPS8_EEERS9_DpOT_, symObjAddr: 0x5DBF4, symBinAddr: 0x10005F3E0, symSize: 0x340 }
  - { offset: 0x774F8, size: 0x8, addend: 0x0, symName: __ZN7testing8internal12CodeLocationC1EOS1_, symObjAddr: 0x5DF34, symBinAddr: 0x10005F720, symSize: 0x6C }
  - { offset: 0x7752E, size: 0x8, addend: 0x0, symName: __ZN7testing8internal26ParameterizedTestSuiteInfoIN12_GLOBAL__N_115CaesarDec_CleanEE8TestInfoC1EPKcPNS0_19TestMetaFactoryBaseINSt3__15tupleIJNS9_12basic_stringIcNS9_11char_traitsIcEENS9_9allocatorIcEEEESG_EEEEENS0_12CodeLocationE, symObjAddr: 0x5DFA0, symBinAddr: 0x10005F78C, symSize: 0x80 }
  - { offset: 0x77586, size: 0x8, addend: 0x0, symName: __ZNSt3__16vectorINS_10shared_ptrIN7testing8internal26ParameterizedTestSuiteInfoIN12_GLOBAL__N_115CaesarDec_CleanEE8TestInfoEEENS_9allocatorIS9_EEE9__end_capB8ne190107Ev, symObjAddr: 0x5E020, symBinAddr: 0x10005F80C, symSize: 0xD8 }
  - { offset: 0x775AC, size: 0x8, addend: 0x0, symName: __ZNSt3__16vectorINS_10shared_ptrIN7testing8internal26ParameterizedTestSuiteInfoIN12_GLOBAL__N_115CaesarDec_CleanEE8TestInfoEEENS_9allocatorIS9_EEE22__construct_one_at_endB8ne190107IJPS8_EEEvDpOT_, symObjAddr: 0x5E0F8, symBinAddr: 0x10005F8E4, symSize: 0x440 }
  - { offset: 0x77601, size: 0x8, addend: 0x0, symName: __ZNSt3__16vectorINS_10shared_ptrIN7testing8internal26ParameterizedTestSuiteInfoIN12_GLOBAL__N_115CaesarDec_CleanEE8TestInfoEEENS_9allocatorIS9_EEE24__emplace_back_slow_pathIJPS8_EEEPS9_DpOT_, symObjAddr: 0x5E538, symBinAddr: 0x10005FD24, symSize: 0x4E4 }
  - { offset: 0x77666, size: 0x8, addend: 0x0, symName: __ZNSt3__117__compressed_pairIPNS_10shared_ptrIN7testing8internal26ParameterizedTestSuiteInfoIN12_GLOBAL__N_115CaesarDec_CleanEE8TestInfoEEENS_9allocatorIS9_EEE5firstB8ne190107Ev, symObjAddr: 0x5EA1C, symBinAddr: 0x100060208, symSize: 0xEC }
  - { offset: 0x7768C, size: 0x8, addend: 0x0, symName: __ZNSt3__122__compressed_pair_elemIPNS_10shared_ptrIN7testing8internal26ParameterizedTestSuiteInfoIN12_GLOBAL__N_115CaesarDec_CleanEE8TestInfoEEELi0ELb0EE5__getB8ne190107Ev, symObjAddr: 0x5EB08, symBinAddr: 0x1000602F4, symSize: 0x8C }
  - { offset: 0x776CE, size: 0x8, addend: 0x0, symName: __ZNSt3__16vectorINS_10shared_ptrIN7testing8internal26ParameterizedTestSuiteInfoIN12_GLOBAL__N_115CaesarDec_CleanEE8TestInfoEEENS_9allocatorIS9_EEE21_ConstructTransactionC1B8ne190107ERSC_m, symObjAddr: 0x5EB94, symBinAddr: 0x100060380, symSize: 0x74 }
  - { offset: 0x77716, size: 0x8, addend: 0x0, symName: __ZNSt3__116allocator_traitsINS_9allocatorINS_10shared_ptrIN7testing8internal26ParameterizedTestSuiteInfoIN12_GLOBAL__N_115CaesarDec_CleanEE8TestInfoEEEEEE9constructB8ne190107ISA_JPS9_EvTnNS_9enable_ifIXntsr15__has_constructISB_PT_DpT0_EE5valueEiE4typeELi0EEEvRSB_SH_DpOSI_, symObjAddr: 0x5EC10, symBinAddr: 0x1000603FC, symSize: 0x0 }
  - { offset: 0x77770, size: 0x8, addend: 0x0, symName: __ZNSt3__16vectorINS_10shared_ptrIN7testing8internal26ParameterizedTestSuiteInfoIN12_GLOBAL__N_115CaesarDec_CleanEE8TestInfoEEENS_9allocatorIS9_EEE7__allocB8ne190107Ev, symObjAddr: 0x5EC80, symBinAddr: 0x10006046C, symSize: 0xC4 }
  - { offset: 0x77796, size: 0x8, addend: 0x0, symName: __ZNSt3__16vectorINS_10shared_ptrIN7testing8internal26ParameterizedTestSuiteInfoIN12_GLOBAL__N_115CaesarDec_CleanEE8TestInfoEEENS_9allocatorIS9_EEE21_ConstructTransactionD1B8ne190107Ev, symObjAddr: 0x5ED60, symBinAddr: 0x10006054C, symSize: 0x64 }
  - { offset: 0x777C0, size: 0x8, addend: 0x0, symName: __ZNSt3__16vectorINS_10shared_ptrIN7testing8internal26ParameterizedTestSuiteInfoIN12_GLOBAL__N_115CaesarDec_CleanEE8TestInfoEEENS_9allocatorIS9_EEE21_ConstructTransactionC2B8ne190107ERSC_m, symObjAddr: 0x5EDC4, symBinAddr: 0x1000605B0, symSize: 0x34C }
  - { offset: 0x77808, size: 0x8, addend: 0x0, symName: __ZNKSt3__16vectorINS_10shared_ptrIN7testing8internal26ParameterizedTestSuiteInfoIN12_GLOBAL__N_115CaesarDec_CleanEE8TestInfoEEENS_9allocatorIS9_EEE19__annotate_increaseB8ne190107Em, symObjAddr: 0x5F110, symBinAddr: 0x1000608FC, symSize: 0x2B0 }
  - { offset: 0x7783D, size: 0x8, addend: 0x0, symName: __ZNKSt3__16vectorINS_10shared_ptrIN7testing8internal26ParameterizedTestSuiteInfoIN12_GLOBAL__N_115CaesarDec_CleanEE8TestInfoEEENS_9allocatorIS9_EEE31__annotate_contiguous_containerB8ne190107EPKvSE_, symObjAddr: 0x5F3C0, symBinAddr: 0x100060BAC, symSize: 0x144 }
  - { offset: 0x77881, size: 0x8, addend: 0x0, symName: __ZNKSt3__16vectorINS_10shared_ptrIN7testing8internal26ParameterizedTestSuiteInfoIN12_GLOBAL__N_115CaesarDec_CleanEE8TestInfoEEENS_9allocatorIS9_EEE4dataB8ne190107Ev, symObjAddr: 0x5F504, symBinAddr: 0x100060CF0, symSize: 0xA0 }
  - { offset: 0x778A7, size: 0x8, addend: 0x0, symName: __ZNKSt3__16vectorINS_10shared_ptrIN7testing8internal26ParameterizedTestSuiteInfoIN12_GLOBAL__N_115CaesarDec_CleanEE8TestInfoEEENS_9allocatorIS9_EEE4sizeB8ne190107Ev, symObjAddr: 0x5F5A4, symBinAddr: 0x100060D90, symSize: 0xE0 }
  - { offset: 0x778CD, size: 0x8, addend: 0x0, symName: __ZNKSt3__16vectorINS_10shared_ptrIN7testing8internal26ParameterizedTestSuiteInfoIN12_GLOBAL__N_115CaesarDec_CleanEE8TestInfoEEENS_9allocatorIS9_EEE8capacityB8ne190107Ev, symObjAddr: 0x5F6D8, symBinAddr: 0x100060EC4, symSize: 0x124 }
  - { offset: 0x778F3, size: 0x8, addend: 0x0, symName: __ZNKSt3__16vectorINS_10shared_ptrIN7testing8internal26ParameterizedTestSuiteInfoIN12_GLOBAL__N_115CaesarDec_CleanEE8TestInfoEEENS_9allocatorIS9_EEE9__end_capB8ne190107Ev, symObjAddr: 0x5F7FC, symBinAddr: 0x100060FE8, symSize: 0xD8 }
  - { offset: 0x77919, size: 0x8, addend: 0x0, symName: __ZNKSt3__117__compressed_pairIPNS_10shared_ptrIN7testing8internal26ParameterizedTestSuiteInfoIN12_GLOBAL__N_115CaesarDec_CleanEE8TestInfoEEENS_9allocatorIS9_EEE5firstB8ne190107Ev, symObjAddr: 0x5F8D4, symBinAddr: 0x1000610C0, symSize: 0xEC }
  - { offset: 0x7793F, size: 0x8, addend: 0x0, symName: __ZNKSt3__122__compressed_pair_elemIPNS_10shared_ptrIN7testing8internal26ParameterizedTestSuiteInfoIN12_GLOBAL__N_115CaesarDec_CleanEE8TestInfoEEELi0ELb0EE5__getB8ne190107Ev, symObjAddr: 0x5F9C0, symBinAddr: 0x1000611AC, symSize: 0x8C }
  - { offset: 0x77965, size: 0x8, addend: 0x0, symName: __ZNSt3__110shared_ptrIN7testing8internal26ParameterizedTestSuiteInfoIN12_GLOBAL__N_115CaesarDec_CleanEE8TestInfoEEC1B8ne190107IS7_TnNS_9enable_ifIXsr4_AndINS_29__raw_pointer_compatible_withIT_S7_vEENS_14__is_deletableIPSC_vEEEE5valueEiE4typeELi0EEESF_, symObjAddr: 0x5FBEC, symBinAddr: 0x1000613D8, symSize: 0x6C }
  - { offset: 0x779AE, size: 0x8, addend: 0x0, symName: __ZNSt3__110shared_ptrIN7testing8internal26ParameterizedTestSuiteInfoIN12_GLOBAL__N_115CaesarDec_CleanEE8TestInfoEEC2B8ne190107IS7_TnNS_9enable_ifIXsr4_AndINS_29__raw_pointer_compatible_withIT_S7_vEENS_14__is_deletableIPSC_vEEEE5valueEiE4typeELi0EEESF_, symObjAddr: 0x5FC58, symBinAddr: 0x100061444, symSize: 0x43C }
  - { offset: 0x77AB9, size: 0x8, addend: 0x0, symName: __ZNSt3__110unique_ptrIN7testing8internal26ParameterizedTestSuiteInfoIN12_GLOBAL__N_115CaesarDec_CleanEE8TestInfoENS_14default_deleteIS7_EEEC1B8ne190107ILb1EvEEPS7_, symObjAddr: 0x60094, symBinAddr: 0x100061880, symSize: 0x6C }
  - { offset: 0x77B08, size: 0x8, addend: 0x0, symName: __ZNSt3__19allocatorIN7testing8internal26ParameterizedTestSuiteInfoIN12_GLOBAL__N_115CaesarDec_CleanEE8TestInfoEEC1B8ne190107Ev, symObjAddr: 0x60100, symBinAddr: 0x1000618EC, symSize: 0x50 }
  - { offset: 0x77BEA, size: 0x8, addend: 0x0, symName: __ZNSt3__120__shared_ptr_pointerIPN7testing8internal26ParameterizedTestSuiteInfoIN12_GLOBAL__N_115CaesarDec_CleanEE8TestInfoENS_10shared_ptrIS7_E27__shared_ptr_default_deleteIS7_S7_EENS_9allocatorIS7_EEEC1B8ne190107ES8_SC_SE_, symObjAddr: 0x60150, symBinAddr: 0x10006193C, symSize: 0x6C }
  - { offset: 0x77C3E, size: 0x8, addend: 0x0, symName: __ZNSt3__110unique_ptrIN7testing8internal26ParameterizedTestSuiteInfoIN12_GLOBAL__N_115CaesarDec_CleanEE8TestInfoENS_14default_deleteIS7_EEE7releaseB8ne190107Ev, symObjAddr: 0x601BC, symBinAddr: 0x1000619A8, symSize: 0x1BC }
  - { offset: 0x77C73, size: 0x8, addend: 0x0, symName: __ZNSt3__110shared_ptrIN7testing8internal26ParameterizedTestSuiteInfoIN12_GLOBAL__N_115CaesarDec_CleanEE8TestInfoEE18__enable_weak_thisB8ne190107Ez, symObjAddr: 0x60378, symBinAddr: 0x100061B64, symSize: 0x54 }
  - { offset: 0x77C9B, size: 0x8, addend: 0x0, symName: __ZNSt3__110unique_ptrIN7testing8internal26ParameterizedTestSuiteInfoIN12_GLOBAL__N_115CaesarDec_CleanEE8TestInfoENS_14default_deleteIS7_EEED1B8ne190107Ev, symObjAddr: 0x603CC, symBinAddr: 0x100061BB8, symSize: 0x64 }
  - { offset: 0x77CC5, size: 0x8, addend: 0x0, symName: __ZNSt3__110unique_ptrIN7testing8internal26ParameterizedTestSuiteInfoIN12_GLOBAL__N_115CaesarDec_CleanEE8TestInfoENS_14default_deleteIS7_EEEC2B8ne190107ILb1EvEEPS7_, symObjAddr: 0x60430, symBinAddr: 0x100061C1C, symSize: 0x250 }
  - { offset: 0x77D0D, size: 0x8, addend: 0x0, symName: __ZNSt3__117__compressed_pairIPN7testing8internal26ParameterizedTestSuiteInfoIN12_GLOBAL__N_115CaesarDec_CleanEE8TestInfoENS_14default_deleteIS7_EEEC1B8ne190107IRS8_NS_16__value_init_tagEEEOT_OT0_, symObjAddr: 0x60680, symBinAddr: 0x100061E6C, symSize: 0x74 }
  - { offset: 0x77D65, size: 0x8, addend: 0x0, symName: __ZNSt3__117__compressed_pairIPN7testing8internal26ParameterizedTestSuiteInfoIN12_GLOBAL__N_115CaesarDec_CleanEE8TestInfoENS_14default_deleteIS7_EEEC2B8ne190107IRS8_NS_16__value_init_tagEEEOT_OT0_, symObjAddr: 0x606F4, symBinAddr: 0x100061EE0, symSize: 0x104 }
  - { offset: 0x77DBD, size: 0x8, addend: 0x0, symName: __ZNSt3__122__compressed_pair_elemIPN7testing8internal26ParameterizedTestSuiteInfoIN12_GLOBAL__N_115CaesarDec_CleanEE8TestInfoELi0ELb0EEC2B8ne190107IRS8_TnNS_9enable_ifIXntsr7is_sameIS9_u7__decayIT_EEE5valueEiE4typeELi0EEEOSD_, symObjAddr: 0x607F8, symBinAddr: 0x100061FE4, symSize: 0x124 }
  - { offset: 0x77E05, size: 0x8, addend: 0x0, symName: __ZNSt3__122__compressed_pair_elemINS_14default_deleteIN7testing8internal26ParameterizedTestSuiteInfoIN12_GLOBAL__N_115CaesarDec_CleanEE8TestInfoEEELi1ELb1EEC2B8ne190107ENS_16__value_init_tagE, symObjAddr: 0x6091C, symBinAddr: 0x100062108, symSize: 0x48 }
  - { offset: 0x77E3A, size: 0x8, addend: 0x0, symName: __ZNSt3__19allocatorIN7testing8internal26ParameterizedTestSuiteInfoIN12_GLOBAL__N_115CaesarDec_CleanEE8TestInfoEEC2B8ne190107Ev, symObjAddr: 0x60964, symBinAddr: 0x100062150, symSize: 0x70 }
  - { offset: 0x77E64, size: 0x8, addend: 0x0, symName: __ZNSt3__116__non_trivial_ifILb1ENS_9allocatorIN7testing8internal26ParameterizedTestSuiteInfoIN12_GLOBAL__N_115CaesarDec_CleanEE8TestInfoEEEEC2B8ne190107Ev, symObjAddr: 0x609D4, symBinAddr: 0x1000621C0, symSize: 0x48 }
  - { offset: 0x77E8E, size: 0x8, addend: 0x0, symName: __ZNSt3__120__shared_ptr_pointerIPN7testing8internal26ParameterizedTestSuiteInfoIN12_GLOBAL__N_115CaesarDec_CleanEE8TestInfoENS_10shared_ptrIS7_E27__shared_ptr_default_deleteIS7_S7_EENS_9allocatorIS7_EEEC2B8ne190107ES8_SC_SE_, symObjAddr: 0x60A1C, symBinAddr: 0x100062208, symSize: 0x3D8 }
  - { offset: 0x77EEF, size: 0x8, addend: 0x0, symName: __ZNSt3__119__shared_weak_countC2B8ne190107El, symObjAddr: 0x60DF4, symBinAddr: 0x1000625E0, symSize: 0x144 }
  - { offset: 0x77F2D, size: 0x8, addend: 0x0, symName: __ZNSt3__117__compressed_pairIPN7testing8internal26ParameterizedTestSuiteInfoIN12_GLOBAL__N_115CaesarDec_CleanEE8TestInfoENS_10shared_ptrIS7_E27__shared_ptr_default_deleteIS7_S7_EEEC1B8ne190107IRS8_SC_EEOT_OT0_, symObjAddr: 0x60F38, symBinAddr: 0x100062724, symSize: 0x74 }
  - { offset: 0x77F91, size: 0x8, addend: 0x0, symName: __ZNSt3__117__compressed_pairINS0_IPN7testing8internal26ParameterizedTestSuiteInfoIN12_GLOBAL__N_115CaesarDec_CleanEE8TestInfoENS_10shared_ptrIS7_E27__shared_ptr_default_deleteIS7_S7_EEEENS_9allocatorIS7_EEEC1B8ne190107ISD_SF_EEOT_OT0_, symObjAddr: 0x60FAC, symBinAddr: 0x100062798, symSize: 0x74 }
  - { offset: 0x77FE9, size: 0x8, addend: 0x0, symName: __ZNSt3__120__shared_ptr_pointerIPN7testing8internal26ParameterizedTestSuiteInfoIN12_GLOBAL__N_115CaesarDec_CleanEE8TestInfoENS_10shared_ptrIS7_E27__shared_ptr_default_deleteIS7_S7_EENS_9allocatorIS7_EEED1Ev, symObjAddr: 0x61020, symBinAddr: 0x10006280C, symSize: 0x64 }
  - { offset: 0x78015, size: 0x8, addend: 0x0, symName: __ZNSt3__120__shared_ptr_pointerIPN7testing8internal26ParameterizedTestSuiteInfoIN12_GLOBAL__N_115CaesarDec_CleanEE8TestInfoENS_10shared_ptrIS7_E27__shared_ptr_default_deleteIS7_S7_EENS_9allocatorIS7_EEED0Ev, symObjAddr: 0x61084, symBinAddr: 0x100062870, symSize: 0x68 }
  - { offset: 0x78041, size: 0x8, addend: 0x0, symName: __ZNSt3__120__shared_ptr_pointerIPN7testing8internal26ParameterizedTestSuiteInfoIN12_GLOBAL__N_115CaesarDec_CleanEE8TestInfoENS_10shared_ptrIS7_E27__shared_ptr_default_deleteIS7_S7_EENS_9allocatorIS7_EEE16__on_zero_sharedEv, symObjAddr: 0x610EC, symBinAddr: 0x1000628D8, symSize: 0x3C4 }
  - { offset: 0x78067, size: 0x8, addend: 0x0, symName: __ZNKSt3__120__shared_ptr_pointerIPN7testing8internal26ParameterizedTestSuiteInfoIN12_GLOBAL__N_115CaesarDec_CleanEE8TestInfoENS_10shared_ptrIS7_E27__shared_ptr_default_deleteIS7_S7_EENS_9allocatorIS7_EEE13__get_deleterERKSt9type_info, symObjAddr: 0x614B0, symBinAddr: 0x100062C9C, symSize: 0x23C }
  - { offset: 0x7809B, size: 0x8, addend: 0x0, symName: __ZNSt3__120__shared_ptr_pointerIPN7testing8internal26ParameterizedTestSuiteInfoIN12_GLOBAL__N_115CaesarDec_CleanEE8TestInfoENS_10shared_ptrIS7_E27__shared_ptr_default_deleteIS7_S7_EENS_9allocatorIS7_EEE21__on_zero_shared_weakEv, symObjAddr: 0x616EC, symBinAddr: 0x100062ED8, symSize: 0x3D8 }
  - { offset: 0x780E0, size: 0x8, addend: 0x0, symName: __ZNSt3__114__shared_countC2B8ne190107El, symObjAddr: 0x61AC4, symBinAddr: 0x1000632B0, symSize: 0xF4 }
  - { offset: 0x78118, size: 0x8, addend: 0x0, symName: __ZNSt3__117__compressed_pairIPN7testing8internal26ParameterizedTestSuiteInfoIN12_GLOBAL__N_115CaesarDec_CleanEE8TestInfoENS_10shared_ptrIS7_E27__shared_ptr_default_deleteIS7_S7_EEEC2B8ne190107IRS8_SC_EEOT_OT0_, symObjAddr: 0x61BB8, symBinAddr: 0x1000633A4, symSize: 0x12C }
  - { offset: 0x78170, size: 0x8, addend: 0x0, symName: __ZNSt3__122__compressed_pair_elemINS_10shared_ptrIN7testing8internal26ParameterizedTestSuiteInfoIN12_GLOBAL__N_115CaesarDec_CleanEE8TestInfoEE27__shared_ptr_default_deleteIS8_S8_EELi1ELb1EEC2B8ne190107ISB_TnNS_9enable_ifIXntsr7is_sameISC_u7__decayIT_EEE5valueEiE4typeELi0EEEOSF_, symObjAddr: 0x61CE4, symBinAddr: 0x1000634D0, symSize: 0x4C }
  - { offset: 0x781B8, size: 0x8, addend: 0x0, symName: __ZNSt3__117__compressed_pairINS0_IPN7testing8internal26ParameterizedTestSuiteInfoIN12_GLOBAL__N_115CaesarDec_CleanEE8TestInfoENS_10shared_ptrIS7_E27__shared_ptr_default_deleteIS7_S7_EEEENS_9allocatorIS7_EEEC2B8ne190107ISD_SF_EEOT_OT0_, symObjAddr: 0x61D30, symBinAddr: 0x10006351C, symSize: 0x12C }
  - { offset: 0x78210, size: 0x8, addend: 0x0, symName: __ZNSt3__122__compressed_pair_elemINS_17__compressed_pairIPN7testing8internal26ParameterizedTestSuiteInfoIN12_GLOBAL__N_115CaesarDec_CleanEE8TestInfoENS_10shared_ptrIS8_E27__shared_ptr_default_deleteIS8_S8_EEEELi0ELb0EEC2B8ne190107ISE_TnNS_9enable_ifIXntsr7is_sameISF_u7__decayIT_EEE5valueEiE4typeELi0EEEOSI_, symObjAddr: 0x61E5C, symBinAddr: 0x100063648, symSize: 0x70 }
  - { offset: 0x78258, size: 0x8, addend: 0x0, symName: __ZNSt3__122__compressed_pair_elemINS_9allocatorIN7testing8internal26ParameterizedTestSuiteInfoIN12_GLOBAL__N_115CaesarDec_CleanEE8TestInfoEEELi1ELb1EEC2B8ne190107IS9_TnNS_9enable_ifIXntsr7is_sameISA_u7__decayIT_EEE5valueEiE4typeELi0EEEOSD_, symObjAddr: 0x61ECC, symBinAddr: 0x1000636B8, symSize: 0x4C }
  - { offset: 0x782A0, size: 0x8, addend: 0x0, symName: __ZNSt3__120__shared_ptr_pointerIPN7testing8internal26ParameterizedTestSuiteInfoIN12_GLOBAL__N_115CaesarDec_CleanEE8TestInfoENS_10shared_ptrIS7_E27__shared_ptr_default_deleteIS7_S7_EENS_9allocatorIS7_EEED2Ev, symObjAddr: 0x61F18, symBinAddr: 0x100063704, symSize: 0x64 }
  - { offset: 0x782CC, size: 0x8, addend: 0x0, symName: __ZNSt3__117__compressed_pairINS0_IPN7testing8internal26ParameterizedTestSuiteInfoIN12_GLOBAL__N_115CaesarDec_CleanEE8TestInfoENS_10shared_ptrIS7_E27__shared_ptr_default_deleteIS7_S7_EEEENS_9allocatorIS7_EEE5firstB8ne190107Ev, symObjAddr: 0x61F7C, symBinAddr: 0x100063768, symSize: 0xEC }
  - { offset: 0x782F2, size: 0x8, addend: 0x0, symName: __ZNSt3__117__compressed_pairIPN7testing8internal26ParameterizedTestSuiteInfoIN12_GLOBAL__N_115CaesarDec_CleanEE8TestInfoENS_10shared_ptrIS7_E27__shared_ptr_default_deleteIS7_S7_EEE6secondB8ne190107Ev, symObjAddr: 0x62068, symBinAddr: 0x100063854, symSize: 0xC4 }
  - { offset: 0x78318, size: 0x8, addend: 0x0, symName: __ZNKSt3__114default_deleteIN7testing8internal26ParameterizedTestSuiteInfoIN12_GLOBAL__N_115CaesarDec_CleanEE8TestInfoEEclB8ne190107EPS7_, symObjAddr: 0x6212C, symBinAddr: 0x100063918, symSize: 0xA0 }
  - { offset: 0x7834C, size: 0x8, addend: 0x0, symName: __ZNSt3__117__compressed_pairIPN7testing8internal26ParameterizedTestSuiteInfoIN12_GLOBAL__N_115CaesarDec_CleanEE8TestInfoENS_10shared_ptrIS7_E27__shared_ptr_default_deleteIS7_S7_EEE5firstB8ne190107Ev, symObjAddr: 0x621CC, symBinAddr: 0x1000639B8, symSize: 0xEC }
  - { offset: 0x78372, size: 0x8, addend: 0x0, symName: __ZNSt3__122__compressed_pair_elemINS_17__compressed_pairIPN7testing8internal26ParameterizedTestSuiteInfoIN12_GLOBAL__N_115CaesarDec_CleanEE8TestInfoENS_10shared_ptrIS8_E27__shared_ptr_default_deleteIS8_S8_EEEELi0ELb0EE5__getB8ne190107Ev, symObjAddr: 0x622B8, symBinAddr: 0x100063AA4, symSize: 0x8C }
  - { offset: 0x78398, size: 0x8, addend: 0x0, symName: __ZNSt3__122__compressed_pair_elemINS_10shared_ptrIN7testing8internal26ParameterizedTestSuiteInfoIN12_GLOBAL__N_115CaesarDec_CleanEE8TestInfoEE27__shared_ptr_default_deleteIS8_S8_EELi1ELb1EE5__getB8ne190107Ev, symObjAddr: 0x62344, symBinAddr: 0x100063B30, symSize: 0x64 }
  - { offset: 0x783BE, size: 0x8, addend: 0x0, symName: __ZN7testing8internal26ParameterizedTestSuiteInfoIN12_GLOBAL__N_115CaesarDec_CleanEE8TestInfoD1Ev, symObjAddr: 0x623A8, symBinAddr: 0x100063B94, symSize: 0x64 }
  - { offset: 0x783EB, size: 0x8, addend: 0x0, symName: __ZN7testing8internal26ParameterizedTestSuiteInfoIN12_GLOBAL__N_115CaesarDec_CleanEE8TestInfoD2Ev, symObjAddr: 0x6240C, symBinAddr: 0x100063BF8, symSize: 0x7C }
  - { offset: 0x78418, size: 0x8, addend: 0x0, symName: __ZNSt3__110unique_ptrIN7testing8internal19TestMetaFactoryBaseINS_5tupleIJNS_12basic_stringIcNS_11char_traitsIcEENS_9allocatorIcEEEESA_EEEEENS_14default_deleteISC_EEED1B8ne190107Ev, symObjAddr: 0x62488, symBinAddr: 0x100063C74, symSize: 0x64 }
  - { offset: 0x78442, size: 0x8, addend: 0x0, symName: __ZNSt3__110unique_ptrIN7testing8internal19TestMetaFactoryBaseINS_5tupleIJNS_12basic_stringIcNS_11char_traitsIcEENS_9allocatorIcEEEESA_EEEEENS_14default_deleteISC_EEED2B8ne190107Ev, symObjAddr: 0x624EC, symBinAddr: 0x100063CD8, symSize: 0x68 }
  - { offset: 0x7846C, size: 0x8, addend: 0x0, symName: __ZNSt3__110unique_ptrIN7testing8internal19TestMetaFactoryBaseINS_5tupleIJNS_12basic_stringIcNS_11char_traitsIcEENS_9allocatorIcEEEESA_EEEEENS_14default_deleteISC_EEE5resetB8ne190107EPSC_, symObjAddr: 0x62554, symBinAddr: 0x100063D40, symSize: 0x240 }
  - { offset: 0x784B0, size: 0x8, addend: 0x0, symName: __ZNSt3__117__compressed_pairIPN7testing8internal19TestMetaFactoryBaseINS_5tupleIJNS_12basic_stringIcNS_11char_traitsIcEENS_9allocatorIcEEEESA_EEEEENS_14default_deleteISC_EEE5firstB8ne190107Ev, symObjAddr: 0x62794, symBinAddr: 0x100063F80, symSize: 0xEC }
  - { offset: 0x784D6, size: 0x8, addend: 0x0, symName: __ZNSt3__117__compressed_pairIPN7testing8internal19TestMetaFactoryBaseINS_5tupleIJNS_12basic_stringIcNS_11char_traitsIcEENS_9allocatorIcEEEESA_EEEEENS_14default_deleteISC_EEE6secondB8ne190107Ev, symObjAddr: 0x62880, symBinAddr: 0x10006406C, symSize: 0xC4 }
  - { offset: 0x784FC, size: 0x8, addend: 0x0, symName: __ZNKSt3__114default_deleteIN7testing8internal19TestMetaFactoryBaseINS_5tupleIJNS_12basic_stringIcNS_11char_traitsIcEENS_9allocatorIcEEEESA_EEEEEEclB8ne190107EPSC_, symObjAddr: 0x62944, symBinAddr: 0x100064130, symSize: 0x18C }
  - { offset: 0x78530, size: 0x8, addend: 0x0, symName: __ZNSt3__122__compressed_pair_elemIPN7testing8internal19TestMetaFactoryBaseINS_5tupleIJNS_12basic_stringIcNS_11char_traitsIcEENS_9allocatorIcEEEESA_EEEEELi0ELb0EE5__getB8ne190107Ev, symObjAddr: 0x62AD0, symBinAddr: 0x1000642BC, symSize: 0x8C }
  - { offset: 0x78556, size: 0x8, addend: 0x0, symName: __ZNSt3__122__compressed_pair_elemINS_14default_deleteIN7testing8internal19TestMetaFactoryBaseINS_5tupleIJNS_12basic_stringIcNS_11char_traitsIcEENS_9allocatorIcEEEESB_EEEEEEELi1ELb1EE5__getB8ne190107Ev, symObjAddr: 0x62B5C, symBinAddr: 0x100064348, symSize: 0x64 }
  - { offset: 0x7857C, size: 0x8, addend: 0x0, symName: __ZNSt3__122__compressed_pair_elemIPN7testing8internal26ParameterizedTestSuiteInfoIN12_GLOBAL__N_115CaesarDec_CleanEE8TestInfoELi0ELb0EE5__getB8ne190107Ev, symObjAddr: 0x62BC0, symBinAddr: 0x1000643AC, symSize: 0x8C }
  - { offset: 0x785C2, size: 0x8, addend: 0x0, symName: __ZNKSt9type_infoeqB8ne190107ERKS_, symObjAddr: 0x62C4C, symBinAddr: 0x100064438, symSize: 0x220 }
  - { offset: 0x7865E, size: 0x8, addend: 0x0, symName: __ZNKSt3__117__compressed_pairINS0_IPN7testing8internal26ParameterizedTestSuiteInfoIN12_GLOBAL__N_115CaesarDec_CleanEE8TestInfoENS_10shared_ptrIS7_E27__shared_ptr_default_deleteIS7_S7_EEEENS_9allocatorIS7_EEE5firstB8ne190107Ev, symObjAddr: 0x62E6C, symBinAddr: 0x100064658, symSize: 0xEC }
  - { offset: 0x78684, size: 0x8, addend: 0x0, symName: __ZNKSt3__117__compressed_pairIPN7testing8internal26ParameterizedTestSuiteInfoIN12_GLOBAL__N_115CaesarDec_CleanEE8TestInfoENS_10shared_ptrIS7_E27__shared_ptr_default_deleteIS7_S7_EEE6secondB8ne190107Ev, symObjAddr: 0x62F58, symBinAddr: 0x100064744, symSize: 0xC4 }
  - { offset: 0x786AA, size: 0x8, addend: 0x0, symName: __ZNSt27__type_info_implementations30__non_unique_arm_rtti_bit_impl21__is_type_name_uniqueB8ne190107Em, symObjAddr: 0x63024, symBinAddr: 0x100064810, symSize: 0x0 }
  - { offset: 0x786CE, size: 0x8, addend: 0x0, symName: __ZNKSt3__122__compressed_pair_elemINS_17__compressed_pairIPN7testing8internal26ParameterizedTestSuiteInfoIN12_GLOBAL__N_115CaesarDec_CleanEE8TestInfoENS_10shared_ptrIS8_E27__shared_ptr_default_deleteIS8_S8_EEEELi0ELb0EE5__getB8ne190107Ev, symObjAddr: 0x63040, symBinAddr: 0x10006482C, symSize: 0x8C }
  - { offset: 0x786F4, size: 0x8, addend: 0x0, symName: __ZNKSt3__122__compressed_pair_elemINS_10shared_ptrIN7testing8internal26ParameterizedTestSuiteInfoIN12_GLOBAL__N_115CaesarDec_CleanEE8TestInfoEE27__shared_ptr_default_deleteIS8_S8_EELi1ELb1EE5__getB8ne190107Ev, symObjAddr: 0x630CC, symBinAddr: 0x1000648B8, symSize: 0x64 }
  - { offset: 0x7871A, size: 0x8, addend: 0x0, symName: __ZNSt3__117__compressed_pairINS0_IPN7testing8internal26ParameterizedTestSuiteInfoIN12_GLOBAL__N_115CaesarDec_CleanEE8TestInfoENS_10shared_ptrIS7_E27__shared_ptr_default_deleteIS7_S7_EEEENS_9allocatorIS7_EEE6secondB8ne190107Ev, symObjAddr: 0x63130, symBinAddr: 0x10006491C, symSize: 0xC4 }
  - { offset: 0x78752, size: 0x8, addend: 0x0, symName: __ZNSt3__19allocatorINS_20__shared_ptr_pointerIPN7testing8internal26ParameterizedTestSuiteInfoIN12_GLOBAL__N_115CaesarDec_CleanEE8TestInfoENS_10shared_ptrIS8_E27__shared_ptr_default_deleteIS8_S8_EENS0_IS8_EEEEEC1B8ne190107IS8_EERKNS0_IT_EE, symObjAddr: 0x631F4, symBinAddr: 0x1000649E0, symSize: 0x58 }
  - { offset: 0x78790, size: 0x8, addend: 0x0, symName: __ZNSt3__19allocatorINS_20__shared_ptr_pointerIPN7testing8internal26ParameterizedTestSuiteInfoIN12_GLOBAL__N_115CaesarDec_CleanEE8TestInfoENS_10shared_ptrIS8_E27__shared_ptr_default_deleteIS8_S8_EENS0_IS8_EEEEE10deallocateB8ne190107EPSF_m, symObjAddr: 0x6324C, symBinAddr: 0x100064A38, symSize: 0x70 }
  - { offset: 0x787D8, size: 0x8, addend: 0x0, symName: __ZNSt3__114pointer_traitsIPNS_20__shared_ptr_pointerIPN7testing8internal26ParameterizedTestSuiteInfoIN12_GLOBAL__N_115CaesarDec_CleanEE8TestInfoENS_10shared_ptrIS8_E27__shared_ptr_default_deleteIS8_S8_EENS_9allocatorIS8_EEEEE10pointer_toB8ne190107ERSG_, symObjAddr: 0x632C4, symBinAddr: 0x100064AB0, symSize: 0x0 }
  - { offset: 0x787FB, size: 0x8, addend: 0x0, symName: __ZNSt3__122__compressed_pair_elemINS_9allocatorIN7testing8internal26ParameterizedTestSuiteInfoIN12_GLOBAL__N_115CaesarDec_CleanEE8TestInfoEEELi1ELb1EE5__getB8ne190107Ev, symObjAddr: 0x632D8, symBinAddr: 0x100064AC4, symSize: 0x64 }
  - { offset: 0x78821, size: 0x8, addend: 0x0, symName: __ZNSt3__19allocatorINS_20__shared_ptr_pointerIPN7testing8internal26ParameterizedTestSuiteInfoIN12_GLOBAL__N_115CaesarDec_CleanEE8TestInfoENS_10shared_ptrIS8_E27__shared_ptr_default_deleteIS8_S8_EENS0_IS8_EEEEEC2B8ne190107IS8_EERKNS0_IT_EE, symObjAddr: 0x6333C, symBinAddr: 0x100064B28, symSize: 0x74 }
  - { offset: 0x7885F, size: 0x8, addend: 0x0, symName: __ZNSt3__116__non_trivial_ifILb1ENS_9allocatorINS_20__shared_ptr_pointerIPN7testing8internal26ParameterizedTestSuiteInfoIN12_GLOBAL__N_115CaesarDec_CleanEE8TestInfoENS_10shared_ptrIS9_E27__shared_ptr_default_deleteIS9_S9_EENS1_IS9_EEEEEEEC2B8ne190107Ev, symObjAddr: 0x633B0, symBinAddr: 0x100064B9C, symSize: 0x48 }
  - { offset: 0x78889, size: 0x8, addend: 0x0, symName: __ZNSt3__117__compressed_pairIPN7testing8internal26ParameterizedTestSuiteInfoIN12_GLOBAL__N_115CaesarDec_CleanEE8TestInfoENS_14default_deleteIS7_EEE5firstB8ne190107Ev, symObjAddr: 0x633F8, symBinAddr: 0x100064BE4, symSize: 0xEC }
  - { offset: 0x788AF, size: 0x8, addend: 0x0, symName: __ZNSt3__110unique_ptrIN7testing8internal26ParameterizedTestSuiteInfoIN12_GLOBAL__N_115CaesarDec_CleanEE8TestInfoENS_14default_deleteIS7_EEED2B8ne190107Ev, symObjAddr: 0x634E4, symBinAddr: 0x100064CD0, symSize: 0x68 }
  - { offset: 0x788D9, size: 0x8, addend: 0x0, symName: __ZNSt3__110unique_ptrIN7testing8internal26ParameterizedTestSuiteInfoIN12_GLOBAL__N_115CaesarDec_CleanEE8TestInfoENS_14default_deleteIS7_EEE5resetB8ne190107EPS7_, symObjAddr: 0x6354C, symBinAddr: 0x100064D38, symSize: 0x240 }
  - { offset: 0x7891D, size: 0x8, addend: 0x0, symName: __ZNSt3__117__compressed_pairIPN7testing8internal26ParameterizedTestSuiteInfoIN12_GLOBAL__N_115CaesarDec_CleanEE8TestInfoENS_14default_deleteIS7_EEE6secondB8ne190107Ev, symObjAddr: 0x6378C, symBinAddr: 0x100064F78, symSize: 0xC4 }
  - { offset: 0x78943, size: 0x8, addend: 0x0, symName: __ZNSt3__122__compressed_pair_elemINS_14default_deleteIN7testing8internal26ParameterizedTestSuiteInfoIN12_GLOBAL__N_115CaesarDec_CleanEE8TestInfoEEELi1ELb1EE5__getB8ne190107Ev, symObjAddr: 0x63850, symBinAddr: 0x10006503C, symSize: 0x64 }
  - { offset: 0x78969, size: 0x8, addend: 0x0, symName: __ZNSt3__117__compressed_pairIPNS_10shared_ptrIN7testing8internal26ParameterizedTestSuiteInfoIN12_GLOBAL__N_115CaesarDec_CleanEE8TestInfoEEENS_9allocatorIS9_EEE6secondB8ne190107Ev, symObjAddr: 0x638B4, symBinAddr: 0x1000650A0, symSize: 0xC4 }
  - { offset: 0x7898F, size: 0x8, addend: 0x0, symName: __ZNSt3__122__compressed_pair_elemINS_9allocatorINS_10shared_ptrIN7testing8internal26ParameterizedTestSuiteInfoIN12_GLOBAL__N_115CaesarDec_CleanEE8TestInfoEEEEELi1ELb1EE5__getB8ne190107Ev, symObjAddr: 0x63978, symBinAddr: 0x100065164, symSize: 0x64 }
  - { offset: 0x789B5, size: 0x8, addend: 0x0, symName: __ZNSt3__16vectorINS_10shared_ptrIN7testing8internal26ParameterizedTestSuiteInfoIN12_GLOBAL__N_115CaesarDec_CleanEE8TestInfoEEENS_9allocatorIS9_EEE21_ConstructTransactionD2B8ne190107Ev, symObjAddr: 0x639DC, symBinAddr: 0x1000651C8, symSize: 0x31C }
  - { offset: 0x789DF, size: 0x8, addend: 0x0, symName: __ZNKSt3__16vectorINS_10shared_ptrIN7testing8internal26ParameterizedTestSuiteInfoIN12_GLOBAL__N_115CaesarDec_CleanEE8TestInfoEEENS_9allocatorIS9_EEE17__annotate_shrinkB8ne190107Em, symObjAddr: 0x63CF8, symBinAddr: 0x1000654E4, symSize: 0x1F0 }
  - { offset: 0x78A14, size: 0x8, addend: 0x0, symName: __ZNKSt3__16vectorINS_10shared_ptrIN7testing8internal26ParameterizedTestSuiteInfoIN12_GLOBAL__N_115CaesarDec_CleanEE8TestInfoEEENS_9allocatorIS9_EEE11__recommendB8ne190107Em, symObjAddr: 0x63EE8, symBinAddr: 0x1000656D4, symSize: 0x378 }
  - { offset: 0x78A6E, size: 0x8, addend: 0x0, symName: __ZNSt3__114__split_bufferINS_10shared_ptrIN7testing8internal26ParameterizedTestSuiteInfoIN12_GLOBAL__N_115CaesarDec_CleanEE8TestInfoEEERNS_9allocatorIS9_EEEC1EmmSC_, symObjAddr: 0x64260, symBinAddr: 0x100065A4C, symSize: 0x7C }
  - { offset: 0x78AC2, size: 0x8, addend: 0x0, symName: __ZNSt3__16vectorINS_10shared_ptrIN7testing8internal26ParameterizedTestSuiteInfoIN12_GLOBAL__N_115CaesarDec_CleanEE8TestInfoEEENS_9allocatorIS9_EEE26__swap_out_circular_bufferERNS_14__split_bufferIS9_RSB_EE, symObjAddr: 0x642DC, symBinAddr: 0x100065AC8, symSize: 0x658 }
  - { offset: 0x78B06, size: 0x8, addend: 0x0, symName: __ZNSt3__114__split_bufferINS_10shared_ptrIN7testing8internal26ParameterizedTestSuiteInfoIN12_GLOBAL__N_115CaesarDec_CleanEE8TestInfoEEERNS_9allocatorIS9_EEED1Ev, symObjAddr: 0x64934, symBinAddr: 0x100066120, symSize: 0x64 }
  - { offset: 0x78B30, size: 0x8, addend: 0x0, symName: __ZNKSt3__16vectorINS_10shared_ptrIN7testing8internal26ParameterizedTestSuiteInfoIN12_GLOBAL__N_115CaesarDec_CleanEE8TestInfoEEENS_9allocatorIS9_EEE8max_sizeEv, symObjAddr: 0x64998, symBinAddr: 0x100066184, symSize: 0x2FC }
  - { offset: 0x78B57, size: 0x8, addend: 0x0, symName: __ZNKSt3__16vectorINS_10shared_ptrIN7testing8internal26ParameterizedTestSuiteInfoIN12_GLOBAL__N_115CaesarDec_CleanEE8TestInfoEEENS_9allocatorIS9_EEE20__throw_length_errorB8ne190107Ev, symObjAddr: 0x64C94, symBinAddr: 0x100066480, symSize: 0x74 }
  - { offset: 0x78B88, size: 0x8, addend: 0x0, symName: __ZNSt3__116allocator_traitsINS_9allocatorINS_10shared_ptrIN7testing8internal26ParameterizedTestSuiteInfoIN12_GLOBAL__N_115CaesarDec_CleanEE8TestInfoEEEEEE8max_sizeB8ne190107ISB_vTnNS_9enable_ifIXntsr14__has_max_sizeIKT_EE5valueEiE4typeELi0EEEmRKSB_, symObjAddr: 0x64D10, symBinAddr: 0x1000664FC, symSize: 0x0 }
  - { offset: 0x78BB9, size: 0x8, addend: 0x0, symName: __ZNKSt3__16vectorINS_10shared_ptrIN7testing8internal26ParameterizedTestSuiteInfoIN12_GLOBAL__N_115CaesarDec_CleanEE8TestInfoEEENS_9allocatorIS9_EEE7__allocB8ne190107Ev, symObjAddr: 0x64D64, symBinAddr: 0x100066550, symSize: 0xC4 }
  - { offset: 0x78BDF, size: 0x8, addend: 0x0, symName: __ZNKSt3__117__compressed_pairIPNS_10shared_ptrIN7testing8internal26ParameterizedTestSuiteInfoIN12_GLOBAL__N_115CaesarDec_CleanEE8TestInfoEEENS_9allocatorIS9_EEE6secondB8ne190107Ev, symObjAddr: 0x64E28, symBinAddr: 0x100066614, symSize: 0xC4 }
  - { offset: 0x78C05, size: 0x8, addend: 0x0, symName: __ZNKSt3__122__compressed_pair_elemINS_9allocatorINS_10shared_ptrIN7testing8internal26ParameterizedTestSuiteInfoIN12_GLOBAL__N_115CaesarDec_CleanEE8TestInfoEEEEELi1ELb1EE5__getB8ne190107Ev, symObjAddr: 0x64EEC, symBinAddr: 0x1000666D8, symSize: 0x64 }
  - { offset: 0x78C2B, size: 0x8, addend: 0x0, symName: __ZNSt3__114__split_bufferINS_10shared_ptrIN7testing8internal26ParameterizedTestSuiteInfoIN12_GLOBAL__N_115CaesarDec_CleanEE8TestInfoEEERNS_9allocatorIS9_EEEC2EmmSC_, symObjAddr: 0x64F50, symBinAddr: 0x10006673C, symSize: 0x620 }
  - { offset: 0x78CA4, size: 0x8, addend: 0x0, symName: __ZNSt3__117__compressed_pairIPNS_10shared_ptrIN7testing8internal26ParameterizedTestSuiteInfoIN12_GLOBAL__N_115CaesarDec_CleanEE8TestInfoEEERNS_9allocatorIS9_EEEC1B8ne190107IDnSD_EEOT_OT0_, symObjAddr: 0x65570, symBinAddr: 0x100066D5C, symSize: 0x74 }
  - { offset: 0x78CFC, size: 0x8, addend: 0x0, symName: __ZNSt3__114__split_bufferINS_10shared_ptrIN7testing8internal26ParameterizedTestSuiteInfoIN12_GLOBAL__N_115CaesarDec_CleanEE8TestInfoEEERNS_9allocatorIS9_EEE7__allocB8ne190107Ev, symObjAddr: 0x6562C, symBinAddr: 0x100066E18, symSize: 0xC4 }
  - { offset: 0x78D22, size: 0x8, addend: 0x0, symName: __ZNSt3__114__split_bufferINS_10shared_ptrIN7testing8internal26ParameterizedTestSuiteInfoIN12_GLOBAL__N_115CaesarDec_CleanEE8TestInfoEEERNS_9allocatorIS9_EEE9__end_capB8ne190107Ev, symObjAddr: 0x656F0, symBinAddr: 0x100066EDC, symSize: 0xD8 }
  - { offset: 0x78D48, size: 0x8, addend: 0x0, symName: __ZNSt3__117__compressed_pairIPNS_10shared_ptrIN7testing8internal26ParameterizedTestSuiteInfoIN12_GLOBAL__N_115CaesarDec_CleanEE8TestInfoEEERNS_9allocatorIS9_EEEC2B8ne190107IDnSD_EEOT_OT0_, symObjAddr: 0x657C8, symBinAddr: 0x100066FB4, symSize: 0x154 }
  - { offset: 0x78DA0, size: 0x8, addend: 0x0, symName: __ZNSt3__122__compressed_pair_elemIPNS_10shared_ptrIN7testing8internal26ParameterizedTestSuiteInfoIN12_GLOBAL__N_115CaesarDec_CleanEE8TestInfoEEELi0ELb0EEC2B8ne190107IDnTnNS_9enable_ifIXntsr7is_sameISB_u7__decayIT_EEE5valueEiE4typeELi0EEEOSE_, symObjAddr: 0x6591C, symBinAddr: 0x100067108, symSize: 0xAC }
  - { offset: 0x78DE8, size: 0x8, addend: 0x0, symName: __ZNSt3__122__compressed_pair_elemIRNS_9allocatorINS_10shared_ptrIN7testing8internal26ParameterizedTestSuiteInfoIN12_GLOBAL__N_115CaesarDec_CleanEE8TestInfoEEEEELi1ELb0EEC2B8ne190107ISC_TnNS_9enable_ifIXntsr7is_sameISD_u7__decayIT_EEE5valueEiE4typeELi0EEEOSG_, symObjAddr: 0x659C8, symBinAddr: 0x1000671B4, symSize: 0xD4 }
  - { offset: 0x78E30, size: 0x8, addend: 0x0, symName: __ZNSt3__19allocatorINS_10shared_ptrIN7testing8internal26ParameterizedTestSuiteInfoIN12_GLOBAL__N_115CaesarDec_CleanEE8TestInfoEEEE8allocateB8ne190107Em, symObjAddr: 0x65A9C, symBinAddr: 0x100067288, symSize: 0xB8 }
  - { offset: 0x78E64, size: 0x8, addend: 0x0, symName: __ZNSt3__117__compressed_pairIPNS_10shared_ptrIN7testing8internal26ParameterizedTestSuiteInfoIN12_GLOBAL__N_115CaesarDec_CleanEE8TestInfoEEERNS_9allocatorIS9_EEE6secondB8ne190107Ev, symObjAddr: 0x65B54, symBinAddr: 0x100067340, symSize: 0xE8 }
  - { offset: 0x78E8A, size: 0x8, addend: 0x0, symName: __ZNSt3__122__compressed_pair_elemIRNS_9allocatorINS_10shared_ptrIN7testing8internal26ParameterizedTestSuiteInfoIN12_GLOBAL__N_115CaesarDec_CleanEE8TestInfoEEEEELi1ELb0EE5__getB8ne190107Ev, symObjAddr: 0x65C3C, symBinAddr: 0x100067428, symSize: 0xC0 }
  - { offset: 0x78EB0, size: 0x8, addend: 0x0, symName: __ZNSt3__117__compressed_pairIPNS_10shared_ptrIN7testing8internal26ParameterizedTestSuiteInfoIN12_GLOBAL__N_115CaesarDec_CleanEE8TestInfoEEERNS_9allocatorIS9_EEE5firstB8ne190107Ev, symObjAddr: 0x65CFC, symBinAddr: 0x1000674E8, symSize: 0xEC }
  - { offset: 0x78ED6, size: 0x8, addend: 0x0, symName: __ZNKSt3__16vectorINS_10shared_ptrIN7testing8internal26ParameterizedTestSuiteInfoIN12_GLOBAL__N_115CaesarDec_CleanEE8TestInfoEEENS_9allocatorIS9_EEE17__annotate_deleteB8ne190107Ev, symObjAddr: 0x65DE8, symBinAddr: 0x1000675D4, symSize: 0x200 }
  - { offset: 0x78EFC, size: 0x8, addend: 0x0, symName: __ZNKSt3__16vectorINS_10shared_ptrIN7testing8internal26ParameterizedTestSuiteInfoIN12_GLOBAL__N_115CaesarDec_CleanEE8TestInfoEEENS_9allocatorIS9_EEE14__annotate_newB8ne190107Em, symObjAddr: 0x66230, symBinAddr: 0x100067A1C, symSize: 0x1F0 }
  - { offset: 0x78F31, size: 0x8, addend: 0x0, symName: __ZNSt3__114__split_bufferINS_10shared_ptrIN7testing8internal26ParameterizedTestSuiteInfoIN12_GLOBAL__N_115CaesarDec_CleanEE8TestInfoEEERNS_9allocatorIS9_EEED2Ev, symObjAddr: 0x66420, symBinAddr: 0x100067C0C, symSize: 0x144 }
  - { offset: 0x78F5B, size: 0x8, addend: 0x0, symName: __ZNSt3__114__split_bufferINS_10shared_ptrIN7testing8internal26ParameterizedTestSuiteInfoIN12_GLOBAL__N_115CaesarDec_CleanEE8TestInfoEEERNS_9allocatorIS9_EEE5clearB8ne190107Ev, symObjAddr: 0x66564, symBinAddr: 0x100067D50, symSize: 0xA4 }
  - { offset: 0x78F81, size: 0x8, addend: 0x0, symName: __ZNSt3__116allocator_traitsINS_9allocatorINS_10shared_ptrIN7testing8internal26ParameterizedTestSuiteInfoIN12_GLOBAL__N_115CaesarDec_CleanEE8TestInfoEEEEEE10deallocateB8ne190107ERSB_PSA_m, symObjAddr: 0x66610, symBinAddr: 0x100067DFC, symSize: 0x0 }
  - { offset: 0x78FC3, size: 0x8, addend: 0x0, symName: __ZNKSt3__114__split_bufferINS_10shared_ptrIN7testing8internal26ParameterizedTestSuiteInfoIN12_GLOBAL__N_115CaesarDec_CleanEE8TestInfoEEERNS_9allocatorIS9_EEE8capacityB8ne190107Ev, symObjAddr: 0x66644, symBinAddr: 0x100067E30, symSize: 0x124 }
  - { offset: 0x78FE9, size: 0x8, addend: 0x0, symName: __ZNSt3__114__split_bufferINS_10shared_ptrIN7testing8internal26ParameterizedTestSuiteInfoIN12_GLOBAL__N_115CaesarDec_CleanEE8TestInfoEEERNS_9allocatorIS9_EEE17__destruct_at_endB8ne190107EPS9_, symObjAddr: 0x66768, symBinAddr: 0x100067F54, symSize: 0x64 }
  - { offset: 0x7901D, size: 0x8, addend: 0x0, symName: __ZNSt3__114__split_bufferINS_10shared_ptrIN7testing8internal26ParameterizedTestSuiteInfoIN12_GLOBAL__N_115CaesarDec_CleanEE8TestInfoEEERNS_9allocatorIS9_EEE17__destruct_at_endB8ne190107EPS9_NS_17integral_constantIbLb0EEE, symObjAddr: 0x667CC, symBinAddr: 0x100067FB8, symSize: 0x1E8 }
  - { offset: 0x7905C, size: 0x8, addend: 0x0, symName: __ZNSt3__116allocator_traitsINS_9allocatorINS_10shared_ptrIN7testing8internal26ParameterizedTestSuiteInfoIN12_GLOBAL__N_115CaesarDec_CleanEE8TestInfoEEEEEE7destroyB8ne190107ISA_vTnNS_9enable_ifIXntsr13__has_destroyISB_PT_EE5valueEiE4typeELi0EEEvRSB_SG_, symObjAddr: 0x669BC, symBinAddr: 0x1000681A8, symSize: 0x0 }
  - { offset: 0x7909C, size: 0x8, addend: 0x0, symName: __ZNSt3__110shared_ptrIN7testing8internal26ParameterizedTestSuiteInfoIN12_GLOBAL__N_115CaesarDec_CleanEE8TestInfoEED1B8ne190107Ev, symObjAddr: 0x66A48, symBinAddr: 0x100068234, symSize: 0x64 }
  - { offset: 0x790C6, size: 0x8, addend: 0x0, symName: __ZNSt3__110shared_ptrIN7testing8internal26ParameterizedTestSuiteInfoIN12_GLOBAL__N_115CaesarDec_CleanEE8TestInfoEED2B8ne190107Ev, symObjAddr: 0x66AAC, symBinAddr: 0x100068298, symSize: 0x1AC }
  - { offset: 0x790F0, size: 0x8, addend: 0x0, symName: __ZNSt3__119__shared_weak_count16__release_sharedB8ne190107Ev, symObjAddr: 0x66C58, symBinAddr: 0x100068444, symSize: 0x174 }
  - { offset: 0x79116, size: 0x8, addend: 0x0, symName: __ZNSt3__114__shared_count16__release_sharedB8ne190107Ev, symObjAddr: 0x66DCC, symBinAddr: 0x1000685B8, symSize: 0x230 }
  - { offset: 0x7913C, size: 0x8, addend: 0x0, symName: __ZNSt3__19allocatorINS_10shared_ptrIN7testing8internal26ParameterizedTestSuiteInfoIN12_GLOBAL__N_115CaesarDec_CleanEE8TestInfoEEEE10deallocateB8ne190107EPS9_m, symObjAddr: 0x6707C, symBinAddr: 0x100068868, symSize: 0x70 }
  - { offset: 0x7917E, size: 0x8, addend: 0x0, symName: __ZNKSt3__114__split_bufferINS_10shared_ptrIN7testing8internal26ParameterizedTestSuiteInfoIN12_GLOBAL__N_115CaesarDec_CleanEE8TestInfoEEERNS_9allocatorIS9_EEE9__end_capB8ne190107Ev, symObjAddr: 0x670EC, symBinAddr: 0x1000688D8, symSize: 0xD8 }
  - { offset: 0x791A4, size: 0x8, addend: 0x0, symName: __ZNKSt3__117__compressed_pairIPNS_10shared_ptrIN7testing8internal26ParameterizedTestSuiteInfoIN12_GLOBAL__N_115CaesarDec_CleanEE8TestInfoEEERNS_9allocatorIS9_EEE5firstB8ne190107Ev, symObjAddr: 0x671C4, symBinAddr: 0x1000689B0, symSize: 0xEC }
  - { offset: 0x791CA, size: 0x8, addend: 0x0, symName: __ZN7testing8internal12CodeLocationC2EOS1_, symObjAddr: 0x672B0, symBinAddr: 0x100068A9C, symSize: 0x234 }
  - { offset: 0x79200, size: 0x8, addend: 0x0, symName: __ZN7testing8internal26ParameterizedTestSuiteInfoIN12_GLOBAL__N_115CaesarDec_CleanEE8TestInfoC2EPKcPNS0_19TestMetaFactoryBaseINSt3__15tupleIJNS9_12basic_stringIcNS9_11char_traitsIcEENS9_9allocatorIcEEEESG_EEEEENS0_12CodeLocationE, symObjAddr: 0x674E4, symBinAddr: 0x100068CD0, symSize: 0xD4 }
  - { offset: 0x79258, size: 0x8, addend: 0x0, symName: __ZNSt3__110unique_ptrIN7testing8internal19TestMetaFactoryBaseINS_5tupleIJNS_12basic_stringIcNS_11char_traitsIcEENS_9allocatorIcEEEESA_EEEEENS_14default_deleteISC_EEEC1B8ne190107ILb1EvEEPSC_, symObjAddr: 0x675B8, symBinAddr: 0x100068DA4, symSize: 0x6C }
  - { offset: 0x7929B, size: 0x8, addend: 0x0, symName: __ZNSt3__110unique_ptrIN7testing8internal19TestMetaFactoryBaseINS_5tupleIJNS_12basic_stringIcNS_11char_traitsIcEENS_9allocatorIcEEEESA_EEEEENS_14default_deleteISC_EEEC2B8ne190107ILb1EvEEPSC_, symObjAddr: 0x67624, symBinAddr: 0x100068E10, symSize: 0x250 }
  - { offset: 0x792E3, size: 0x8, addend: 0x0, symName: __ZNSt3__117__compressed_pairIPN7testing8internal19TestMetaFactoryBaseINS_5tupleIJNS_12basic_stringIcNS_11char_traitsIcEENS_9allocatorIcEEEESA_EEEEENS_14default_deleteISC_EEEC1B8ne190107IRSD_NS_16__value_init_tagEEEOT_OT0_, symObjAddr: 0x67874, symBinAddr: 0x100069060, symSize: 0x74 }
  - { offset: 0x7933B, size: 0x8, addend: 0x0, symName: __ZNSt3__117__compressed_pairIPN7testing8internal19TestMetaFactoryBaseINS_5tupleIJNS_12basic_stringIcNS_11char_traitsIcEENS_9allocatorIcEEEESA_EEEEENS_14default_deleteISC_EEEC2B8ne190107IRSD_NS_16__value_init_tagEEEOT_OT0_, symObjAddr: 0x678E8, symBinAddr: 0x1000690D4, symSize: 0x104 }
  - { offset: 0x79393, size: 0x8, addend: 0x0, symName: __ZNSt3__122__compressed_pair_elemIPN7testing8internal19TestMetaFactoryBaseINS_5tupleIJNS_12basic_stringIcNS_11char_traitsIcEENS_9allocatorIcEEEESA_EEEEELi0ELb0EEC2B8ne190107IRSD_TnNS_9enable_ifIXntsr7is_sameISE_u7__decayIT_EEE5valueEiE4typeELi0EEEOSI_, symObjAddr: 0x679EC, symBinAddr: 0x1000691D8, symSize: 0x124 }
  - { offset: 0x793DB, size: 0x8, addend: 0x0, symName: __ZNSt3__122__compressed_pair_elemINS_14default_deleteIN7testing8internal19TestMetaFactoryBaseINS_5tupleIJNS_12basic_stringIcNS_11char_traitsIcEENS_9allocatorIcEEEESB_EEEEEEELi1ELb1EEC2B8ne190107ENS_16__value_init_tagE, symObjAddr: 0x67B10, symBinAddr: 0x1000692FC, symSize: 0x48 }
  - { offset: 0x79410, size: 0x8, addend: 0x0, symName: __ZN7testing8internal15TestMetaFactoryIN12_GLOBAL__N_125CaesarDec_Clean_Case_TestEEC2Ev, symObjAddr: 0x67B58, symBinAddr: 0x100069344, symSize: 0xF8 }
  - { offset: 0x7943A, size: 0x8, addend: 0x0, symName: __ZN7testing8internal19TestMetaFactoryBaseINSt3__15tupleIJNS2_12basic_stringIcNS2_11char_traitsIcEENS2_9allocatorIcEEEES9_EEEEC2Ev, symObjAddr: 0x67C50, symBinAddr: 0x10006943C, symSize: 0xB4 }
  - { offset: 0x79467, size: 0x8, addend: 0x0, symName: __ZN7testing8internal15TestMetaFactoryIN12_GLOBAL__N_125CaesarDec_Clean_Case_TestEED1Ev, symObjAddr: 0x67D04, symBinAddr: 0x1000694F0, symSize: 0x64 }
  - { offset: 0x79494, size: 0x8, addend: 0x0, symName: __ZN7testing8internal15TestMetaFactoryIN12_GLOBAL__N_125CaesarDec_Clean_Case_TestEED0Ev, symObjAddr: 0x67D68, symBinAddr: 0x100069554, symSize: 0x68 }
  - { offset: 0x794C1, size: 0x8, addend: 0x0, symName: __ZN7testing8internal15TestMetaFactoryIN12_GLOBAL__N_125CaesarDec_Clean_Case_TestEE17CreateTestFactoryENSt3__15tupleIJNS5_12basic_stringIcNS5_11char_traitsIcEENS5_9allocatorIcEEEESC_EEE, symObjAddr: 0x67DD0, symBinAddr: 0x1000695BC, symSize: 0x3B4 }
  - { offset: 0x794F9, size: 0x8, addend: 0x0, symName: __ZN7testing8internal19TestMetaFactoryBaseINSt3__15tupleIJNS2_12basic_stringIcNS2_11char_traitsIcEENS2_9allocatorIcEEEES9_EEEED1Ev, symObjAddr: 0x68184, symBinAddr: 0x100069970, symSize: 0x54 }
  - { offset: 0x79523, size: 0x8, addend: 0x0, symName: __ZN7testing8internal19TestMetaFactoryBaseINSt3__15tupleIJNS2_12basic_stringIcNS2_11char_traitsIcEENS2_9allocatorIcEEEES9_EEEED0Ev, symObjAddr: 0x681D8, symBinAddr: 0x1000699C4, symSize: 0x50 }
  - { offset: 0x7954D, size: 0x8, addend: 0x0, symName: __ZN7testing8internal15TestMetaFactoryIN12_GLOBAL__N_125CaesarDec_Clean_Case_TestEED2Ev, symObjAddr: 0x68228, symBinAddr: 0x100069A14, symSize: 0x64 }
  - { offset: 0x7957A, size: 0x8, addend: 0x0, symName: __ZN7testing8internal19TestMetaFactoryBaseINSt3__15tupleIJNS2_12basic_stringIcNS2_11char_traitsIcEENS2_9allocatorIcEEEES9_EEEED2Ev, symObjAddr: 0x6828C, symBinAddr: 0x100069A78, symSize: 0x5C }
  - { offset: 0x795A4, size: 0x8, addend: 0x0, symName: __ZNSt3__15tupleIJNS_12basic_stringIcNS_11char_traitsIcEENS_9allocatorIcEEEES6_EEC1ERKS7_, symObjAddr: 0x682E8, symBinAddr: 0x100069AD4, symSize: 0x6C }
  - { offset: 0x795F5, size: 0x8, addend: 0x0, symName: __ZN7testing8internal24ParameterizedTestFactoryIN12_GLOBAL__N_125CaesarDec_Clean_Case_TestEEC1ENSt3__15tupleIJNS5_12basic_stringIcNS5_11char_traitsIcEENS5_9allocatorIcEEEESC_EEE, symObjAddr: 0x68354, symBinAddr: 0x100069B40, symSize: 0x70 }
  - { offset: 0x7962F, size: 0x8, addend: 0x0, symName: __ZNSt3__15tupleIJNS_12basic_stringIcNS_11char_traitsIcEENS_9allocatorIcEEEES6_EED1Ev, symObjAddr: 0x683C4, symBinAddr: 0x100069BB0, symSize: 0x64 }
  - { offset: 0x7965C, size: 0x8, addend: 0x0, symName: __ZNSt3__15tupleIJNS_12basic_stringIcNS_11char_traitsIcEENS_9allocatorIcEEEES6_EEC2ERKS7_, symObjAddr: 0x68428, symBinAddr: 0x100069C14, symSize: 0xA4 }
  - { offset: 0x79691, size: 0x8, addend: 0x0, symName: __ZNSt3__112__tuple_implINS_15__tuple_indicesIJLm0ELm1EEEEJNS_12basic_stringIcNS_11char_traitsIcEENS_9allocatorIcEEEES8_EEC1ERKS9_, symObjAddr: 0x684CC, symBinAddr: 0x100069CB8, symSize: 0x6C }
  - { offset: 0x796C6, size: 0x8, addend: 0x0, symName: __ZNSt3__112__tuple_implINS_15__tuple_indicesIJLm0ELm1EEEEJNS_12basic_stringIcNS_11char_traitsIcEENS_9allocatorIcEEEES8_EEC2ERKS9_, symObjAddr: 0x68538, symBinAddr: 0x100069D24, symSize: 0x1E4 }
  - { offset: 0x796FB, size: 0x8, addend: 0x0, symName: __ZNSt3__112__tuple_leafILm0ENS_12basic_stringIcNS_11char_traitsIcEENS_9allocatorIcEEEELb0EEC2B8ne190107ERKS7_, symObjAddr: 0x6871C, symBinAddr: 0x100069F08, symSize: 0xA4 }
  - { offset: 0x79734, size: 0x8, addend: 0x0, symName: __ZNSt3__112__tuple_leafILm1ENS_12basic_stringIcNS_11char_traitsIcEENS_9allocatorIcEEEELb0EEC2B8ne190107ERKS7_, symObjAddr: 0x687C0, symBinAddr: 0x100069FAC, symSize: 0xA4 }
  - { offset: 0x7976D, size: 0x8, addend: 0x0, symName: __ZNSt3__112__tuple_leafILm0ENS_12basic_stringIcNS_11char_traitsIcEENS_9allocatorIcEEEELb0EED2Ev, symObjAddr: 0x68864, symBinAddr: 0x10006A050, symSize: 0x64 }
  - { offset: 0x7979A, size: 0x8, addend: 0x0, symName: __ZN7testing8internal24ParameterizedTestFactoryIN12_GLOBAL__N_125CaesarDec_Clean_Case_TestEEC2ENSt3__15tupleIJNS5_12basic_stringIcNS5_11char_traitsIcEENS5_9allocatorIcEEEESC_EEE, symObjAddr: 0x688C8, symBinAddr: 0x10006A0B4, symSize: 0x170 }
  - { offset: 0x797D4, size: 0x8, addend: 0x0, symName: __ZN7testing8internal24ParameterizedTestFactoryIN12_GLOBAL__N_125CaesarDec_Clean_Case_TestEED1Ev, symObjAddr: 0x68A38, symBinAddr: 0x10006A224, symSize: 0x64 }
  - { offset: 0x79801, size: 0x8, addend: 0x0, symName: __ZN7testing8internal24ParameterizedTestFactoryIN12_GLOBAL__N_125CaesarDec_Clean_Case_TestEED0Ev, symObjAddr: 0x68A9C, symBinAddr: 0x10006A288, symSize: 0x68 }
  - { offset: 0x7982E, size: 0x8, addend: 0x0, symName: __ZN7testing8internal24ParameterizedTestFactoryIN12_GLOBAL__N_125CaesarDec_Clean_Case_TestEE10CreateTestEv, symObjAddr: 0x68B04, symBinAddr: 0x10006A2F0, symSize: 0x17C }
  - { offset: 0x79854, size: 0x8, addend: 0x0, symName: __ZN7testing8internal24ParameterizedTestFactoryIN12_GLOBAL__N_125CaesarDec_Clean_Case_TestEED2Ev, symObjAddr: 0x68C80, symBinAddr: 0x10006A46C, symSize: 0xC4 }
  - { offset: 0x79881, size: 0x8, addend: 0x0, symName: __ZN7testing18WithParamInterfaceINSt3__15tupleIJNS1_12basic_stringIcNS1_11char_traitsIcEENS1_9allocatorIcEEEES8_EEEE8SetParamEPKS9_, symObjAddr: 0x68D4C, symBinAddr: 0x10006A538, symSize: 0x0 }
  - { offset: 0x798A5, size: 0x8, addend: 0x0, symName: __ZN12_GLOBAL__N_125CaesarDec_Clean_Case_TestC1Ev, symObjAddr: 0x68D6C, symBinAddr: 0x10006A558, symSize: 0x64 }
  - { offset: 0x798CF, size: 0x8, addend: 0x0, symName: __ZN12_GLOBAL__N_125CaesarDec_Clean_Case_TestC2Ev, symObjAddr: 0x68DD0, symBinAddr: 0x10006A5BC, symSize: 0x134 }
  - { offset: 0x798FF, size: 0x8, addend: 0x0, symName: __ZN12_GLOBAL__N_115CaesarDec_CleanC2Ev, symObjAddr: 0x68F04, symBinAddr: 0x10006A6F0, symSize: 0x134 }
  - { offset: 0x7992B, size: 0x8, addend: 0x0, symName: __ZN12_GLOBAL__N_125CaesarDec_Clean_Case_TestD1Ev, symObjAddr: 0x69038, symBinAddr: 0x10006A824, symSize: 0x64 }
  - { offset: 0x79957, size: 0x8, addend: 0x0, symName: __ZN12_GLOBAL__N_125CaesarDec_Clean_Case_TestD0Ev, symObjAddr: 0x6909C, symBinAddr: 0x10006A888, symSize: 0x68 }
  - { offset: 0x79983, size: 0x8, addend: 0x0, symName: __ZN12_GLOBAL__N_125CaesarDec_Clean_Case_Test8TestBodyEv, symObjAddr: 0x69104, symBinAddr: 0x10006A8F0, symSize: 0x734 }
  - { offset: 0x799EF, size: 0x8, addend: 0x0, symName: __ZThn16_N12_GLOBAL__N_125CaesarDec_Clean_Case_TestD1Ev, symObjAddr: 0x69838, symBinAddr: 0x10006B024, symSize: 0x1C }
  - { offset: 0x79A05, size: 0x8, addend: 0x0, symName: __ZThn16_N12_GLOBAL__N_125CaesarDec_Clean_Case_TestD0Ev, symObjAddr: 0x69854, symBinAddr: 0x10006B040, symSize: 0x18 }
  - { offset: 0x79A21, size: 0x8, addend: 0x0, symName: __ZN7testing13TestWithParamINSt3__15tupleIJNS1_12basic_stringIcNS1_11char_traitsIcEENS1_9allocatorIcEEEES8_EEEEC2Ev, symObjAddr: 0x6986C, symBinAddr: 0x10006B058, symSize: 0x180 }
  - { offset: 0x79A4E, size: 0x8, addend: 0x0, symName: __ZN12_GLOBAL__N_115CaesarDec_CleanD1Ev, symObjAddr: 0x699EC, symBinAddr: 0x10006B1D8, symSize: 0x54 }
  - { offset: 0x79A7A, size: 0x8, addend: 0x0, symName: __ZN12_GLOBAL__N_115CaesarDec_CleanD0Ev, symObjAddr: 0x69A40, symBinAddr: 0x10006B22C, symSize: 0x50 }
  - { offset: 0x79AA6, size: 0x8, addend: 0x0, symName: __ZThn16_N12_GLOBAL__N_115CaesarDec_CleanD1Ev, symObjAddr: 0x69A90, symBinAddr: 0x10006B27C, symSize: 0x1C }
  - { offset: 0x79ABC, size: 0x8, addend: 0x0, symName: __ZThn16_N12_GLOBAL__N_115CaesarDec_CleanD0Ev, symObjAddr: 0x69AAC, symBinAddr: 0x10006B298, symSize: 0x18 }
  - { offset: 0x79AD2, size: 0x8, addend: 0x0, symName: __ZN7testing18WithParamInterfaceINSt3__15tupleIJNS1_12basic_stringIcNS1_11char_traitsIcEENS1_9allocatorIcEEEES8_EEEEC2Ev, symObjAddr: 0x69AC4, symBinAddr: 0x10006B2B0, symSize: 0xB4 }
  - { offset: 0x79AFF, size: 0x8, addend: 0x0, symName: __ZN7testing13TestWithParamINSt3__15tupleIJNS1_12basic_stringIcNS1_11char_traitsIcEENS1_9allocatorIcEEEES8_EEEED1Ev, symObjAddr: 0x69B78, symBinAddr: 0x10006B364, symSize: 0x54 }
  - { offset: 0x79B2C, size: 0x8, addend: 0x0, symName: __ZN7testing13TestWithParamINSt3__15tupleIJNS1_12basic_stringIcNS1_11char_traitsIcEENS1_9allocatorIcEEEES8_EEEED0Ev, symObjAddr: 0x69BCC, symBinAddr: 0x10006B3B8, symSize: 0x50 }
  - { offset: 0x79B59, size: 0x8, addend: 0x0, symName: __ZThn16_N7testing13TestWithParamINSt3__15tupleIJNS1_12basic_stringIcNS1_11char_traitsIcEENS1_9allocatorIcEEEES8_EEEED1Ev, symObjAddr: 0x69C1C, symBinAddr: 0x10006B408, symSize: 0x1C }
  - { offset: 0x79B70, size: 0x8, addend: 0x0, symName: __ZThn16_N7testing13TestWithParamINSt3__15tupleIJNS1_12basic_stringIcNS1_11char_traitsIcEENS1_9allocatorIcEEEES8_EEEED0Ev, symObjAddr: 0x69C38, symBinAddr: 0x10006B424, symSize: 0x18 }
  - { offset: 0x79B87, size: 0x8, addend: 0x0, symName: __ZN7testing18WithParamInterfaceINSt3__15tupleIJNS1_12basic_stringIcNS1_11char_traitsIcEENS1_9allocatorIcEEEES8_EEEED1Ev, symObjAddr: 0x69C50, symBinAddr: 0x10006B43C, symSize: 0x64 }
  - { offset: 0x79BB1, size: 0x8, addend: 0x0, symName: __ZN7testing18WithParamInterfaceINSt3__15tupleIJNS1_12basic_stringIcNS1_11char_traitsIcEENS1_9allocatorIcEEEES8_EEEED0Ev, symObjAddr: 0x69CB4, symBinAddr: 0x10006B4A0, symSize: 0x68 }
  - { offset: 0x79BDB, size: 0x8, addend: 0x0, symName: __ZN7testing18WithParamInterfaceINSt3__15tupleIJNS1_12basic_stringIcNS1_11char_traitsIcEENS1_9allocatorIcEEEES8_EEEED2Ev, symObjAddr: 0x69D1C, symBinAddr: 0x10006B508, symSize: 0x5C }
  - { offset: 0x79C05, size: 0x8, addend: 0x0, symName: __ZN12_GLOBAL__N_125CaesarDec_Clean_Case_TestD2Ev, symObjAddr: 0x69D78, symBinAddr: 0x10006B564, symSize: 0x64 }
  - { offset: 0x79C31, size: 0x8, addend: 0x0, symName: __ZN12_GLOBAL__N_115CaesarDec_CleanD2Ev, symObjAddr: 0x69DDC, symBinAddr: 0x10006B5C8, symSize: 0x64 }
  - { offset: 0x79C5D, size: 0x8, addend: 0x0, symName: __ZN7testing13TestWithParamINSt3__15tupleIJNS1_12basic_stringIcNS1_11char_traitsIcEENS1_9allocatorIcEEEES8_EEEED2Ev, symObjAddr: 0x69E40, symBinAddr: 0x10006B62C, symSize: 0x70 }
  - { offset: 0x79C8A, size: 0x8, addend: 0x0, symName: __ZN7testing18WithParamInterfaceINSt3__15tupleIJNS1_12basic_stringIcNS1_11char_traitsIcEENS1_9allocatorIcEEEES8_EEEE8GetParamEv, symObjAddr: 0x69EB8, symBinAddr: 0x10006B6A4, symSize: 0x0 }
  - { offset: 0x79CA9, size: 0x8, addend: 0x0, symName: __ZNK7testing8internal29PredicateFormatterFromMatcherINS_18PolymorphicMatcherINS0_18StrEqualityMatcherINSt3__112basic_stringIcNS4_11char_traitsIcEENS4_9allocatorIcEEEEEEEEEclISA_EENS_15AssertionResultEPKcRKT_, symObjAddr: 0x6AA30, symBinAddr: 0x10006C21C, symSize: 0xCC8 }
  - { offset: 0x79D33, size: 0x8, addend: 0x0, symName: __ZN7testing8internal29PredicateFormatterFromMatcherINS_18PolymorphicMatcherINS0_18StrEqualityMatcherINSt3__112basic_stringIcNS4_11char_traitsIcEENS4_9allocatorIcEEEEEEEEED1Ev, symObjAddr: 0x6B6F8, symBinAddr: 0x10006CEE4, symSize: 0x64 }
  - { offset: 0x79D60, size: 0x8, addend: 0x0, symName: __ZN7testing18PolymorphicMatcherINS_8internal18StrEqualityMatcherINSt3__112basic_stringIcNS3_11char_traitsIcEENS3_9allocatorIcEEEEEEED1Ev, symObjAddr: 0x6B75C, symBinAddr: 0x10006CF48, symSize: 0x64 }
  - { offset: 0x79D8D, size: 0x8, addend: 0x0, symName: __ZNKSt3__112__tuple_leafILm0ENS_12basic_stringIcNS_11char_traitsIcEENS_9allocatorIcEEEELb0EE3getB8ne190107Ev, symObjAddr: 0x6B7C0, symBinAddr: 0x10006CFAC, symSize: 0x8C }
  - { offset: 0x79DB3, size: 0x8, addend: 0x0, symName: __ZNKSt3__112__tuple_leafILm1ENS_12basic_stringIcNS_11char_traitsIcEENS_9allocatorIcEEEELb0EE3getB8ne190107Ev, symObjAddr: 0x6B84C, symBinAddr: 0x10006D038, symSize: 0x8C }
  - { offset: 0x79DDF, size: 0x8, addend: 0x0, symName: __ZN7testing18PolymorphicMatcherINS_8internal18StrEqualityMatcherINSt3__112basic_stringIcNS3_11char_traitsIcEENS3_9allocatorIcEEEEEEEC1EOSB_, symObjAddr: 0x6B8D8, symBinAddr: 0x10006D0C4, symSize: 0x6C }
  - { offset: 0x79E15, size: 0x8, addend: 0x0, symName: __ZN7testing8internal29PredicateFormatterFromMatcherINS_18PolymorphicMatcherINS0_18StrEqualityMatcherINSt3__112basic_stringIcNS4_11char_traitsIcEENS4_9allocatorIcEEEEEEEEEC1ESC_, symObjAddr: 0x6B944, symBinAddr: 0x10006D130, symSize: 0x70 }
  - { offset: 0x79E4F, size: 0x8, addend: 0x0, symName: __ZN7testing18PolymorphicMatcherINS_8internal18StrEqualityMatcherINSt3__112basic_stringIcNS3_11char_traitsIcEENS3_9allocatorIcEEEEEEEC2EOSB_, symObjAddr: 0x6B9B4, symBinAddr: 0x10006D1A0, symSize: 0xD8 }
  - { offset: 0x79E8B, size: 0x8, addend: 0x0, symName: __ZN7testing8internal18StrEqualityMatcherINSt3__112basic_stringIcNS2_11char_traitsIcEENS2_9allocatorIcEEEEEC1EOS9_, symObjAddr: 0x6BA8C, symBinAddr: 0x10006D278, symSize: 0x6C }
  - { offset: 0x79EC1, size: 0x8, addend: 0x0, symName: __ZN7testing8internal18StrEqualityMatcherINSt3__112basic_stringIcNS2_11char_traitsIcEENS2_9allocatorIcEEEEEC2EOS9_, symObjAddr: 0x6BAF8, symBinAddr: 0x10006D2E4, symSize: 0xF0 }
  - { offset: 0x79EF7, size: 0x8, addend: 0x0, symName: __ZN7testing8internal29PredicateFormatterFromMatcherINS_18PolymorphicMatcherINS0_18StrEqualityMatcherINSt3__112basic_stringIcNS4_11char_traitsIcEENS4_9allocatorIcEEEEEEEEEC2ESC_, symObjAddr: 0x6BBE8, symBinAddr: 0x10006D3D4, symSize: 0xA4 }
  - { offset: 0x79F31, size: 0x8, addend: 0x0, symName: __ZN7testing8internal18StrEqualityMatcherINSt3__112basic_stringIcNS2_11char_traitsIcEENS2_9allocatorIcEEEEEC1ES8_bb, symObjAddr: 0x6BD30, symBinAddr: 0x10006D51C, symSize: 0xD8 }
  - { offset: 0x79F89, size: 0x8, addend: 0x0, symName: __ZN7testing8internal18StrEqualityMatcherINSt3__112basic_stringIcNS2_11char_traitsIcEENS2_9allocatorIcEEEEED1Ev, symObjAddr: 0x6BE08, symBinAddr: 0x10006D5F4, symSize: 0x64 }
  - { offset: 0x79FB6, size: 0x8, addend: 0x0, symName: __ZN7testing18PolymorphicMatcherINS_8internal18StrEqualityMatcherINSt3__112basic_stringIcNS3_11char_traitsIcEENS3_9allocatorIcEEEEEEEC1ERKSA_, symObjAddr: 0x6BE6C, symBinAddr: 0x10006D658, symSize: 0x6C }
  - { offset: 0x79FEF, size: 0x8, addend: 0x0, symName: __ZN7testing18PolymorphicMatcherINS_8internal18StrEqualityMatcherINSt3__112basic_stringIcNS3_11char_traitsIcEENS3_9allocatorIcEEEEEEEC2ERKSA_, symObjAddr: 0x6BED8, symBinAddr: 0x10006D6C4, symSize: 0xA4 }
  - { offset: 0x7A028, size: 0x8, addend: 0x0, symName: __ZN7testing8internal18StrEqualityMatcherINSt3__112basic_stringIcNS2_11char_traitsIcEENS2_9allocatorIcEEEEEC1ERKS9_, symObjAddr: 0x6BF7C, symBinAddr: 0x10006D768, symSize: 0x6C }
  - { offset: 0x7A05E, size: 0x8, addend: 0x0, symName: __ZN7testing8internal18StrEqualityMatcherINSt3__112basic_stringIcNS2_11char_traitsIcEENS2_9allocatorIcEEEEEC2ERKS9_, symObjAddr: 0x6BFE8, symBinAddr: 0x10006D7D4, symSize: 0xBC }
  - { offset: 0x7A094, size: 0x8, addend: 0x0, symName: __ZN7testing8internal18StrEqualityMatcherINSt3__112basic_stringIcNS2_11char_traitsIcEENS2_9allocatorIcEEEEEC2ES8_bb, symObjAddr: 0x6C0A4, symBinAddr: 0x10006D890, symSize: 0x1EC }
  - { offset: 0x7A0EC, size: 0x8, addend: 0x0, symName: __ZN7testing8internal18StrEqualityMatcherINSt3__112basic_stringIcNS2_11char_traitsIcEENS2_9allocatorIcEEEEED2Ev, symObjAddr: 0x6C290, symBinAddr: 0x10006DA7C, symSize: 0x64 }
  - { offset: 0x7A11F, size: 0x8, addend: 0x0, symName: __ZN7testing8internal15MatcherCastImplIRKNSt3__112basic_stringIcNS2_11char_traitsIcEENS2_9allocatorIcEEEENS_18PolymorphicMatcherINS0_18StrEqualityMatcherIS8_EEEEE4CastERKSE_, symObjAddr: 0x6D014, symBinAddr: 0x10006E800, symSize: 0x0 }
  - { offset: 0x7A143, size: 0x8, addend: 0x0, symName: __ZN7testing8internal15MatcherCastImplIRKNSt3__112basic_stringIcNS2_11char_traitsIcEENS2_9allocatorIcEEEENS_18PolymorphicMatcherINS0_18StrEqualityMatcherIS8_EEEEE8CastImplILb0EEENS_7MatcherISA_EERKSE_NS2_17integral_constantIbLb1EEENSL_IbXT_EEE, symObjAddr: 0x6D084, symBinAddr: 0x10006E870, symSize: 0x0 }
  - { offset: 0x7A187, size: 0x8, addend: 0x0, symName: __ZNK7testing18PolymorphicMatcherINS_8internal18StrEqualityMatcherINSt3__112basic_stringIcNS3_11char_traitsIcEENS3_9allocatorIcEEEEEEEcvNS_7MatcherIT_EEIRKS9_EEv, symObjAddr: 0x6D0DC, symBinAddr: 0x10006E8C8, symSize: 0x178 }
  - { offset: 0x7A1C7, size: 0x8, addend: 0x0, symName: __ZN7testing18PolymorphicMatcherINS_8internal18StrEqualityMatcherINSt3__112basic_stringIcNS3_11char_traitsIcEENS3_9allocatorIcEEEEEEE15MonomorphicImplIRKS9_EC1ERKSA_, symObjAddr: 0x6D254, symBinAddr: 0x10006EA40, symSize: 0x6C }
  - { offset: 0x7A200, size: 0x8, addend: 0x0, symName: __ZN7testing7MatcherIRKNSt3__112basic_stringIcNS1_11char_traitsIcEENS1_9allocatorIcEEEEEC1EPKNS_16MatcherInterfaceIS9_EE, symObjAddr: 0x6D2C0, symBinAddr: 0x10006EAAC, symSize: 0x6C }
  - { offset: 0x7A239, size: 0x8, addend: 0x0, symName: __ZN7testing18PolymorphicMatcherINS_8internal18StrEqualityMatcherINSt3__112basic_stringIcNS3_11char_traitsIcEENS3_9allocatorIcEEEEEEE15MonomorphicImplIRKS9_EC2ERKSA_, symObjAddr: 0x6D32C, symBinAddr: 0x10006EB18, symSize: 0x170 }
  - { offset: 0x7A278, size: 0x8, addend: 0x0, symName: __ZN7testing16MatcherInterfaceIRKNSt3__112basic_stringIcNS1_11char_traitsIcEENS1_9allocatorIcEEEEEC2Ev, symObjAddr: 0x6D49C, symBinAddr: 0x10006EC88, symSize: 0xF8 }
  - { offset: 0x7A2A4, size: 0x8, addend: 0x0, symName: __ZN7testing16MatcherInterfaceIRKNSt3__112basic_stringIcNS1_11char_traitsIcEENS1_9allocatorIcEEEEED2Ev, symObjAddr: 0x6D594, symBinAddr: 0x10006ED80, symSize: 0x64 }
  - { offset: 0x7A2D0, size: 0x8, addend: 0x0, symName: __ZN7testing18PolymorphicMatcherINS_8internal18StrEqualityMatcherINSt3__112basic_stringIcNS3_11char_traitsIcEENS3_9allocatorIcEEEEEEE15MonomorphicImplIRKS9_ED1Ev, symObjAddr: 0x6D5F8, symBinAddr: 0x10006EDE4, symSize: 0x64 }
  - { offset: 0x7A2FD, size: 0x8, addend: 0x0, symName: __ZN7testing18PolymorphicMatcherINS_8internal18StrEqualityMatcherINSt3__112basic_stringIcNS3_11char_traitsIcEENS3_9allocatorIcEEEEEEE15MonomorphicImplIRKS9_ED0Ev, symObjAddr: 0x6D65C, symBinAddr: 0x10006EE48, symSize: 0x68 }
  - { offset: 0x7A32A, size: 0x8, addend: 0x0, symName: __ZNK7testing18PolymorphicMatcherINS_8internal18StrEqualityMatcherINSt3__112basic_stringIcNS3_11char_traitsIcEENS3_9allocatorIcEEEEEEE15MonomorphicImplIRKS9_E10DescribeToEPNS3_13basic_ostreamIcS6_EE, symObjAddr: 0x6D6C4, symBinAddr: 0x10006EEB0, symSize: 0x11C }
  - { offset: 0x7A35F, size: 0x8, addend: 0x0, symName: __ZNK7testing18PolymorphicMatcherINS_8internal18StrEqualityMatcherINSt3__112basic_stringIcNS3_11char_traitsIcEENS3_9allocatorIcEEEEEEE15MonomorphicImplIRKS9_E18DescribeNegationToEPNS3_13basic_ostreamIcS6_EE, symObjAddr: 0x6D7E0, symBinAddr: 0x10006EFCC, symSize: 0x11C }
  - { offset: 0x7A394, size: 0x8, addend: 0x0, symName: __ZNK7testing18PolymorphicMatcherINS_8internal18StrEqualityMatcherINSt3__112basic_stringIcNS3_11char_traitsIcEENS3_9allocatorIcEEEEEEE15MonomorphicImplIRKS9_E15MatchAndExplainESE_PNS_19MatchResultListenerE, symObjAddr: 0x6D8FC, symBinAddr: 0x10006F0E8, symSize: 0x15C }
  - { offset: 0x7A3D8, size: 0x8, addend: 0x0, symName: __ZN7testing16MatcherInterfaceIRKNSt3__112basic_stringIcNS1_11char_traitsIcEENS1_9allocatorIcEEEEED1Ev, symObjAddr: 0x6DA58, symBinAddr: 0x10006F244, symSize: 0x54 }
  - { offset: 0x7A404, size: 0x8, addend: 0x0, symName: __ZN7testing16MatcherInterfaceIRKNSt3__112basic_stringIcNS1_11char_traitsIcEENS1_9allocatorIcEEEEED0Ev, symObjAddr: 0x6DAAC, symBinAddr: 0x10006F298, symSize: 0x50 }
  - { offset: 0x7A430, size: 0x8, addend: 0x0, symName: __ZN7testing18PolymorphicMatcherINS_8internal18StrEqualityMatcherINSt3__112basic_stringIcNS3_11char_traitsIcEENS3_9allocatorIcEEEEEEE15MonomorphicImplIRKS9_ED2Ev, symObjAddr: 0x6DAFC, symBinAddr: 0x10006F2E8, symSize: 0xC4 }
  - { offset: 0x7A45D, size: 0x8, addend: 0x0, symName: __ZNK7testing8internal18StrEqualityMatcherINSt3__112basic_stringIcNS2_11char_traitsIcEENS2_9allocatorIcEEEEE10DescribeToEPNS2_13basic_ostreamIcS5_EE, symObjAddr: 0x6DBC0, symBinAddr: 0x10006F3AC, symSize: 0xFC }
  - { offset: 0x7A492, size: 0x8, addend: 0x0, symName: __ZNK7testing8internal18StrEqualityMatcherINSt3__112basic_stringIcNS2_11char_traitsIcEENS2_9allocatorIcEEEEE16DescribeToHelperEbPNS2_13basic_ostreamIcS5_EE, symObjAddr: 0x6DCBC, symBinAddr: 0x10006F4A8, symSize: 0x25C }
  - { offset: 0x7A4D6, size: 0x8, addend: 0x0, symName: __ZNK7testing8internal18StrEqualityMatcherINSt3__112basic_stringIcNS2_11char_traitsIcEENS2_9allocatorIcEEEEE18DescribeNegationToEPNS2_13basic_ostreamIcS5_EE, symObjAddr: 0x6DF18, symBinAddr: 0x10006F704, symSize: 0x100 }
  - { offset: 0x7A50B, size: 0x8, addend: 0x0, symName: __ZNK7testing8internal18StrEqualityMatcherINSt3__112basic_stringIcNS2_11char_traitsIcEENS2_9allocatorIcEEEEE15MatchAndExplainIS8_EEbRKT_PNS_19MatchResultListenerE, symObjAddr: 0x6E018, symBinAddr: 0x10006F804, symSize: 0x524 }
  - { offset: 0x7A57A, size: 0x8, addend: 0x0, symName: __ZNKSt3__112basic_stringIcNS_11char_traitsIcEENS_9allocatorIcEEE6substrB8ne190107Emm, symObjAddr: 0x6EC50, symBinAddr: 0x10007043C, symSize: 0x290 }
  - { offset: 0x7A5C1, size: 0x8, addend: 0x0, symName: __ZNSt3__19allocatorIcEC1B8ne190107Ev, symObjAddr: 0x6EEE0, symBinAddr: 0x1000706CC, symSize: 0x50 }
  - { offset: 0x7A5EB, size: 0x8, addend: 0x0, symName: __ZN7testing7MatcherIRKNSt3__112basic_stringIcNS1_11char_traitsIcEENS1_9allocatorIcEEEEEC2EPKNS_16MatcherInterfaceIS9_EE, symObjAddr: 0x6EF30, symBinAddr: 0x10007071C, symSize: 0x108 }
  - { offset: 0x7A624, size: 0x8, addend: 0x0, symName: __ZN7testing8internal11MatcherBaseIRKNSt3__112basic_stringIcNS2_11char_traitsIcEENS2_9allocatorIcEEEEEC2ISA_EEPKNS_16MatcherInterfaceIT_EE, symObjAddr: 0x6F038, symBinAddr: 0x100070824, symSize: 0x3AC }
  - { offset: 0x7A66B, size: 0x8, addend: 0x0, symName: __ZN7testing8internal11MatcherBaseIRKNSt3__112basic_stringIcNS2_11char_traitsIcEENS2_9allocatorIcEEEEE4InitIRPKNS_16MatcherInterfaceISA_EEEEvOT_, symObjAddr: 0x6F3E4, symBinAddr: 0x100070BD0, symSize: 0x234 }
  - { offset: 0x7A6A9, size: 0x8, addend: 0x0, symName: __ZN7testing8internal11MatcherBaseIRKNSt3__112basic_stringIcNS2_11char_traitsIcEENS2_9allocatorIcEEEEE11ValuePolicyIPKNS_16MatcherInterfaceISA_EELb1EE4InitERSB_SG_, symObjAddr: 0x6F67C, symBinAddr: 0x100070E68, symSize: 0x0 }
