---
triple:          'arm64-apple-darwin'
binary-path:     ciphers_main
relocations:
  - { offset: 0x39, size: 0x8, addend: 0x0, symName: __ZN6Random3rngE, symObjAddr: 0xDE620, symBinAddr: 0x1000623E0, symSize: 0x0 }
  - { offset: 0x11F40, size: 0x8, addend: 0x0, symName: __ZNSt3__17advanceB8ne190107IPNS_12basic_stringIcNS_11char_traitsIcEENS_9allocatorIcEEEEllTnNS_9enable_ifIXsr11is_integralIT1_EE5valueEiE4typeELi0EEEvRT_T0_, symObjAddr: 0x2AD54, symBinAddr: 0x10002EE58, symSize: 0x0 }
  - { offset: 0x11FB0, size: 0x8, addend: 0x0, symName: __ZNSt3__17advanceB8ne190107IPcllTnNS_9enable_ifIXsr11is_integralIT1_EE5valueEiE4typeELi0EEEvRT_T0_, symObjAddr: 0x321C8, symBinAddr: 0x1000362CC, symSize: 0x0 }
  - { offset: 0x125B2, size: 0x8, addend: 0x0, symName: __ZNSt3__124__put_character_sequenceB8ne190107IcNS_11char_traitsIcEEEERNS_13basic_ostreamIT_T0_EES7_PKS4_m, symObjAddr: 0x36CEC, symBinAddr: 0x10003ADF0, symSize: 0x0 }
  - { offset: 0x1422C, size: 0x8, addend: 0x0, symName: __ZNSt3__17getlineB8ne190107IcNS_11char_traitsIcEENS_9allocatorIcEEEERNS_13basic_istreamIT_T0_EES9_RNS_12basic_stringIS6_S7_T1_EE, symObjAddr: 0x27F0, symBinAddr: 0x1000068F4, symSize: 0x0 }
  - { offset: 0x14284, size: 0x8, addend: 0x0, symName: __ZNSt3__1lsB8ne190107INS_11char_traitsIcEEEERNS_13basic_ostreamIcT_EES6_PKc, symObjAddr: 0x3958, symBinAddr: 0x100007A5C, symSize: 0x0 }
  - { offset: 0x142CA, size: 0x8, addend: 0x0, symName: __ZNSt3__14endlB8ne190107IcNS_11char_traitsIcEEEERNS_13basic_ostreamIT_T0_EES7_, symObjAddr: 0x3B34, symBinAddr: 0x100007C38, symSize: 0x0 }
  - { offset: 0x1430A, size: 0x8, addend: 0x0, symName: __ZNSt3__1eqB8ne190107IcNS_11char_traitsIcEENS_9allocatorIcEEEEbRKNS_12basic_stringIT_T0_T1_EEPKS6_, symObjAddr: 0x467C, symBinAddr: 0x100008780, symSize: 0x0 }
  - { offset: 0x14364, size: 0x8, addend: 0x0, symName: __ZNSt3__1plB8ne190107IcNS_11char_traitsIcEENS_9allocatorIcEEEENS_12basic_stringIT_T0_T1_EERKS9_PKS6_, symObjAddr: 0x730C, symBinAddr: 0x10000B410, symSize: 0x0 }
  - { offset: 0x14593, size: 0x8, addend: 0x0, symName: __ZNSt3__1lsB8ne190107IcNS_11char_traitsIcEENS_9allocatorIcEEEERNS_13basic_ostreamIT_T0_EES9_RKNS_12basic_stringIS6_S7_T1_EE, symObjAddr: 0x8CA4, symBinAddr: 0x10000CDA8, symSize: 0x0 }
  - { offset: 0x14601, size: 0x8, addend: 0x0, symName: __ZNSt3__1eqB8ne190107IPNS_12basic_stringIcNS_11char_traitsIcEENS_9allocatorIcEEEEEEbRKNS_11__wrap_iterIT_EESC_, symObjAddr: 0xA384, symBinAddr: 0x10000E488, symSize: 0x0 }
  - { offset: 0x14644, size: 0x8, addend: 0x0, symName: __ZNSt3__1eqB8ne190107IPKcEEbRKNS_11__wrap_iterIT_EES7_, symObjAddr: 0xAE40, symBinAddr: 0x10000EF44, symSize: 0x0 }
  - { offset: 0x14C51, size: 0x8, addend: 0x0, symName: __ZNSt3__1rsB8ne190107IcNS_11char_traitsIcEENS_9allocatorIcEEEERNS_13basic_istreamIT_T0_EES9_RNS_12basic_stringIS6_S7_T1_EE, symObjAddr: 0xBBDC, symBinAddr: 0x10000FCE0, symSize: 0x0 }
  - { offset: 0x14D35, size: 0x8, addend: 0x0, symName: __ZNSt3__1eqB8ne190107IPKNS_12basic_stringIcNS_11char_traitsIcEENS_9allocatorIcEEEEEEbRKNS_11__wrap_iterIT_EESD_, symObjAddr: 0xDE10, symBinAddr: 0x100011F14, symSize: 0x0 }
  - { offset: 0x14D78, size: 0x8, addend: 0x0, symName: __ZNSt3__1eqB8ne190107INS_9allocatorIcEEEEbRKNS_12basic_stringIcNS_11char_traitsIcEET_EES9_, symObjAddr: 0xDF7C, symBinAddr: 0x100012080, symSize: 0x0 }
  - { offset: 0x14DCD, size: 0x8, addend: 0x0, symName: __ZNSt3__14swapB8ne190107IcEENS_9enable_ifIXaasr21is_move_constructibleIT_EE5valuesr18is_move_assignableIS2_EE5valueEvE4typeERS2_S5_, symObjAddr: 0x1006C, symBinAddr: 0x100014170, symSize: 0x0 }
  - { offset: 0x14E1E, size: 0x8, addend: 0x0, symName: __ZNSt3__118__constexpr_strlenB8ne190107IcEEmPKT_, symObjAddr: 0x10B18, symBinAddr: 0x100014C1C, symSize: 0x0 }
  - { offset: 0x14E53, size: 0x8, addend: 0x0, symName: __ZNSt3__112__to_addressB8ne190107INS_12basic_stringIcNS_11char_traitsIcEENS_9allocatorIcEEEEEEPT_S8_, symObjAddr: 0x12914, symBinAddr: 0x100016A18, symSize: 0x0 }
  - { offset: 0x14E88, size: 0x8, addend: 0x0, symName: __ZNSt3__131__annotate_contiguous_containerB8ne190107INS_9allocatorINS_12basic_stringIcNS_11char_traitsIcEENS1_IcEEEEEEEEvPKvS9_S9_S9_, symObjAddr: 0x1319C, symBinAddr: 0x1000172A0, symSize: 0x0 }
  - { offset: 0x14EE3, size: 0x8, addend: 0x0, symName: __ZNSt3__114__construct_atB8ne190107INS_12basic_stringIcNS_11char_traitsIcEENS_9allocatorIcEEEEJRKS6_EPS6_EEPT_SB_DpOT0_, symObjAddr: 0x13564, symBinAddr: 0x100017668, symSize: 0x0 }
  - { offset: 0x14F5B, size: 0x8, addend: 0x0, symName: __ZNSt3__112construct_atB8ne190107INS_12basic_stringIcNS_11char_traitsIcEENS_9allocatorIcEEEEJRKS6_EPS6_EEPT_SB_DpOT0_, symObjAddr: 0x135D8, symBinAddr: 0x1000176DC, symSize: 0x0 }
  - { offset: 0x14FCB, size: 0x8, addend: 0x0, symName: __ZNSt3__13maxB8ne190107ImEERKT_S3_S3_, symObjAddr: 0x14B2C, symBinAddr: 0x100018C30, symSize: 0x0 }
  - { offset: 0x1500E, size: 0x8, addend: 0x0, symName: __ZNSt3__13minB8ne190107ImEERKT_S3_S3_, symObjAddr: 0x14C08, symBinAddr: 0x100018D0C, symSize: 0x0 }
  - { offset: 0x1523B, size: 0x8, addend: 0x0, symName: __ZNSt3__13minB8ne190107ImNS_6__lessIvvEEEERKT_S5_S5_T0_, symObjAddr: 0x14E20, symBinAddr: 0x100018F24, symSize: 0x0 }
  - { offset: 0x154CC, size: 0x8, addend: 0x0, symName: __ZNSt3__120__throw_length_errorB8ne190107EPKc, symObjAddr: 0x152CC, symBinAddr: 0x1000193D0, symSize: 0x0 }
  - { offset: 0x154F4, size: 0x8, addend: 0x0, symName: __ZNSt3__13maxB8ne190107ImNS_6__lessIvvEEEERKT_S5_S5_T0_, symObjAddr: 0x154EC, symBinAddr: 0x1000195F0, symSize: 0x0 }
  - { offset: 0x15554, size: 0x8, addend: 0x0, symName: __ZNSt3__119__allocate_at_leastB8ne190107INS_9allocatorINS_12basic_stringIcNS_11char_traitsIcEENS1_IcEEEEEEEENS_19__allocation_resultINS_16allocator_traitsIT_E7pointerEEERSA_m, symObjAddr: 0x15E08, symBinAddr: 0x100019F0C, symSize: 0x0 }
  - { offset: 0x15597, size: 0x8, addend: 0x0, symName: __ZNSt3__117__libcpp_allocateB8ne190107Emm, symObjAddr: 0x16344, symBinAddr: 0x10001A448, symSize: 0x0 }
  - { offset: 0x155F1, size: 0x8, addend: 0x0, symName: __ZNSt3__124__is_overaligned_for_newB8ne190107Em, symObjAddr: 0x163AC, symBinAddr: 0x10001A4B0, symSize: 0x0 }
  - { offset: 0x1561D, size: 0x8, addend: 0x0, symName: __ZNSt3__121__libcpp_operator_newB8ne190107IJmSt11align_val_tEEEPvDpT_, symObjAddr: 0x163D0, symBinAddr: 0x10001A4D4, symSize: 0x0 }
  - { offset: 0x1566A, size: 0x8, addend: 0x0, symName: __ZNSt3__121__libcpp_operator_newB8ne190107IJmEEEPvDpT_, symObjAddr: 0x16440, symBinAddr: 0x10001A544, symSize: 0x0 }
  - { offset: 0x156A3, size: 0x8, addend: 0x0, symName: __ZNSt3__134__uninitialized_allocator_relocateB8ne190107INS_9allocatorINS_12basic_stringIcNS_11char_traitsIcEENS1_IcEEEEEES6_EEvRT_PT0_SB_SB_, symObjAddr: 0x16910, symBinAddr: 0x10001AA14, symSize: 0x0 }
  - { offset: 0x1570C, size: 0x8, addend: 0x0, symName: __ZNSt3__14swapB8ne190107IPNS_12basic_stringIcNS_11char_traitsIcEENS_9allocatorIcEEEEEENS_9enable_ifIXaasr21is_move_constructibleIT_EE5valuesr18is_move_assignableIS9_EE5valueEvE4typeERS9_SC_, symObjAddr: 0x169C0, symBinAddr: 0x10001AAC4, symSize: 0x0 }
  - { offset: 0x1575D, size: 0x8, addend: 0x0, symName: __ZNSt3__112__destroy_atB8ne190107INS_12basic_stringIcNS_11char_traitsIcEENS_9allocatorIcEEEETnNS_9enable_ifIXntsr8is_arrayIT_EE5valueEiE4typeELi0EEEvPS8_, symObjAddr: 0x1731C, symBinAddr: 0x10001B420, symSize: 0x0 }
  - { offset: 0x15794, size: 0x8, addend: 0x0, symName: __ZNSt3__119__libcpp_deallocateB8ne190107EPvmm, symObjAddr: 0x173F4, symBinAddr: 0x10001B4F8, symSize: 0x0 }
  - { offset: 0x157F9, size: 0x8, addend: 0x0, symName: __ZNSt3__127__do_deallocate_handle_sizeB8ne190107IJSt11align_val_tEEEvPvmDpT_, symObjAddr: 0x1745C, symBinAddr: 0x10001B560, symSize: 0x0 }
  - { offset: 0x1584C, size: 0x8, addend: 0x0, symName: __ZNSt3__127__do_deallocate_handle_sizeB8ne190107IJEEEvPvmDpT_, symObjAddr: 0x17498, symBinAddr: 0x10001B59C, symSize: 0x0 }
  - { offset: 0x1588A, size: 0x8, addend: 0x0, symName: __ZNSt3__124__libcpp_operator_deleteB8ne190107IJPvmSt11align_val_tEEEvDpT_, symObjAddr: 0x174CC, symBinAddr: 0x10001B5D0, symSize: 0x0 }
  - { offset: 0x158E7, size: 0x8, addend: 0x0, symName: __ZNSt3__124__libcpp_operator_deleteB8ne190107IJPvmEEEvDpT_, symObjAddr: 0x17508, symBinAddr: 0x10001B60C, symSize: 0x0 }
  - { offset: 0x15930, size: 0x8, addend: 0x0, symName: __ZNSt3__114__construct_atB8ne190107INS_12basic_stringIcNS_11char_traitsIcEENS_9allocatorIcEEEEJS6_EPS6_EEPT_S9_DpOT0_, symObjAddr: 0x186AC, symBinAddr: 0x10001C7B0, symSize: 0x0 }
  - { offset: 0x15983, size: 0x8, addend: 0x0, symName: __ZNSt3__112construct_atB8ne190107INS_12basic_stringIcNS_11char_traitsIcEENS_9allocatorIcEEEEJS6_EPS6_EEPT_S9_DpOT0_, symObjAddr: 0x18720, symBinAddr: 0x10001C824, symSize: 0x0 }
  - { offset: 0x159F3, size: 0x8, addend: 0x0, symName: __ZNSt3__112__to_addressB8ne190107IiEEPT_S2_, symObjAddr: 0x19EC0, symBinAddr: 0x10001DFC4, symSize: 0x0 }
  - { offset: 0x15A28, size: 0x8, addend: 0x0, symName: __ZNSt3__131__annotate_contiguous_containerB8ne190107INS_9allocatorIiEEEEvPKvS4_S4_S4_, symObjAddr: 0x1A800, symBinAddr: 0x10001E904, symSize: 0x0 }
  - { offset: 0x15A83, size: 0x8, addend: 0x0, symName: __ZNSt3__114__construct_atB8ne190107IiJiEPiEEPT_S3_DpOT0_, symObjAddr: 0x1ABC8, symBinAddr: 0x10001ECCC, symSize: 0x0 }
  - { offset: 0x15AFB, size: 0x8, addend: 0x0, symName: __ZNSt3__112construct_atB8ne190107IiJiEPiEEPT_S3_DpOT0_, symObjAddr: 0x1AC3C, symBinAddr: 0x10001ED40, symSize: 0x0 }
  - { offset: 0x15B6B, size: 0x8, addend: 0x0, symName: __ZNSt3__119__allocate_at_leastB8ne190107INS_9allocatorIiEEEENS_19__allocation_resultINS_16allocator_traitsIT_E7pointerEEERS5_m, symObjAddr: 0x1CB14, symBinAddr: 0x100020C18, symSize: 0x0 }
  - { offset: 0x15BAE, size: 0x8, addend: 0x0, symName: __ZNSt3__134__uninitialized_allocator_relocateB8ne190107INS_9allocatorIiEEiEEvRT_PT0_S6_S6_, symObjAddr: 0x1D46C, symBinAddr: 0x100021570, symSize: 0x0 }
  - { offset: 0x15C17, size: 0x8, addend: 0x0, symName: __ZNSt3__14swapB8ne190107IPiEENS_9enable_ifIXaasr21is_move_constructibleIT_EE5valuesr18is_move_assignableIS3_EE5valueEvE4typeERS3_S6_, symObjAddr: 0x1D51C, symBinAddr: 0x100021620, symSize: 0x0 }
  - { offset: 0x15C68, size: 0x8, addend: 0x0, symName: __ZNSt3__112__destroy_atB8ne190107IiTnNS_9enable_ifIXntsr8is_arrayIT_EE5valueEiE4typeELi0EEEvPS2_, symObjAddr: 0x1DE68, symBinAddr: 0x100021F6C, symSize: 0x0 }
  - { offset: 0x15C9F, size: 0x8, addend: 0x0, symName: __ZNSt3__1eqB8ne190107IPKiEEbRKNS_11__wrap_iterIT_EES7_, symObjAddr: 0x1EA24, symBinAddr: 0x100022B28, symSize: 0x0 }
  - { offset: 0x15CE7, size: 0x8, addend: 0x0, symName: __ZNSt3__16__math5log10B8ne190107IiTnNS_9enable_ifIXsr11is_integralIT_EE5valueEiE4typeELi0EEEdS3_, symObjAddr: 0x1ED08, symBinAddr: 0x100022E0C, symSize: 0x0 }
  - { offset: 0x15D7C, size: 0x8, addend: 0x0, symName: __ZNSt3__120__throw_out_of_rangeB8ne190107EPKc, symObjAddr: 0x1F870, symBinAddr: 0x100023974, symSize: 0x0 }
  - { offset: 0x15DA4, size: 0x8, addend: 0x0, symName: __ZNSt3__1eqB8ne190107IcNS_11char_traitsIcEEEEbNS_17basic_string_viewIT_T0_EENS_13type_identityIS6_E4typeE, symObjAddr: 0x1FB04, symBinAddr: 0x100023C08, symSize: 0x0 }
  - { offset: 0x15DFB, size: 0x8, addend: 0x0, symName: __ZNSt3__112__to_addressB8ne190107IKcEEPT_S3_, symObjAddr: 0x205F0, symBinAddr: 0x1000246F4, symSize: 0x0 }
  - { offset: 0x15E63, size: 0x8, addend: 0x0, symName: __ZNSt3__128__char_traits_length_checkedB8ne190107INS_11char_traitsIcEEEEmPKNT_9char_typeE, symObjAddr: 0x20B6C, symBinAddr: 0x100024C70, symSize: 0x0 }
  - { offset: 0x15E9A, size: 0x8, addend: 0x0, symName: __ZNSt3__112__to_addressB8ne190107IcEEPT_S2_, symObjAddr: 0x20C80, symBinAddr: 0x100024D84, symSize: 0x0 }
  - { offset: 0x15ECF, size: 0x8, addend: 0x0, symName: __ZNSt3__119__constexpr_memmoveB8ne190107IcKcTnNS_9enable_ifIXsr23__is_always_bitcastableIT0_T_EE5valueEiE4typeELi0EEEPS4_S7_PS3_NS_15__element_countE, symObjAddr: 0x227B8, symBinAddr: 0x1000268BC, symSize: 0x0 }
  - { offset: 0x15F3D, size: 0x8, addend: 0x0, symName: __ZNSt3__16fill_nB8ne190107IPcmcEET_S2_T0_RKT1_, symObjAddr: 0x22820, symBinAddr: 0x100026924, symSize: 0x0 }
  - { offset: 0x15FA0, size: 0x8, addend: 0x0, symName: __ZNSt3__18__fill_nB8ne190107IPcmcEET_S2_T0_RKT1_, symObjAddr: 0x22894, symBinAddr: 0x100026998, symSize: 0x0 }
  - { offset: 0x16003, size: 0x8, addend: 0x0, symName: __ZNSt3__121__convert_to_integralB8ne190107Em, symObjAddr: 0x22A44, symBinAddr: 0x100026B48, symSize: 0x0 }
  - { offset: 0x1602F, size: 0x8, addend: 0x0, symName: __ZNSt3__112__destroy_atB8ne190107IcTnNS_9enable_ifIXntsr8is_arrayIT_EE5valueEiE4typeELi0EEEvPS2_, symObjAddr: 0x23BB4, symBinAddr: 0x100027CB8, symSize: 0x0 }
  - { offset: 0x16066, size: 0x8, addend: 0x0, symName: __ZNSt3__131__annotate_contiguous_containerB8ne190107INS_9allocatorIcEEEEvPKvS4_S4_S4_, symObjAddr: 0x23E88, symBinAddr: 0x100027F8C, symSize: 0x0 }
  - { offset: 0x160C1, size: 0x8, addend: 0x0, symName: __ZNSt3__122__make_exception_guardB8ne190107INS_6vectorINS_12basic_stringIcNS_11char_traitsIcEENS_9allocatorIcEEEENS5_IS7_EEE16__destroy_vectorEEENS_28__exception_guard_exceptionsIT_EESC_, symObjAddr: 0x27F00, symBinAddr: 0x10002C004, symSize: 0x0 }
  - { offset: 0x160F6, size: 0x8, addend: 0x0, symName: __ZNSt3__130__uninitialized_allocator_copyB8ne190107INS_9allocatorINS_12basic_stringIcNS_11char_traitsIcEENS1_IcEEEEEEPS6_S8_S8_EET2_RT_T0_T1_S9_, symObjAddr: 0x28A50, symBinAddr: 0x10002CB54, symSize: 0x0 }
  - { offset: 0x1619C, size: 0x8, addend: 0x0, symName: __ZNSt3__114__unwrap_rangeB8ne190107IPNS_12basic_stringIcNS_11char_traitsIcEENS_9allocatorIcEEEES7_EEDaT_T0_, symObjAddr: 0x28CBC, symBinAddr: 0x10002CDC0, symSize: 0x0 }
  - { offset: 0x161E8, size: 0x8, addend: 0x0, symName: __ZNSt3__135__uninitialized_allocator_copy_implB8ne190107INS_9allocatorINS_12basic_stringIcNS_11char_traitsIcEENS1_IcEEEEEEPS6_S8_S8_EET2_RT_T0_T1_S9_, symObjAddr: 0x28D00, symBinAddr: 0x10002CE04, symSize: 0x0 }
  - { offset: 0x16294, size: 0x8, addend: 0x0, symName: __ZNSt3__113__unwrap_iterB8ne190107IPNS_12basic_stringIcNS_11char_traitsIcEENS_9allocatorIcEEEENS_18__unwrap_iter_implIS7_Lb1EEETnNS_9enable_ifIXsr21is_copy_constructibleIT_EE5valueEiE4typeELi0EEEDTclsrT0_8__unwrapclsr3stdE7declvalISB_EEEESB_, symObjAddr: 0x29228, symBinAddr: 0x10002D32C, symSize: 0x0 }
  - { offset: 0x162D8, size: 0x8, addend: 0x0, symName: __ZNSt3__113__rewrap_iterB8ne190107IPNS_12basic_stringIcNS_11char_traitsIcEENS_9allocatorIcEEEES7_NS_18__unwrap_iter_implIS7_Lb1EEEEET_SA_T0_, symObjAddr: 0x29254, symBinAddr: 0x10002D358, symSize: 0x0 }
  - { offset: 0x1642F, size: 0x8, addend: 0x0, symName: __ZNSt3__122__make_exception_guardB8ne190107INS_29_AllocatorDestroyRangeReverseINS_9allocatorINS_12basic_stringIcNS_11char_traitsIcEENS2_IcEEEEEEPS7_EEEENS_28__exception_guard_exceptionsIT_EESC_, symObjAddr: 0x29740, symBinAddr: 0x10002D844, symSize: 0x0 }
  - { offset: 0x16466, size: 0x8, addend: 0x0, symName: __ZNSt3__114__construct_atB8ne190107INS_12basic_stringIcNS_11char_traitsIcEENS_9allocatorIcEEEEJRS6_EPS6_EEPT_SA_DpOT0_, symObjAddr: 0x29E80, symBinAddr: 0x10002DF84, symSize: 0x0 }
  - { offset: 0x164B9, size: 0x8, addend: 0x0, symName: __ZNSt3__112construct_atB8ne190107INS_12basic_stringIcNS_11char_traitsIcEENS_9allocatorIcEEEEJRS6_EPS6_EEPT_SA_DpOT0_, symObjAddr: 0x29EF4, symBinAddr: 0x10002DFF8, symSize: 0x0 }
  - { offset: 0x16529, size: 0x8, addend: 0x0, symName: __ZNSt3__119__allocator_destroyB8ne190107INS_9allocatorINS_12basic_stringIcNS_11char_traitsIcEENS1_IcEEEEEENS_16reverse_iteratorIPS6_EESA_EEvRT_T0_T1_, symObjAddr: 0x2A470, symBinAddr: 0x10002E574, symSize: 0x0 }
  - { offset: 0x16595, size: 0x8, addend: 0x0, symName: __ZNSt3__1neB8ne190107IPNS_12basic_stringIcNS_11char_traitsIcEENS_9allocatorIcEEEES7_EEbRKNS_16reverse_iteratorIT_EERKNS8_IT0_EEQrqXnecldtfp_4baseEcldtfp0_4baseERNS_14convertible_toIbEEE, symObjAddr: 0x2A728, symBinAddr: 0x10002E82C, symSize: 0x0 }
  - { offset: 0x165E1, size: 0x8, addend: 0x0, symName: __ZNSt3__112__to_addressB8ne190107INS_16reverse_iteratorIPNS_12basic_stringIcNS_11char_traitsIcEENS_9allocatorIcEEEEEETnNS_9enable_ifIXsr4_AndINS_8is_classIT_EENS_15_IsFancyPointerISC_EEEE5valueEiE4typeELi0EEEu7__decayIDTclsr19__to_address_helperISC_EE6__callclsr3stdE7declvalIRKSC_EEEEESJ_, symObjAddr: 0x2A7C0, symBinAddr: 0x10002E8C4, symSize: 0x0 }
  - { offset: 0x16645, size: 0x8, addend: 0x0, symName: __ZNSt3__14prevB8ne190107IPNS_12basic_stringIcNS_11char_traitsIcEENS_9allocatorIcEEEETnNS_9enable_ifIXsr29__has_input_iterator_categoryIT_EE5valueEiE4typeELi0EEES9_S9_NS_15iterator_traitsIS9_E15difference_typeE, symObjAddr: 0x2AB60, symBinAddr: 0x10002EC64, symSize: 0x0 }
  - { offset: 0x16693, size: 0x8, addend: 0x0, symName: __ZNSt3__121__convert_to_integralB8ne190107El, symObjAddr: 0x2ADCC, symBinAddr: 0x10002EED0, symSize: 0x0 }
  - { offset: 0x166BF, size: 0x8, addend: 0x0, symName: __ZNSt3__19__advanceB8ne190107IPNS_12basic_stringIcNS_11char_traitsIcEENS_9allocatorIcEEEEEEvRT_NS_15iterator_traitsIS8_E15difference_typeENS_26random_access_iterator_tagE, symObjAddr: 0x2ADE8, symBinAddr: 0x10002EEEC, symSize: 0x0 }
  - { offset: 0x1675B, size: 0x8, addend: 0x0, symName: __ZNSt3__114__construct_atB8ne190107IcJRKcEPcEEPT_S5_DpOT0_, symObjAddr: 0x2C954, symBinAddr: 0x100030A58, symSize: 0x0 }
  - { offset: 0x167D3, size: 0x8, addend: 0x0, symName: __ZNSt3__112construct_atB8ne190107IcJRKcEPcEEPT_S5_DpOT0_, symObjAddr: 0x2C9B4, symBinAddr: 0x100030AB8, symSize: 0x0 }
  - { offset: 0x16843, size: 0x8, addend: 0x0, symName: __ZNSt3__119__allocate_at_leastB8ne190107INS_9allocatorIcEEEENS_19__allocation_resultINS_16allocator_traitsIT_E7pointerEEERS5_m, symObjAddr: 0x2E644, symBinAddr: 0x100032748, symSize: 0x0 }
  - { offset: 0x16886, size: 0x8, addend: 0x0, symName: __ZNSt3__134__uninitialized_allocator_relocateB8ne190107INS_9allocatorIcEEcEEvRT_PT0_S6_S6_, symObjAddr: 0x2ED90, symBinAddr: 0x100032E94, symSize: 0x0 }
  - { offset: 0x168EF, size: 0x8, addend: 0x0, symName: __ZNSt3__14swapB8ne190107IPcEENS_9enable_ifIXaasr21is_move_constructibleIT_EE5valuesr18is_move_assignableIS3_EE5valueEvE4typeERS3_S6_, symObjAddr: 0x2EDE0, symBinAddr: 0x100032EE4, symSize: 0x0 }
  - { offset: 0x16940, size: 0x8, addend: 0x0, symName: __ZNSt3__1plB8ne190107IcNS_11char_traitsIcEENS_9allocatorIcEEEENS_12basic_stringIT_T0_T1_EEOS9_PKS6_, symObjAddr: 0x2F94C, symBinAddr: 0x100033A50, symSize: 0x0 }
  - { offset: 0x16998, size: 0x8, addend: 0x0, symName: __ZNSt3__18distanceB8ne190107IPcEENS_15iterator_traitsIT_E15difference_typeES3_S3_, symObjAddr: 0x31298, symBinAddr: 0x10003539C, symSize: 0x0 }
  - { offset: 0x169DB, size: 0x8, addend: 0x0, symName: __ZNSt3__14nextB8ne190107IPcTnNS_9enable_ifIXsr29__has_input_iterator_categoryIT_EE5valueEiE4typeELi0EEES3_S3_NS_15iterator_traitsIS3_E15difference_typeE, symObjAddr: 0x312CC, symBinAddr: 0x1000353D0, symSize: 0x0 }
  - { offset: 0x16A29, size: 0x8, addend: 0x0, symName: __ZNSt3__14copyB8ne190107IPcS1_EET0_T_S3_S2_, symObjAddr: 0x31488, symBinAddr: 0x10003558C, symSize: 0x0 }
  - { offset: 0x16A86, size: 0x8, addend: 0x0, symName: __ZNSt3__16__copyB8ne190107INS_17_ClassicAlgPolicyEPcS2_S2_EENS_4pairIT0_T2_EES4_T1_S5_, symObjAddr: 0x31A7C, symBinAddr: 0x100035B80, symSize: 0x0 }
  - { offset: 0x16AF2, size: 0x8, addend: 0x0, symName: __ZNSt3__19__advanceB8ne190107IPcEEvRT_NS_15iterator_traitsIS2_E15difference_typeENS_26random_access_iterator_tagE, symObjAddr: 0x32240, symBinAddr: 0x100036344, symSize: 0x0 }
  - { offset: 0x16B3B, size: 0x8, addend: 0x0, symName: __ZNSt3__130__uninitialized_allocator_copyB8ne190107INS_9allocatorIcEEPcS3_S3_EET2_RT_T0_T1_S4_, symObjAddr: 0x323A0, symBinAddr: 0x1000364A4, symSize: 0x0 }
  - { offset: 0x16BE1, size: 0x8, addend: 0x0, symName: __ZNSt3__114__unwrap_rangeB8ne190107IPcS1_EEDaT_T0_, symObjAddr: 0x3260C, symBinAddr: 0x100036710, symSize: 0x0 }
  - { offset: 0x16C2D, size: 0x8, addend: 0x0, symName: __ZNSt3__135__uninitialized_allocator_copy_implB8ne190107INS_9allocatorIcEEcccTnNS_9enable_ifIXaaaaaasr31is_trivially_copy_constructibleIT1_EE5valuesr28is_trivially_copy_assignableIS4_EE5valuesr7is_sameIu14__remove_constIT0_Eu14__remove_constIT2_EEE5valuesr38__allocator_has_trivial_copy_constructIT_S4_EE5valueEiE4typeELi0EEEPS7_RS9_PS5_SE_SC_, symObjAddr: 0x32650, symBinAddr: 0x100036754, symSize: 0x0 }
  - { offset: 0x16CAE, size: 0x8, addend: 0x0, symName: __ZNSt3__113__unwrap_iterB8ne190107IPcNS_18__unwrap_iter_implIS1_Lb1EEETnNS_9enable_ifIXsr21is_copy_constructibleIT_EE5valueEiE4typeELi0EEEDTclsrT0_8__unwrapclsr3stdE7declvalIS5_EEEES5_, symObjAddr: 0x32690, symBinAddr: 0x100036794, symSize: 0x0 }
  - { offset: 0x16CF2, size: 0x8, addend: 0x0, symName: __ZNSt3__113__rewrap_iterB8ne190107IPcS1_NS_18__unwrap_iter_implIS1_Lb1EEEEET_S4_T0_, symObjAddr: 0x326BC, symBinAddr: 0x1000367C0, symSize: 0x0 }
  - { offset: 0x16EED, size: 0x8, addend: 0x0, symName: __ZNSt3__124__copy_move_unwrap_itersB8ne190107INS_11__copy_implINS_17_ClassicAlgPolicyEEEPcS4_S4_TnNS_9enable_ifIXsr12__can_rewrapIT0_T2_EE5valueEiE4typeELi0EEENS_4pairIS6_S7_EES6_T1_S7_, symObjAddr: 0x32CDC, symBinAddr: 0x100036DE0, symSize: 0x0 }
  - { offset: 0x16FDE, size: 0x8, addend: 0x0, symName: __ZNSt3__19make_pairB8ne190107IPcS1_EENS_4pairINS_18__unwrap_ref_decayIT_E4typeENS3_IT0_E4typeEEEOS4_OS7_, symObjAddr: 0x33108, symBinAddr: 0x10003720C, symSize: 0x0 }
  - { offset: 0x1702F, size: 0x8, addend: 0x0, symName: __ZNSt3__114__rewrap_rangeB8ne190107IPcS1_S1_EET0_S2_T1_, symObjAddr: 0x33340, symBinAddr: 0x100037444, symSize: 0x0 }
  - { offset: 0x17084, size: 0x8, addend: 0x0, symName: __ZNSt3__119__copy_trivial_implB8ne190107IccEENS_4pairIPT_PT0_EES3_S3_S5_, symObjAddr: 0x33374, symBinAddr: 0x100037478, symSize: 0x0 }
  - { offset: 0x170F3, size: 0x8, addend: 0x0, symName: __ZNSt3__119__constexpr_memmoveB8ne190107IccTnNS_9enable_ifIXsr23__is_always_bitcastableIT0_T_EE5valueEiE4typeELi0EEEPS3_S6_PS2_NS_15__element_countE, symObjAddr: 0x33660, symBinAddr: 0x100037764, symSize: 0x0 }
  - { offset: 0x17161, size: 0x8, addend: 0x0, symName: __ZNSt3__19make_pairB8ne190107IRPcS1_EENS_4pairINS_18__unwrap_ref_decayIT_E4typeENS4_IT0_E4typeEEEOS5_OS8_, symObjAddr: 0x336C8, symBinAddr: 0x1000377CC, symSize: 0x0 }
  - { offset: 0x171B2, size: 0x8, addend: 0x0, symName: __ZNSt3__110__distanceB8ne190107IPcEENS_15iterator_traitsIT_E15difference_typeES3_S3_NS_26random_access_iterator_tagE, symObjAddr: 0x33BF8, symBinAddr: 0x100037CFC, symSize: 0x0 }
  - { offset: 0x171FF, size: 0x8, addend: 0x0, symName: __ZNSt3__17getlineB8ne190107IcNS_11char_traitsIcEENS_9allocatorIcEEEERNS_13basic_istreamIT_T0_EES9_RNS_12basic_stringIS6_S7_T1_EES6_, symObjAddr: 0x34800, symBinAddr: 0x100038904, symSize: 0x0 }
  - { offset: 0x172D0, size: 0x8, addend: 0x0, symName: __ZNSt3__19use_facetB8ne190107INS_5ctypeIcEEEERKT_RKNS_6localeE, symObjAddr: 0x36810, symBinAddr: 0x10003A914, symSize: 0x0 }
  - { offset: 0x176AE, size: 0x8, addend: 0x0, symName: __ZNSt3__116__pad_and_outputB8ne190107IcNS_11char_traitsIcEEEENS_19ostreambuf_iteratorIT_T0_EES6_PKS4_S8_S8_RNS_8ios_baseES4_, symObjAddr: 0x37BA0, symBinAddr: 0x10003BCA4, symSize: 0x0 }
  - { offset: 0x189E1, size: 0x8, addend: 0x0, symName: __ZSt28__throw_bad_array_new_lengthB8ne190107v, symObjAddr: 0x162D0, symBinAddr: 0x10001A3D4, symSize: 0x0 }
  - { offset: 0x18A52, size: 0x8, addend: 0x0, symName: _.str, symObjAddr: 0x3BE60, symBinAddr: 0x100040620, symSize: 0x0 }
  - { offset: 0x18A82, size: 0x8, addend: 0x0, symName: __ZL8ALPHABET, symObjAddr: 0xDF280, symBinAddr: 0x100063040, symSize: 0x0 }
  - { offset: 0x18CA9, size: 0x8, addend: 0x0, symName: _.str.2, symObjAddr: 0x3BEA0, symBinAddr: 0x100040660, symSize: 0x0 }
  - { offset: 0x18CC8, size: 0x8, addend: 0x0, symName: _.str.3, symObjAddr: 0x3BEC0, symBinAddr: 0x100040680, symSize: 0x0 }
  - { offset: 0x18CE7, size: 0x8, addend: 0x0, symName: _.str.4, symObjAddr: 0x3BF00, symBinAddr: 0x1000406C0, symSize: 0x0 }
  - { offset: 0x18D06, size: 0x8, addend: 0x0, symName: _.str.5, symObjAddr: 0x3BF40, symBinAddr: 0x100040700, symSize: 0x0 }
  - { offset: 0x18D18, size: 0x8, addend: 0x0, symName: _.str.6, symObjAddr: 0x3BF80, symBinAddr: 0x100040740, symSize: 0x0 }
  - { offset: 0x18D37, size: 0x8, addend: 0x0, symName: _.str.7, symObjAddr: 0x3BFE0, symBinAddr: 0x1000407A0, symSize: 0x0 }
  - { offset: 0x18D56, size: 0x8, addend: 0x0, symName: _.str.8, symObjAddr: 0x3C000, symBinAddr: 0x1000407C0, symSize: 0x0 }
  - { offset: 0x18D68, size: 0x8, addend: 0x0, symName: _.str.9, symObjAddr: 0x3C020, symBinAddr: 0x1000407E0, symSize: 0x0 }
  - { offset: 0x18D87, size: 0x8, addend: 0x0, symName: _.str.10, symObjAddr: 0x3C0A0, symBinAddr: 0x100040860, symSize: 0x0 }
  - { offset: 0x18D99, size: 0x8, addend: 0x0, symName: _.str.11, symObjAddr: 0x3C0C0, symBinAddr: 0x100040880, symSize: 0x0 }
  - { offset: 0x18DAB, size: 0x8, addend: 0x0, symName: _.str.12, symObjAddr: 0x3C0E0, symBinAddr: 0x1000408A0, symSize: 0x0 }
  - { offset: 0x18DBD, size: 0x8, addend: 0x0, symName: _.str.13, symObjAddr: 0x3C100, symBinAddr: 0x1000408C0, symSize: 0x0 }
  - { offset: 0x18DCF, size: 0x8, addend: 0x0, symName: _.str.14, symObjAddr: 0x3C120, symBinAddr: 0x1000408E0, symSize: 0x0 }
  - { offset: 0x18DE1, size: 0x8, addend: 0x0, symName: _.str.15, symObjAddr: 0x3C140, symBinAddr: 0x100040900, symSize: 0x0 }
  - { offset: 0x18DF3, size: 0x8, addend: 0x0, symName: _.str.16, symObjAddr: 0x3C160, symBinAddr: 0x100040920, symSize: 0x0 }
  - { offset: 0x18E05, size: 0x8, addend: 0x0, symName: _.str.17, symObjAddr: 0x3C180, symBinAddr: 0x100040940, symSize: 0x0 }
  - { offset: 0x18E17, size: 0x8, addend: 0x0, symName: _.str.18, symObjAddr: 0x3C1A0, symBinAddr: 0x100040960, symSize: 0x0 }
  - { offset: 0x18E29, size: 0x8, addend: 0x0, symName: _.str.19, symObjAddr: 0x3C1C0, symBinAddr: 0x100040980, symSize: 0x0 }
  - { offset: 0x18E3B, size: 0x8, addend: 0x0, symName: _.str.20, symObjAddr: 0x3C1E0, symBinAddr: 0x1000409A0, symSize: 0x0 }
  - { offset: 0x18E4D, size: 0x8, addend: 0x0, symName: _.str.21, symObjAddr: 0x3C200, symBinAddr: 0x1000409C0, symSize: 0x0 }
  - { offset: 0x18E5F, size: 0x8, addend: 0x0, symName: _.str.22, symObjAddr: 0x3C220, symBinAddr: 0x1000409E0, symSize: 0x0 }
  - { offset: 0x18E7E, size: 0x8, addend: 0x0, symName: _.str.23, symObjAddr: 0x3C260, symBinAddr: 0x100040A20, symSize: 0x0 }
  - { offset: 0x18E9D, size: 0x8, addend: 0x0, symName: _.str.24, symObjAddr: 0x3C2A0, symBinAddr: 0x100040A60, symSize: 0x0 }
  - { offset: 0x18EAF, size: 0x8, addend: 0x0, symName: _.str.25, symObjAddr: 0x3C2C0, symBinAddr: 0x100040A80, symSize: 0x0 }
  - { offset: 0x18EC1, size: 0x8, addend: 0x0, symName: _.str.26, symObjAddr: 0x3C2E0, symBinAddr: 0x100040AA0, symSize: 0x0 }
  - { offset: 0x18ED3, size: 0x8, addend: 0x0, symName: _.str.27, symObjAddr: 0x3C300, symBinAddr: 0x100040AC0, symSize: 0x0 }
  - { offset: 0x18EF2, size: 0x8, addend: 0x0, symName: _.str.28, symObjAddr: 0x3C320, symBinAddr: 0x100040AE0, symSize: 0x0 }
  - { offset: 0x18F04, size: 0x8, addend: 0x0, symName: _.str.29, symObjAddr: 0x3C340, symBinAddr: 0x100040B00, symSize: 0x0 }
  - { offset: 0x18F23, size: 0x8, addend: 0x0, symName: _.str.30, symObjAddr: 0x3C380, symBinAddr: 0x100040B40, symSize: 0x0 }
  - { offset: 0x18F42, size: 0x8, addend: 0x0, symName: _.str.31, symObjAddr: 0x3C3C0, symBinAddr: 0x100040B80, symSize: 0x0 }
  - { offset: 0x18F54, size: 0x8, addend: 0x0, symName: _.str.32, symObjAddr: 0x3C400, symBinAddr: 0x100040BC0, symSize: 0x0 }
  - { offset: 0x18F73, size: 0x8, addend: 0x0, symName: _.str.33, symObjAddr: 0x3C460, symBinAddr: 0x100040C20, symSize: 0x0 }
  - { offset: 0x18F92, size: 0x8, addend: 0x0, symName: _.str.34, symObjAddr: 0x3C4C0, symBinAddr: 0x100040C80, symSize: 0x0 }
  - { offset: 0x18FB1, size: 0x8, addend: 0x0, symName: _.str.35, symObjAddr: 0x3C520, symBinAddr: 0x100040CE0, symSize: 0x0 }
  - { offset: 0x18FD0, size: 0x8, addend: 0x0, symName: _.str.36, symObjAddr: 0x3C560, symBinAddr: 0x100040D20, symSize: 0x0 }
  - { offset: 0x18FEF, size: 0x8, addend: 0x0, symName: _.str.37, symObjAddr: 0x3E640, symBinAddr: 0x100042B00, symSize: 0x0 }
  - { offset: 0x1900E, size: 0x8, addend: 0x0, symName: _.str.38, symObjAddr: 0x3C5A0, symBinAddr: 0x100040D60, symSize: 0x0 }
  - { offset: 0x19020, size: 0x8, addend: 0x0, symName: _.str.39, symObjAddr: 0x3C5E0, symBinAddr: 0x100040DA0, symSize: 0x0 }
  - { offset: 0x1903F, size: 0x8, addend: 0x0, symName: _.str.40, symObjAddr: 0x3C620, symBinAddr: 0x100040DE0, symSize: 0x0 }
  - { offset: 0x19052, size: 0x8, addend: 0x0, symName: _.str.41, symObjAddr: 0x3C660, symBinAddr: 0x100040E20, symSize: 0x0 }
  - { offset: 0x19065, size: 0x8, addend: 0x0, symName: _.str.42, symObjAddr: 0x3C680, symBinAddr: 0x100040E40, symSize: 0x0 }
  - { offset: 0x19078, size: 0x8, addend: 0x0, symName: _.str.43, symObjAddr: 0x3C6C0, symBinAddr: 0x100040E80, symSize: 0x0 }
  - { offset: 0x1908B, size: 0x8, addend: 0x0, symName: _.str.44, symObjAddr: 0x3C700, symBinAddr: 0x100040EC0, symSize: 0x0 }
  - { offset: 0x1909E, size: 0x8, addend: 0x0, symName: _.str.45, symObjAddr: 0x3C740, symBinAddr: 0x100040F00, symSize: 0x0 }
  - { offset: 0x190BE, size: 0x8, addend: 0x0, symName: _.str.46, symObjAddr: 0x3C7A0, symBinAddr: 0x100040F60, symSize: 0x0 }
  - { offset: 0x190DE, size: 0x8, addend: 0x0, symName: _.str.47, symObjAddr: 0x3C7E0, symBinAddr: 0x100040FA0, symSize: 0x0 }
  - { offset: 0x190FE, size: 0x8, addend: 0x0, symName: _.str.48, symObjAddr: 0x3C820, symBinAddr: 0x100040FE0, symSize: 0x0 }
  - { offset: 0x19111, size: 0x8, addend: 0x0, symName: _.str.58, symObjAddr: 0x3C860, symBinAddr: 0x100041020, symSize: 0x0 }
  - { offset: 0x19131, size: 0x8, addend: 0x0, symName: _.str.68, symObjAddr: 0x3C880, symBinAddr: 0x100041040, symSize: 0x0 }
  - { offset: 0x19143, size: 0x8, addend: 0x0, symName: _.str.80, symObjAddr: 0x3C8A0, symBinAddr: 0x100041060, symSize: 0x0 }
  - { offset: 0x19155, size: 0x8, addend: 0x0, symName: _.str.81, symObjAddr: 0x3C8E0, symBinAddr: 0x1000410A0, symSize: 0x0 }
  - { offset: 0x19174, size: 0x8, addend: 0x0, symName: _.str.82, symObjAddr: 0x3C920, symBinAddr: 0x1000410E0, symSize: 0x0 }
  - { offset: 0x19193, size: 0x8, addend: 0x0, symName: _.str.83, symObjAddr: 0x3C940, symBinAddr: 0x100041100, symSize: 0x0 }
  - { offset: 0x1A169, size: 0x8, addend: 0x0, symName: __ZNSt3__123mersenne_twister_engineIjLm32ELm624ELm397ELm31ELj2567483615ELm11ELj4294967295ELm7ELj2636928640ELm15ELj4022730752ELm18ELj1812433253EEC1B8ne190107Ev, symObjAddr: 0x0, symBinAddr: 0x100004104, symSize: 0x68 }
  - { offset: 0x1A199, size: 0x8, addend: 0x0, symName: __ZNSt3__112basic_stringIcNS_11char_traitsIcEENS_9allocatorIcEEEC1B8ne190107ILi0EEEPKc, symObjAddr: 0x68, symBinAddr: 0x10000416C, symSize: 0x6C }
  - { offset: 0x1A1D8, size: 0x8, addend: 0x0, symName: _main, symObjAddr: 0xDC, symBinAddr: 0x1000041E0, symSize: 0x0 }
  - { offset: 0x1A368, size: 0x8, addend: 0x0, symName: __ZN6Random4seedEi, symObjAddr: 0x2118, symBinAddr: 0x10000621C, symSize: 0x0 }
  - { offset: 0x1A38B, size: 0x8, addend: 0x0, symName: __ZNSt3__112basic_stringIcNS_11char_traitsIcEENS_9allocatorIcEEEC1B8ne190107Ev, symObjAddr: 0x2144, symBinAddr: 0x100006248, symSize: 0x64 }
  - { offset: 0x1A3B5, size: 0x8, addend: 0x0, symName: __ZNSt3__16vectorINS_12basic_stringIcNS_11char_traitsIcEENS_9allocatorIcEEEENS4_IS6_EEEC1B8ne190107Ev, symObjAddr: 0x21A8, symBinAddr: 0x1000062AC, symSize: 0x64 }
  - { offset: 0x1A742, size: 0x8, addend: 0x0, symName: __ZNSt3__114basic_ifstreamIcNS_11char_traitsIcEEEC1EPKcj, symObjAddr: 0x220C, symBinAddr: 0x100006310, symSize: 0x5DC }
  - { offset: 0x1A78C, size: 0x8, addend: 0x0, symName: __ZNKSt3__19basic_iosIcNS_11char_traitsIcEEEcvbB8ne190107Ev, symObjAddr: 0x2A9C, symBinAddr: 0x100006BA0, symSize: 0xD4 }
  - { offset: 0x1A7B2, size: 0x8, addend: 0x0, symName: __ZNSt3__16vectorINS_12basic_stringIcNS_11char_traitsIcEENS_9allocatorIcEEEENS4_IS6_EEE9push_backB8ne190107ERKS6_, symObjAddr: 0x2B70, symBinAddr: 0x100006C74, symSize: 0x27C }
  - { offset: 0x1A7F6, size: 0x8, addend: 0x0, symName: __ZNSt3__114basic_ifstreamIcNS_11char_traitsIcEEE5closeEv, symObjAddr: 0x2DEC, symBinAddr: 0x100006EF0, symSize: 0x304 }
  - { offset: 0x1A81E, size: 0x8, addend: 0x0, symName: __ZNSt3__16vectorIiNS_9allocatorIiEEEC1B8ne190107Ev, symObjAddr: 0x30F0, symBinAddr: 0x1000071F4, symSize: 0x64 }
  - { offset: 0x1A848, size: 0x8, addend: 0x0, symName: __ZNSt3__16vectorINS_12basic_stringIcNS_11char_traitsIcEENS_9allocatorIcEEEENS4_IS6_EEE9push_backB8ne190107EOS6_, symObjAddr: 0x3154, symBinAddr: 0x100007258, symSize: 0x27C }
  - { offset: 0x1A88C, size: 0x8, addend: 0x0, symName: __ZNKSt3__112basic_stringIcNS_11char_traitsIcEENS_9allocatorIcEEE6substrB8ne190107Emm, symObjAddr: 0x33D0, symBinAddr: 0x1000074D4, symSize: 0x290 }
  - { offset: 0x1A8D3, size: 0x8, addend: 0x0, symName: __ZNSt3__16vectorIiNS_9allocatorIiEEE9push_backB8ne190107EOi, symObjAddr: 0x3660, symBinAddr: 0x100007764, symSize: 0x27C }
  - { offset: 0x1A917, size: 0x8, addend: 0x0, symName: __ZN14QuadgramScorerC1ERKNSt3__16vectorINS0_12basic_stringIcNS0_11char_traitsIcEENS0_9allocatorIcEEEENS5_IS7_EEEERKNS1_IiNS5_IiEEEE, symObjAddr: 0x38DC, symBinAddr: 0x1000079E0, symSize: 0x74 }
  - { offset: 0x1A95D, size: 0x8, addend: 0x0, symName: __ZNSt3__113basic_ostreamIcNS_11char_traitsIcEEElsB8ne190107EPFRS3_S4_E, symObjAddr: 0x3A08, symBinAddr: 0x100007B0C, symSize: 0x124 }
  - { offset: 0x1A991, size: 0x8, addend: 0x0, symName: __Z9printMenuv, symObjAddr: 0x3E84, symBinAddr: 0x100007F88, symSize: 0x0 }
  - { offset: 0x1A9AA, size: 0x8, addend: 0x0, symName: __Z20caesarEncryptCommandv, symObjAddr: 0x4894, symBinAddr: 0x100008998, symSize: 0x0 }
  - { offset: 0x1AA0A, size: 0x8, addend: 0x0, symName: __Z20caesarDecryptCommandRKNSt3__16vectorINS_12basic_stringIcNS_11char_traitsIcEENS_9allocatorIcEEEENS4_IS6_EEEE, symObjAddr: 0x4E84, symBinAddr: 0x100008F88, symSize: 0x0 }
  - { offset: 0x1AB37, size: 0x8, addend: 0x0, symName: __Z25computeEnglishnessCommandRK14QuadgramScorer, symObjAddr: 0x5AE0, symBinAddr: 0x100009BE4, symSize: 0x0 }
  - { offset: 0x1AB85, size: 0x8, addend: 0x0, symName: __Z25decryptSubstCipherCommandRK14QuadgramScorer, symObjAddr: 0x6184, symBinAddr: 0x10000A288, symSize: 0x0 }
  - { offset: 0x1ABEA, size: 0x8, addend: 0x0, symName: __Z27applyRandSubstCipherCommandv, symObjAddr: 0x6760, symBinAddr: 0x10000A864, symSize: 0x0 }
  - { offset: 0x1AC40, size: 0x8, addend: 0x0, symName: __ZNSt3__114basic_ifstreamIcNS_11char_traitsIcEEEC1ERKNS_12basic_stringIcS2_NS_9allocatorIcEEEEj, symObjAddr: 0x6CF0, symBinAddr: 0x10000ADF4, symSize: 0x614 }
  - { offset: 0x1AC8A, size: 0x8, addend: 0x0, symName: __ZNSt3__112basic_stringIcNS_11char_traitsIcEENS_9allocatorIcEEEpLB8ne190107ERKS5_, symObjAddr: 0x7884, symBinAddr: 0x10000B988, symSize: 0xD4 }
  - { offset: 0x1ACBE, size: 0x8, addend: 0x0, symName: __Z18decryptSubstCipherRK14QuadgramScorerRKNSt3__112basic_stringIcNS2_11char_traitsIcEENS2_9allocatorIcEEEE, symObjAddr: 0x7960, symBinAddr: 0x10000BA64, symSize: 0x0 }
  - { offset: 0x1AD84, size: 0x8, addend: 0x0, symName: __Z16applySubstCipherRKNSt3__16vectorIcNS_9allocatorIcEEEERKNS_12basic_stringIcNS_11char_traitsIcEES2_EE, symObjAddr: 0x7FA4, symBinAddr: 0x10000C0A8, symSize: 0x0 }
  - { offset: 0x1AE93, size: 0x8, addend: 0x0, symName: __ZNSt3__114basic_ofstreamIcNS_11char_traitsIcEEEC1ERKNS_12basic_stringIcS2_NS_9allocatorIcEEEEj, symObjAddr: 0x8688, symBinAddr: 0x10000C78C, symSize: 0x614 }
  - { offset: 0x1AEDD, size: 0x8, addend: 0x0, symName: __ZNSt3__114basic_ofstreamIcNS_11char_traitsIcEEE5closeEv, symObjAddr: 0x8DA8, symBinAddr: 0x10000CEAC, symSize: 0x304 }
  - { offset: 0x1AF0B, size: 0x8, addend: 0x0, symName: __ZNSt3__114basic_ofstreamIcNS_11char_traitsIcEEED1Ev, symObjAddr: 0x90AC, symBinAddr: 0x10000D1B0, symSize: 0x78 }
  - { offset: 0x1AF38, size: 0x8, addend: 0x0, symName: __ZNSt3__16vectorIcNS_9allocatorIcEEED1B8ne190107Ev, symObjAddr: 0x9124, symBinAddr: 0x10000D228, symSize: 0x64 }
  - { offset: 0x1AF68, size: 0x8, addend: 0x0, symName: __ZNSt3__114basic_ifstreamIcNS_11char_traitsIcEEED1Ev, symObjAddr: 0x9188, symBinAddr: 0x10000D28C, symSize: 0x78 }
  - { offset: 0x1AF95, size: 0x8, addend: 0x0, symName: __ZNKSt3__19basic_iosIcNS_11char_traitsIcEEE3eofB8ne190107Ev, symObjAddr: 0x9200, symBinAddr: 0x10000D304, symSize: 0xF8 }
  - { offset: 0x1AFBB, size: 0x8, addend: 0x0, symName: __ZNSt3__16vectorIiNS_9allocatorIiEEED1B8ne190107Ev, symObjAddr: 0x92F8, symBinAddr: 0x10000D3FC, symSize: 0x64 }
  - { offset: 0x1AFE5, size: 0x8, addend: 0x0, symName: __ZNSt3__16vectorINS_12basic_stringIcNS_11char_traitsIcEENS_9allocatorIcEEEENS4_IS6_EEED1B8ne190107Ev, symObjAddr: 0x935C, symBinAddr: 0x10000D460, symSize: 0x64 }
  - { offset: 0x1B00E, size: 0x8, addend: 0x0, symName: __Z3rotci, symObjAddr: 0x93C8, symBinAddr: 0x10000D4CC, symSize: 0x0 }
  - { offset: 0x1B056, size: 0x8, addend: 0x0, symName: __Z7isalphai, symObjAddr: 0x9658, symBinAddr: 0x10000D75C, symSize: 0x0 }
  - { offset: 0x1B082, size: 0x8, addend: 0x0, symName: __Z7toupperi, symObjAddr: 0x9688, symBinAddr: 0x10000D78C, symSize: 0x0 }
  - { offset: 0x1B0B1, size: 0x8, addend: 0x0, symName: __ZNKSt3__112basic_stringIcNS_11char_traitsIcEENS_9allocatorIcEEEixB8ne190107Em, symObjAddr: 0x96AC, symBinAddr: 0x10000D7B0, symSize: 0x13C }
  - { offset: 0x1B0E5, size: 0x8, addend: 0x0, symName: __Z3rotRKNSt3__112basic_stringIcNS_11char_traitsIcEENS_9allocatorIcEEEEi, symObjAddr: 0x97F0, symBinAddr: 0x10000D8F4, symSize: 0x0 }
  - { offset: 0x1B16D, size: 0x8, addend: 0x0, symName: __ZNKSt3__112basic_stringIcNS_11char_traitsIcEENS_9allocatorIcEEE4sizeB8ne190107Ev, symObjAddr: 0x9C70, symBinAddr: 0x10000DD74, symSize: 0x88 }
  - { offset: 0x1B193, size: 0x8, addend: 0x0, symName: __ZNSt3__112basic_stringIcNS_11char_traitsIcEENS_9allocatorIcEEEpLB8ne190107Ec, symObjAddr: 0x9CF8, symBinAddr: 0x10000DDFC, symSize: 0x9C }
  - { offset: 0x1B1C7, size: 0x8, addend: 0x0, symName: __Z7isspacei, symObjAddr: 0x9D9C, symBinAddr: 0x10000DEA0, symSize: 0x0 }
  - { offset: 0x1B1F5, size: 0x8, addend: 0x0, symName: __Z3rotRNSt3__16vectorINS_12basic_stringIcNS_11char_traitsIcEENS_9allocatorIcEEEENS4_IS6_EEEEi, symObjAddr: 0x9DCC, symBinAddr: 0x10000DED0, symSize: 0x0 }
  - { offset: 0x1B289, size: 0x8, addend: 0x0, symName: __ZNSt3__16vectorINS_12basic_stringIcNS_11char_traitsIcEENS_9allocatorIcEEEENS4_IS6_EEE5beginB8ne190107Ev, symObjAddr: 0xA228, symBinAddr: 0x10000E32C, symSize: 0xA8 }
  - { offset: 0x1B2B1, size: 0x8, addend: 0x0, symName: __ZNSt3__16vectorINS_12basic_stringIcNS_11char_traitsIcEENS_9allocatorIcEEEENS4_IS6_EEE3endB8ne190107Ev, symObjAddr: 0xA2D0, symBinAddr: 0x10000E3D4, symSize: 0xAC }
  - { offset: 0x1B2D9, size: 0x8, addend: 0x0, symName: __ZNKSt3__111__wrap_iterIPNS_12basic_stringIcNS_11char_traitsIcEENS_9allocatorIcEEEEEdeB8ne190107Ev, symObjAddr: 0xA414, symBinAddr: 0x10000E518, symSize: 0xD4 }
  - { offset: 0x1B2FF, size: 0x8, addend: 0x0, symName: __ZNKSt3__112basic_stringIcNS_11char_traitsIcEENS_9allocatorIcEEE5emptyB8ne190107Ev, symObjAddr: 0xA4E8, symBinAddr: 0x10000E5EC, symSize: 0x64 }
  - { offset: 0x1B325, size: 0x8, addend: 0x0, symName: __ZNSt3__112basic_stringIcNS_11char_traitsIcEENS_9allocatorIcEEEaSB8ne190107EOS5_, symObjAddr: 0xA54C, symBinAddr: 0x10000E650, symSize: 0xD4 }
  - { offset: 0x1B35A, size: 0x8, addend: 0x0, symName: __ZNSt3__111__wrap_iterIPNS_12basic_stringIcNS_11char_traitsIcEENS_9allocatorIcEEEEEppB8ne190107Ev, symObjAddr: 0xA620, symBinAddr: 0x10000E724, symSize: 0x178 }
  - { offset: 0x1B37F, size: 0x8, addend: 0x0, symName: __Z5cleanRKNSt3__112basic_stringIcNS_11char_traitsIcEENS_9allocatorIcEEEE, symObjAddr: 0xA7A0, symBinAddr: 0x10000E8A4, symSize: 0x0 }
  - { offset: 0x1B410, size: 0x8, addend: 0x0, symName: __ZNKSt3__112basic_stringIcNS_11char_traitsIcEENS_9allocatorIcEEE5beginB8ne190107Ev, symObjAddr: 0xAC80, symBinAddr: 0x10000ED84, symSize: 0x8C }
  - { offset: 0x1B436, size: 0x8, addend: 0x0, symName: __ZNKSt3__112basic_stringIcNS_11char_traitsIcEENS_9allocatorIcEEE3endB8ne190107Ev, symObjAddr: 0xAD0C, symBinAddr: 0x10000EE10, symSize: 0x12C }
  - { offset: 0x1B45C, size: 0x8, addend: 0x0, symName: __ZNKSt3__111__wrap_iterIPKcEdeB8ne190107Ev, symObjAddr: 0xAED0, symBinAddr: 0x10000EFD4, symSize: 0xC0 }
  - { offset: 0x1B482, size: 0x8, addend: 0x0, symName: __ZNSt3__111__wrap_iterIPKcEppB8ne190107Ev, symObjAddr: 0xAF90, symBinAddr: 0x10000F094, symSize: 0x178 }
  - { offset: 0x1B4A7, size: 0x8, addend: 0x0, symName: __Z13splitBySpacesRKNSt3__112basic_stringIcNS_11char_traitsIcEENS_9allocatorIcEEEE, symObjAddr: 0xB110, symBinAddr: 0x10000F214, symSize: 0x0 }
  - { offset: 0x1B5A0, size: 0x8, addend: 0x0, symName: __ZNSt3__118basic_stringstreamIcNS_11char_traitsIcEENS_9allocatorIcEEEC1B8ne190107ERKNS_12basic_stringIcS2_S4_EEj, symObjAddr: 0xB7FC, symBinAddr: 0x10000F900, symSize: 0x3D8 }
  - { offset: 0x1B5EE, size: 0x8, addend: 0x0, symName: __ZNSt3__118basic_stringstreamIcNS_11char_traitsIcEENS_9allocatorIcEEED1Ev, symObjAddr: 0xD124, symBinAddr: 0x100011228, symSize: 0x78 }
  - { offset: 0x1B61A, size: 0x8, addend: 0x0, symName: __Z14joinWithSpacesRKNSt3__16vectorINS_12basic_stringIcNS_11char_traitsIcEENS_9allocatorIcEEEENS4_IS6_EEEE, symObjAddr: 0xD1A4, symBinAddr: 0x1000112A8, symSize: 0x0 }
  - { offset: 0x1B66E, size: 0x8, addend: 0x0, symName: __ZNKSt3__16vectorINS_12basic_stringIcNS_11char_traitsIcEENS_9allocatorIcEEEENS4_IS6_EEE4sizeB8ne190107Ev, symObjAddr: 0xD418, symBinAddr: 0x10001151C, symSize: 0xE0 }
  - { offset: 0x1B694, size: 0x8, addend: 0x0, symName: __ZNKSt3__16vectorINS_12basic_stringIcNS_11char_traitsIcEENS_9allocatorIcEEEENS4_IS6_EEEixB8ne190107Em, symObjAddr: 0xD4F8, symBinAddr: 0x1000115FC, symSize: 0x188 }
  - { offset: 0x1B6CB, size: 0x8, addend: 0x0, symName: __ZNSt3__112basic_stringIcNS_11char_traitsIcEENS_9allocatorIcEEEpLB8ne190107EPKc, symObjAddr: 0xD680, symBinAddr: 0x100011784, symSize: 0x9C }
  - { offset: 0x1B6FF, size: 0x8, addend: 0x0, symName: __Z10numWordsInRKNSt3__16vectorINS_12basic_stringIcNS_11char_traitsIcEENS_9allocatorIcEEEENS4_IS6_EEEESA_, symObjAddr: 0xD724, symBinAddr: 0x100011828, symSize: 0x0 }
  - { offset: 0x1B808, size: 0x8, addend: 0x0, symName: __ZNKSt3__16vectorINS_12basic_stringIcNS_11char_traitsIcEENS_9allocatorIcEEEENS4_IS6_EEE5beginB8ne190107Ev, symObjAddr: 0xDCB4, symBinAddr: 0x100011DB8, symSize: 0xA8 }
  - { offset: 0x1B830, size: 0x8, addend: 0x0, symName: __ZNKSt3__16vectorINS_12basic_stringIcNS_11char_traitsIcEENS_9allocatorIcEEEENS4_IS6_EEE3endB8ne190107Ev, symObjAddr: 0xDD5C, symBinAddr: 0x100011E60, symSize: 0xAC }
  - { offset: 0x1B858, size: 0x8, addend: 0x0, symName: __ZNKSt3__111__wrap_iterIPKNS_12basic_stringIcNS_11char_traitsIcEENS_9allocatorIcEEEEEdeB8ne190107Ev, symObjAddr: 0xDEA0, symBinAddr: 0x100011FA4, symSize: 0xD4 }
  - { offset: 0x1B87E, size: 0x8, addend: 0x0, symName: __ZNSt3__111__wrap_iterIPKNS_12basic_stringIcNS_11char_traitsIcEENS_9allocatorIcEEEEEppB8ne190107Ev, symObjAddr: 0xE0CC, symBinAddr: 0x1000121D0, symSize: 0x178 }
  - { offset: 0x1B8A4, size: 0x8, addend: 0x0, symName: __ZNKSt3__16vectorINS_12basic_stringIcNS_11char_traitsIcEENS_9allocatorIcEEEENS4_IS6_EEE5emptyB8ne190107Ev, symObjAddr: 0xE244, symBinAddr: 0x100012348, symSize: 0xDC }
  - { offset: 0x1B8CA, size: 0x8, addend: 0x0, symName: __ZNSt3__16vectorINS_12basic_stringIcNS_11char_traitsIcEENS_9allocatorIcEEEENS4_IS6_EEEC1ERKS8_, symObjAddr: 0xE320, symBinAddr: 0x100012424, symSize: 0x6C }
  - { offset: 0x1B904, size: 0x8, addend: 0x0, symName: __Z7isloweri, symObjAddr: 0xE394, symBinAddr: 0x100012498, symSize: 0x0 }
  - { offset: 0x1B931, size: 0x8, addend: 0x0, symName: __ZNKSt3__16vectorIcNS_9allocatorIcEEEixB8ne190107Em, symObjAddr: 0xE3BC, symBinAddr: 0x1000124C0, symSize: 0x16C }
  - { offset: 0x1B967, size: 0x8, addend: 0x0, symName: __Z7toloweri, symObjAddr: 0xE530, symBinAddr: 0x100012634, symSize: 0x0 }
  - { offset: 0x1B995, size: 0x8, addend: 0x0, symName: __Z20genRandomSubstCipherv, symObjAddr: 0xE55C, symBinAddr: 0x100012660, symSize: 0x0 }
  - { offset: 0x1BA15, size: 0x8, addend: 0x0, symName: __Z11scoreStringRK14QuadgramScorerRKNSt3__112basic_stringIcNS2_11char_traitsIcEENS2_9allocatorIcEEEE, symObjAddr: 0xEA50, symBinAddr: 0x100012B54, symSize: 0x0 }
  - { offset: 0x1BA9C, size: 0x8, addend: 0x0, symName: __ZNK14QuadgramScorer8getScoreERKNSt3__112basic_stringIcNS0_11char_traitsIcEENS0_9allocatorIcEEEE, symObjAddr: 0xEDF0, symBinAddr: 0x100012EF4, symSize: 0x9B8 }
  - { offset: 0x1BB2E, size: 0x8, addend: 0x0, symName: __Z13findBestScoreRK14QuadgramScorerRKNSt3__112basic_stringIcNS2_11char_traitsIcEENS2_9allocatorIcEEEE, symObjAddr: 0xF7B0, symBinAddr: 0x1000138B4, symSize: 0x0 }
  - { offset: 0x1BBFB, size: 0x8, addend: 0x0, symName: __ZN6Random7randIntEi, symObjAddr: 0xFFBC, symBinAddr: 0x1000140C0, symSize: 0x0 }
  - { offset: 0x1BC1E, size: 0x8, addend: 0x0, symName: __ZNSt3__16vectorIcNS_9allocatorIcEEEixB8ne190107Em, symObjAddr: 0x10244, symBinAddr: 0x100014348, symSize: 0x16C }
  - { offset: 0x1BC55, size: 0x8, addend: 0x0, symName: __ZNSt3__16vectorIcNS_9allocatorIcEEEC1B8ne190107Ev, symObjAddr: 0x103B0, symBinAddr: 0x1000144B4, symSize: 0x64 }
  - { offset: 0x1BC7F, size: 0x8, addend: 0x0, symName: __ZNSt3__16vectorIcNS_9allocatorIcEEEaSB8ne190107ERKS3_, symObjAddr: 0x10414, symBinAddr: 0x100014518, symSize: 0x1CC }
  - { offset: 0x1BCB6, size: 0x8, addend: 0x0, symName: __ZNSt3__112basic_stringIcNS_11char_traitsIcEENS_9allocatorIcEEEC2B8ne190107ILi0EEEPKc, symObjAddr: 0x105E0, symBinAddr: 0x1000146E4, symSize: 0x244 }
  - { offset: 0x1BCFD, size: 0x8, addend: 0x0, symName: __ZNSt3__117__compressed_pairINS_12basic_stringIcNS_11char_traitsIcEENS_9allocatorIcEEE5__repES5_EC1B8ne190107INS_18__default_init_tagESA_EEOT_OT0_, symObjAddr: 0x10824, symBinAddr: 0x100014928, symSize: 0x74 }
  - { offset: 0x1BD55, size: 0x8, addend: 0x0, symName: __ZNSt3__111char_traitsIcE6lengthB8ne190107EPKc, symObjAddr: 0x108A0, symBinAddr: 0x1000149A4, symSize: 0x0 }
  - { offset: 0x1BD78, size: 0x8, addend: 0x0, symName: __ZNSt3__117__compressed_pairINS_12basic_stringIcNS_11char_traitsIcEENS_9allocatorIcEEE5__repES5_EC2B8ne190107INS_18__default_init_tagESA_EEOT_OT0_, symObjAddr: 0x108C4, symBinAddr: 0x1000149C8, symSize: 0xC8 }
  - { offset: 0x1BDD0, size: 0x8, addend: 0x0, symName: __ZNSt3__122__compressed_pair_elemINS_12basic_stringIcNS_11char_traitsIcEENS_9allocatorIcEEE5__repELi0ELb0EEC2B8ne190107ENS_18__default_init_tagE, symObjAddr: 0x1098C, symBinAddr: 0x100014A90, symSize: 0x5C }
  - { offset: 0x1BE04, size: 0x8, addend: 0x0, symName: __ZNSt3__122__compressed_pair_elemINS_9allocatorIcEELi1ELb1EEC2B8ne190107ENS_18__default_init_tagE, symObjAddr: 0x109E8, symBinAddr: 0x100014AEC, symSize: 0x70 }
  - { offset: 0x1BE38, size: 0x8, addend: 0x0, symName: __ZNSt3__19allocatorIcEC2B8ne190107Ev, symObjAddr: 0x10A58, symBinAddr: 0x100014B5C, symSize: 0x70 }
  - { offset: 0x1BE62, size: 0x8, addend: 0x0, symName: __ZNSt3__116__non_trivial_ifILb1ENS_9allocatorIcEEEC2B8ne190107Ev, symObjAddr: 0x10AC8, symBinAddr: 0x100014BCC, symSize: 0x48 }
  - { offset: 0x1BE8C, size: 0x8, addend: 0x0, symName: __ZNSt3__123mersenne_twister_engineIjLm32ELm624ELm397ELm31ELj2567483615ELm11ELj4294967295ELm7ELj2636928640ELm15ELj4022730752ELm18ELj1812433253EE4seedEj, symObjAddr: 0x10B3C, symBinAddr: 0x100014C40, symSize: 0x5F4 }
  - { offset: 0x1BEDF, size: 0x8, addend: 0x0, symName: __ZNSt3__123mersenne_twister_engineIjLm32ELm624ELm397ELm31ELj2567483615ELm11ELj4294967295ELm7ELj2636928640ELm15ELj4022730752ELm18ELj1812433253EE8__rshiftB8ne190107ILm30ETnNS_9enable_ifIXltT_L_ZNS1_3_DtEEEiE4typeELi0EEEjj, symObjAddr: 0x11138, symBinAddr: 0x10001523C, symSize: 0x0 }
  - { offset: 0x1BF13, size: 0x8, addend: 0x0, symName: __ZNSt3__112basic_stringIcNS_11char_traitsIcEENS_9allocatorIcEEEC2B8ne190107Ev, symObjAddr: 0x11188, symBinAddr: 0x10001528C, symSize: 0x240 }
  - { offset: 0x1BF44, size: 0x8, addend: 0x0, symName: __ZNSt3__117__compressed_pairINS_12basic_stringIcNS_11char_traitsIcEENS_9allocatorIcEEE5__repES5_EC1B8ne190107INS_16__value_init_tagENS_18__default_init_tagEEEOT_OT0_, symObjAddr: 0x113C8, symBinAddr: 0x1000154CC, symSize: 0x74 }
  - { offset: 0x1BF9C, size: 0x8, addend: 0x0, symName: __ZNKSt3__112basic_stringIcNS_11char_traitsIcEENS_9allocatorIcEEE14__annotate_newB8ne190107Em, symObjAddr: 0x1144C, symBinAddr: 0x100015550, symSize: 0x58 }
  - { offset: 0x1BFD1, size: 0x8, addend: 0x0, symName: __ZNSt3__117__compressed_pairINS_12basic_stringIcNS_11char_traitsIcEENS_9allocatorIcEEE5__repES5_EC2B8ne190107INS_16__value_init_tagENS_18__default_init_tagEEEOT_OT0_, symObjAddr: 0x114A4, symBinAddr: 0x1000155A8, symSize: 0xC8 }
  - { offset: 0x1C029, size: 0x8, addend: 0x0, symName: __ZNSt3__122__compressed_pair_elemINS_12basic_stringIcNS_11char_traitsIcEENS_9allocatorIcEEE5__repELi0ELb0EEC2B8ne190107ENS_16__value_init_tagE, symObjAddr: 0x1156C, symBinAddr: 0x100015670, symSize: 0x6C }
  - { offset: 0x1C05D, size: 0x8, addend: 0x0, symName: __ZNSt3__16vectorINS_12basic_stringIcNS_11char_traitsIcEENS_9allocatorIcEEEENS4_IS6_EEEC2B8ne190107Ev, symObjAddr: 0x115D8, symBinAddr: 0x1000156DC, symSize: 0x2C4 }
  - { offset: 0x1C08E, size: 0x8, addend: 0x0, symName: __ZNSt3__117__compressed_pairIPNS_12basic_stringIcNS_11char_traitsIcEENS_9allocatorIcEEEENS4_IS6_EEEC1B8ne190107IDnNS_18__default_init_tagEEEOT_OT0_, symObjAddr: 0x1189C, symBinAddr: 0x1000159A0, symSize: 0x74 }
  - { offset: 0x1C0E6, size: 0x8, addend: 0x0, symName: __ZNSt3__117__compressed_pairIPNS_12basic_stringIcNS_11char_traitsIcEENS_9allocatorIcEEEENS4_IS6_EEEC2B8ne190107IDnNS_18__default_init_tagEEEOT_OT0_, symObjAddr: 0x11910, symBinAddr: 0x100015A14, symSize: 0x104 }
  - { offset: 0x1C13E, size: 0x8, addend: 0x0, symName: __ZNSt3__122__compressed_pair_elemIPNS_12basic_stringIcNS_11char_traitsIcEENS_9allocatorIcEEEELi0ELb0EEC2B8ne190107IDnTnNS_9enable_ifIXntsr7is_sameIS8_u7__decayIT_EEE5valueEiE4typeELi0EEEOSB_, symObjAddr: 0x11A14, symBinAddr: 0x100015B18, symSize: 0xAC }
  - { offset: 0x1C185, size: 0x8, addend: 0x0, symName: __ZNSt3__122__compressed_pair_elemINS_9allocatorINS_12basic_stringIcNS_11char_traitsIcEENS1_IcEEEEEELi1ELb1EEC2B8ne190107ENS_18__default_init_tagE, symObjAddr: 0x11AC0, symBinAddr: 0x100015BC4, symSize: 0x70 }
  - { offset: 0x1C1B9, size: 0x8, addend: 0x0, symName: __ZNSt3__19allocatorINS_12basic_stringIcNS_11char_traitsIcEENS0_IcEEEEEC2B8ne190107Ev, symObjAddr: 0x11B30, symBinAddr: 0x100015C34, symSize: 0x70 }
  - { offset: 0x1C1E3, size: 0x8, addend: 0x0, symName: __ZNSt3__116__non_trivial_ifILb1ENS_9allocatorINS_12basic_stringIcNS_11char_traitsIcEENS1_IcEEEEEEEC2B8ne190107Ev, symObjAddr: 0x11BA0, symBinAddr: 0x100015CA4, symSize: 0x48 }
  - { offset: 0x1C20D, size: 0x8, addend: 0x0, symName: __ZNSt3__16vectorINS_12basic_stringIcNS_11char_traitsIcEENS_9allocatorIcEEEENS4_IS6_EEE9__end_capB8ne190107Ev, symObjAddr: 0x11BE8, symBinAddr: 0x100015CEC, symSize: 0xD8 }
  - { offset: 0x1C233, size: 0x8, addend: 0x0, symName: __ZNSt3__16vectorINS_12basic_stringIcNS_11char_traitsIcEENS_9allocatorIcEEEENS4_IS6_EEE22__construct_one_at_endB8ne190107IJRKS6_EEEvDpOT_, symObjAddr: 0x11CC0, symBinAddr: 0x100015DC4, symSize: 0x440 }
  - { offset: 0x1C288, size: 0x8, addend: 0x0, symName: __ZNSt3__16vectorINS_12basic_stringIcNS_11char_traitsIcEENS_9allocatorIcEEEENS4_IS6_EEE21__push_back_slow_pathIRKS6_EEPS6_OT_, symObjAddr: 0x12100, symBinAddr: 0x100016204, symSize: 0x4E4 }
  - { offset: 0x1C2EB, size: 0x8, addend: 0x0, symName: __ZNSt3__117__compressed_pairIPNS_12basic_stringIcNS_11char_traitsIcEENS_9allocatorIcEEEENS4_IS6_EEE5firstB8ne190107Ev, symObjAddr: 0x125E4, symBinAddr: 0x1000166E8, symSize: 0xEC }
  - { offset: 0x1C311, size: 0x8, addend: 0x0, symName: __ZNSt3__122__compressed_pair_elemIPNS_12basic_stringIcNS_11char_traitsIcEENS_9allocatorIcEEEELi0ELb0EE5__getB8ne190107Ev, symObjAddr: 0x126D0, symBinAddr: 0x1000167D4, symSize: 0x8C }
  - { offset: 0x1C355, size: 0x8, addend: 0x0, symName: __ZNSt3__16vectorINS_12basic_stringIcNS_11char_traitsIcEENS_9allocatorIcEEEENS4_IS6_EEE21_ConstructTransactionC1B8ne190107ERS8_m, symObjAddr: 0x1275C, symBinAddr: 0x100016860, symSize: 0x74 }
  - { offset: 0x1C39D, size: 0x8, addend: 0x0, symName: __ZNSt3__116allocator_traitsINS_9allocatorINS_12basic_stringIcNS_11char_traitsIcEENS1_IcEEEEEEE9constructB8ne190107IS6_JRKS6_EvTnNS_9enable_ifIXntsr15__has_constructIS7_PT_DpT0_EE5valueEiE4typeELi0EEEvRS7_SE_DpOSF_, symObjAddr: 0x127D8, symBinAddr: 0x1000168DC, symSize: 0x0 }
  - { offset: 0x1C3F6, size: 0x8, addend: 0x0, symName: __ZNSt3__16vectorINS_12basic_stringIcNS_11char_traitsIcEENS_9allocatorIcEEEENS4_IS6_EEE7__allocB8ne190107Ev, symObjAddr: 0x12848, symBinAddr: 0x10001694C, symSize: 0xC4 }
  - { offset: 0x1C41C, size: 0x8, addend: 0x0, symName: __ZNSt3__16vectorINS_12basic_stringIcNS_11char_traitsIcEENS_9allocatorIcEEEENS4_IS6_EEE21_ConstructTransactionD1B8ne190107Ev, symObjAddr: 0x12928, symBinAddr: 0x100016A2C, symSize: 0x64 }
  - { offset: 0x1C446, size: 0x8, addend: 0x0, symName: __ZNSt3__16vectorINS_12basic_stringIcNS_11char_traitsIcEENS_9allocatorIcEEEENS4_IS6_EEE21_ConstructTransactionC2B8ne190107ERS8_m, symObjAddr: 0x1298C, symBinAddr: 0x100016A90, symSize: 0x354 }
  - { offset: 0x1C48E, size: 0x8, addend: 0x0, symName: __ZNKSt3__16vectorINS_12basic_stringIcNS_11char_traitsIcEENS_9allocatorIcEEEENS4_IS6_EEE19__annotate_increaseB8ne190107Em, symObjAddr: 0x12CE0, symBinAddr: 0x100016DE4, symSize: 0x2C8 }
  - { offset: 0x1C4C3, size: 0x8, addend: 0x0, symName: __ZNKSt3__16vectorINS_12basic_stringIcNS_11char_traitsIcEENS_9allocatorIcEEEENS4_IS6_EEE31__annotate_contiguous_containerB8ne190107EPKvSA_, symObjAddr: 0x12FA8, symBinAddr: 0x1000170AC, symSize: 0x14C }
  - { offset: 0x1C507, size: 0x8, addend: 0x0, symName: __ZNKSt3__16vectorINS_12basic_stringIcNS_11char_traitsIcEENS_9allocatorIcEEEENS4_IS6_EEE4dataB8ne190107Ev, symObjAddr: 0x130F4, symBinAddr: 0x1000171F8, symSize: 0xA0 }
  - { offset: 0x1C52D, size: 0x8, addend: 0x0, symName: __ZNKSt3__16vectorINS_12basic_stringIcNS_11char_traitsIcEENS_9allocatorIcEEEENS4_IS6_EEE8capacityB8ne190107Ev, symObjAddr: 0x131E8, symBinAddr: 0x1000172EC, symSize: 0x124 }
  - { offset: 0x1C553, size: 0x8, addend: 0x0, symName: __ZNKSt3__16vectorINS_12basic_stringIcNS_11char_traitsIcEENS_9allocatorIcEEEENS4_IS6_EEE9__end_capB8ne190107Ev, symObjAddr: 0x1330C, symBinAddr: 0x100017410, symSize: 0xD8 }
  - { offset: 0x1C579, size: 0x8, addend: 0x0, symName: __ZNKSt3__117__compressed_pairIPNS_12basic_stringIcNS_11char_traitsIcEENS_9allocatorIcEEEENS4_IS6_EEE5firstB8ne190107Ev, symObjAddr: 0x133E4, symBinAddr: 0x1000174E8, symSize: 0xEC }
  - { offset: 0x1C59F, size: 0x8, addend: 0x0, symName: __ZNKSt3__122__compressed_pair_elemIPNS_12basic_stringIcNS_11char_traitsIcEENS_9allocatorIcEEEELi0ELb0EE5__getB8ne190107Ev, symObjAddr: 0x134D0, symBinAddr: 0x1000175D4, symSize: 0x8C }
  - { offset: 0x1C5C5, size: 0x8, addend: 0x0, symName: __ZNSt3__117__compressed_pairIPNS_12basic_stringIcNS_11char_traitsIcEENS_9allocatorIcEEEENS4_IS6_EEE6secondB8ne190107Ev, symObjAddr: 0x136B8, symBinAddr: 0x1000177BC, symSize: 0xC4 }
  - { offset: 0x1C5EB, size: 0x8, addend: 0x0, symName: __ZNSt3__122__compressed_pair_elemINS_9allocatorINS_12basic_stringIcNS_11char_traitsIcEENS1_IcEEEEEELi1ELb1EE5__getB8ne190107Ev, symObjAddr: 0x1377C, symBinAddr: 0x100017880, symSize: 0x64 }
  - { offset: 0x1C611, size: 0x8, addend: 0x0, symName: __ZNSt3__16vectorINS_12basic_stringIcNS_11char_traitsIcEENS_9allocatorIcEEEENS4_IS6_EEE21_ConstructTransactionD2B8ne190107Ev, symObjAddr: 0x137E0, symBinAddr: 0x1000178E4, symSize: 0x31C }
  - { offset: 0x1C63B, size: 0x8, addend: 0x0, symName: __ZNKSt3__16vectorINS_12basic_stringIcNS_11char_traitsIcEENS_9allocatorIcEEEENS4_IS6_EEE17__annotate_shrinkB8ne190107Em, symObjAddr: 0x13AFC, symBinAddr: 0x100017C00, symSize: 0x200 }
  - { offset: 0x1C670, size: 0x8, addend: 0x0, symName: __ZNKSt3__16vectorINS_12basic_stringIcNS_11char_traitsIcEENS_9allocatorIcEEEENS4_IS6_EEE11__recommendB8ne190107Em, symObjAddr: 0x13CFC, symBinAddr: 0x100017E00, symSize: 0x378 }
  - { offset: 0x1C6CA, size: 0x8, addend: 0x0, symName: __ZNSt3__114__split_bufferINS_12basic_stringIcNS_11char_traitsIcEENS_9allocatorIcEEEERNS4_IS6_EEEC1EmmS8_, symObjAddr: 0x14074, symBinAddr: 0x100018178, symSize: 0x7C }
  - { offset: 0x1C71E, size: 0x8, addend: 0x0, symName: __ZNSt3__16vectorINS_12basic_stringIcNS_11char_traitsIcEENS_9allocatorIcEEEENS4_IS6_EEE26__swap_out_circular_bufferERNS_14__split_bufferIS6_RS7_EE, symObjAddr: 0x140F0, symBinAddr: 0x1000181F4, symSize: 0x660 }
  - { offset: 0x1C762, size: 0x8, addend: 0x0, symName: __ZNSt3__114__split_bufferINS_12basic_stringIcNS_11char_traitsIcEENS_9allocatorIcEEEERNS4_IS6_EEED1Ev, symObjAddr: 0x14750, symBinAddr: 0x100018854, symSize: 0x64 }
  - { offset: 0x1C78C, size: 0x8, addend: 0x0, symName: __ZNKSt3__16vectorINS_12basic_stringIcNS_11char_traitsIcEENS_9allocatorIcEEEENS4_IS6_EEE8max_sizeEv, symObjAddr: 0x147B4, symBinAddr: 0x1000188B8, symSize: 0x2FC }
  - { offset: 0x1C7B3, size: 0x8, addend: 0x0, symName: __ZNKSt3__16vectorINS_12basic_stringIcNS_11char_traitsIcEENS_9allocatorIcEEEENS4_IS6_EEE20__throw_length_errorB8ne190107Ev, symObjAddr: 0x14AB0, symBinAddr: 0x100018BB4, symSize: 0x74 }
  - { offset: 0x1C7E5, size: 0x8, addend: 0x0, symName: __ZNSt3__116allocator_traitsINS_9allocatorINS_12basic_stringIcNS_11char_traitsIcEENS1_IcEEEEEEE8max_sizeB8ne190107IS7_vTnNS_9enable_ifIXntsr14__has_max_sizeIKT_EE5valueEiE4typeELi0EEEmRKS7_, symObjAddr: 0x14CE4, symBinAddr: 0x100018DE8, symSize: 0x0 }
  - { offset: 0x1C815, size: 0x8, addend: 0x0, symName: __ZNKSt3__16vectorINS_12basic_stringIcNS_11char_traitsIcEENS_9allocatorIcEEEENS4_IS6_EEE7__allocB8ne190107Ev, symObjAddr: 0x14D38, symBinAddr: 0x100018E3C, symSize: 0xC4 }
  - { offset: 0x1C83B, size: 0x8, addend: 0x0, symName: __ZNSt3__114numeric_limitsIlE3maxB8ne190107Ev, symObjAddr: 0x14E04, symBinAddr: 0x100018F08, symSize: 0x0 }
  - { offset: 0x1C867, size: 0x8, addend: 0x0, symName: __ZNKSt3__16__lessIvvEclB8ne190107ImmEEbRKT_RKT0_, symObjAddr: 0x15090, symBinAddr: 0x100019194, symSize: 0xD0 }
  - { offset: 0x1C8BB, size: 0x8, addend: 0x0, symName: __ZNSt3__114numeric_limitsImE3maxB8ne190107Ev, symObjAddr: 0x15168, symBinAddr: 0x10001926C, symSize: 0x0 }
  - { offset: 0x1C8CF, size: 0x8, addend: 0x0, symName: __ZNSt3__123__libcpp_numeric_limitsImLb1EE3maxB8ne190107Ev, symObjAddr: 0x15184, symBinAddr: 0x100019288, symSize: 0x0 }
  - { offset: 0x1C8E3, size: 0x8, addend: 0x0, symName: __ZNKSt3__117__compressed_pairIPNS_12basic_stringIcNS_11char_traitsIcEENS_9allocatorIcEEEENS4_IS6_EEE6secondB8ne190107Ev, symObjAddr: 0x1518C, symBinAddr: 0x100019290, symSize: 0xC4 }
  - { offset: 0x1C909, size: 0x8, addend: 0x0, symName: __ZNKSt3__122__compressed_pair_elemINS_9allocatorINS_12basic_stringIcNS_11char_traitsIcEENS1_IcEEEEEELi1ELb1EE5__getB8ne190107Ev, symObjAddr: 0x15250, symBinAddr: 0x100019354, symSize: 0x64 }
  - { offset: 0x1C92F, size: 0x8, addend: 0x0, symName: __ZNSt3__123__libcpp_numeric_limitsIlLb1EE3maxB8ne190107Ev, symObjAddr: 0x152BC, symBinAddr: 0x1000193C0, symSize: 0x0 }
  - { offset: 0x1C943, size: 0x8, addend: 0x0, symName: __ZNSt12length_errorC1B8ne190107EPKc, symObjAddr: 0x15370, symBinAddr: 0x100019474, symSize: 0x6C }
  - { offset: 0x1C97B, size: 0x8, addend: 0x0, symName: __ZNSt12length_errorC2B8ne190107EPKc, symObjAddr: 0x153DC, symBinAddr: 0x1000194E0, symSize: 0x108 }
  - { offset: 0x1C9B3, size: 0x8, addend: 0x0, symName: __ZNSt3__114__split_bufferINS_12basic_stringIcNS_11char_traitsIcEENS_9allocatorIcEEEERNS4_IS6_EEEC2EmmS8_, symObjAddr: 0x1575C, symBinAddr: 0x100019860, symSize: 0x630 }
  - { offset: 0x1CA2C, size: 0x8, addend: 0x0, symName: __ZNSt3__117__compressed_pairIPNS_12basic_stringIcNS_11char_traitsIcEENS_9allocatorIcEEEERNS4_IS6_EEEC1B8ne190107IDnS9_EEOT_OT0_, symObjAddr: 0x15D8C, symBinAddr: 0x100019E90, symSize: 0x74 }
  - { offset: 0x1CA84, size: 0x8, addend: 0x0, symName: __ZNSt3__114__split_bufferINS_12basic_stringIcNS_11char_traitsIcEENS_9allocatorIcEEEERNS4_IS6_EEE7__allocB8ne190107Ev, symObjAddr: 0x15E48, symBinAddr: 0x100019F4C, symSize: 0xC4 }
  - { offset: 0x1CAAA, size: 0x8, addend: 0x0, symName: __ZNSt3__114__split_bufferINS_12basic_stringIcNS_11char_traitsIcEENS_9allocatorIcEEEERNS4_IS6_EEE9__end_capB8ne190107Ev, symObjAddr: 0x15F0C, symBinAddr: 0x10001A010, symSize: 0xD8 }
  - { offset: 0x1CAD0, size: 0x8, addend: 0x0, symName: __ZNSt3__117__compressed_pairIPNS_12basic_stringIcNS_11char_traitsIcEENS_9allocatorIcEEEERNS4_IS6_EEEC2B8ne190107IDnS9_EEOT_OT0_, symObjAddr: 0x15FE4, symBinAddr: 0x10001A0E8, symSize: 0x154 }
  - { offset: 0x1CB28, size: 0x8, addend: 0x0, symName: __ZNSt3__122__compressed_pair_elemIRNS_9allocatorINS_12basic_stringIcNS_11char_traitsIcEENS1_IcEEEEEELi1ELb0EEC2B8ne190107IS8_TnNS_9enable_ifIXntsr7is_sameIS9_u7__decayIT_EEE5valueEiE4typeELi0EEEOSC_, symObjAddr: 0x16138, symBinAddr: 0x10001A23C, symSize: 0xD4 }
  - { offset: 0x1CB6F, size: 0x8, addend: 0x0, symName: __ZNSt3__19allocatorINS_12basic_stringIcNS_11char_traitsIcEENS0_IcEEEEE8allocateB8ne190107Em, symObjAddr: 0x1620C, symBinAddr: 0x10001A310, symSize: 0xBC }
  - { offset: 0x1CBA3, size: 0x8, addend: 0x0, symName: __ZNSt3__117__compressed_pairIPNS_12basic_stringIcNS_11char_traitsIcEENS_9allocatorIcEEEERNS4_IS6_EEE6secondB8ne190107Ev, symObjAddr: 0x16464, symBinAddr: 0x10001A568, symSize: 0xE8 }
  - { offset: 0x1CBC9, size: 0x8, addend: 0x0, symName: __ZNSt3__122__compressed_pair_elemIRNS_9allocatorINS_12basic_stringIcNS_11char_traitsIcEENS1_IcEEEEEELi1ELb0EE5__getB8ne190107Ev, symObjAddr: 0x1654C, symBinAddr: 0x10001A650, symSize: 0xC0 }
  - { offset: 0x1CBEF, size: 0x8, addend: 0x0, symName: __ZNSt3__117__compressed_pairIPNS_12basic_stringIcNS_11char_traitsIcEENS_9allocatorIcEEEERNS4_IS6_EEE5firstB8ne190107Ev, symObjAddr: 0x1660C, symBinAddr: 0x10001A710, symSize: 0xEC }
  - { offset: 0x1CC15, size: 0x8, addend: 0x0, symName: __ZNKSt3__16vectorINS_12basic_stringIcNS_11char_traitsIcEENS_9allocatorIcEEEENS4_IS6_EEE17__annotate_deleteB8ne190107Ev, symObjAddr: 0x166F8, symBinAddr: 0x10001A7FC, symSize: 0x210 }
  - { offset: 0x1CC3B, size: 0x8, addend: 0x0, symName: __ZNKSt3__16vectorINS_12basic_stringIcNS_11char_traitsIcEENS_9allocatorIcEEEENS4_IS6_EEE14__annotate_newB8ne190107Em, symObjAddr: 0x16B50, symBinAddr: 0x10001AC54, symSize: 0x200 }
  - { offset: 0x1CC70, size: 0x8, addend: 0x0, symName: __ZNSt3__114__split_bufferINS_12basic_stringIcNS_11char_traitsIcEENS_9allocatorIcEEEERNS4_IS6_EEED2Ev, symObjAddr: 0x16D50, symBinAddr: 0x10001AE54, symSize: 0x144 }
  - { offset: 0x1CC9A, size: 0x8, addend: 0x0, symName: __ZNSt3__114__split_bufferINS_12basic_stringIcNS_11char_traitsIcEENS_9allocatorIcEEEERNS4_IS6_EEE5clearB8ne190107Ev, symObjAddr: 0x16E94, symBinAddr: 0x10001AF98, symSize: 0xA4 }
  - { offset: 0x1CCC0, size: 0x8, addend: 0x0, symName: __ZNSt3__116allocator_traitsINS_9allocatorINS_12basic_stringIcNS_11char_traitsIcEENS1_IcEEEEEEE10deallocateB8ne190107ERS7_PS6_m, symObjAddr: 0x16F40, symBinAddr: 0x10001B044, symSize: 0x0 }
  - { offset: 0x1CD02, size: 0x8, addend: 0x0, symName: __ZNKSt3__114__split_bufferINS_12basic_stringIcNS_11char_traitsIcEENS_9allocatorIcEEEERNS4_IS6_EEE8capacityB8ne190107Ev, symObjAddr: 0x16F74, symBinAddr: 0x10001B078, symSize: 0x124 }
  - { offset: 0x1CD28, size: 0x8, addend: 0x0, symName: __ZNSt3__114__split_bufferINS_12basic_stringIcNS_11char_traitsIcEENS_9allocatorIcEEEERNS4_IS6_EEE17__destruct_at_endB8ne190107EPS6_, symObjAddr: 0x17098, symBinAddr: 0x10001B19C, symSize: 0x64 }
  - { offset: 0x1CD5C, size: 0x8, addend: 0x0, symName: __ZNSt3__114__split_bufferINS_12basic_stringIcNS_11char_traitsIcEENS_9allocatorIcEEEERNS4_IS6_EEE17__destruct_at_endB8ne190107EPS6_NS_17integral_constantIbLb0EEE, symObjAddr: 0x170FC, symBinAddr: 0x10001B200, symSize: 0x1E8 }
  - { offset: 0x1CD9A, size: 0x8, addend: 0x0, symName: __ZNSt3__116allocator_traitsINS_9allocatorINS_12basic_stringIcNS_11char_traitsIcEENS1_IcEEEEEEE7destroyB8ne190107IS6_vTnNS_9enable_ifIXntsr13__has_destroyIS7_PT_EE5valueEiE4typeELi0EEEvRS7_SC_, symObjAddr: 0x172EC, symBinAddr: 0x10001B3F0, symSize: 0x0 }
  - { offset: 0x1CDD9, size: 0x8, addend: 0x0, symName: __ZNSt3__19allocatorINS_12basic_stringIcNS_11char_traitsIcEENS0_IcEEEEE10deallocateB8ne190107EPS5_m, symObjAddr: 0x17378, symBinAddr: 0x10001B47C, symSize: 0x74 }
  - { offset: 0x1CE1B, size: 0x8, addend: 0x0, symName: __ZNKSt3__114__split_bufferINS_12basic_stringIcNS_11char_traitsIcEENS_9allocatorIcEEEERNS4_IS6_EEE9__end_capB8ne190107Ev, symObjAddr: 0x17534, symBinAddr: 0x10001B638, symSize: 0xD8 }
  - { offset: 0x1CE41, size: 0x8, addend: 0x0, symName: __ZNKSt3__117__compressed_pairIPNS_12basic_stringIcNS_11char_traitsIcEENS_9allocatorIcEEEERNS4_IS6_EEE5firstB8ne190107Ev, symObjAddr: 0x1760C, symBinAddr: 0x10001B710, symSize: 0xEC }
  - { offset: 0x1CE67, size: 0x8, addend: 0x0, symName: __ZNSt3__16vectorIiNS_9allocatorIiEEEC2B8ne190107Ev, symObjAddr: 0x176F8, symBinAddr: 0x10001B7FC, symSize: 0x2C4 }
  - { offset: 0x1CE92, size: 0x8, addend: 0x0, symName: __ZNSt3__117__compressed_pairIPiNS_9allocatorIiEEEC1B8ne190107IDnNS_18__default_init_tagEEEOT_OT0_, symObjAddr: 0x179BC, symBinAddr: 0x10001BAC0, symSize: 0x74 }
  - { offset: 0x1CEEA, size: 0x8, addend: 0x0, symName: __ZNSt3__117__compressed_pairIPiNS_9allocatorIiEEEC2B8ne190107IDnNS_18__default_init_tagEEEOT_OT0_, symObjAddr: 0x17A30, symBinAddr: 0x10001BB34, symSize: 0x104 }
  - { offset: 0x1CF42, size: 0x8, addend: 0x0, symName: __ZNSt3__122__compressed_pair_elemIPiLi0ELb0EEC2B8ne190107IDnTnNS_9enable_ifIXntsr7is_sameIS2_u7__decayIT_EEE5valueEiE4typeELi0EEEOS5_, symObjAddr: 0x17B34, symBinAddr: 0x10001BC38, symSize: 0xAC }
  - { offset: 0x1CF89, size: 0x8, addend: 0x0, symName: __ZNSt3__122__compressed_pair_elemINS_9allocatorIiEELi1ELb1EEC2B8ne190107ENS_18__default_init_tagE, symObjAddr: 0x17BE0, symBinAddr: 0x10001BCE4, symSize: 0x70 }
  - { offset: 0x1CFBD, size: 0x8, addend: 0x0, symName: __ZNSt3__19allocatorIiEC2B8ne190107Ev, symObjAddr: 0x17C50, symBinAddr: 0x10001BD54, symSize: 0x70 }
  - { offset: 0x1CFE7, size: 0x8, addend: 0x0, symName: __ZNSt3__116__non_trivial_ifILb1ENS_9allocatorIiEEEC2B8ne190107Ev, symObjAddr: 0x17CC0, symBinAddr: 0x10001BDC4, symSize: 0x48 }
  - { offset: 0x1D017, size: 0x8, addend: 0x0, symName: __ZNSt3__16vectorINS_12basic_stringIcNS_11char_traitsIcEENS_9allocatorIcEEEENS4_IS6_EEE22__construct_one_at_endB8ne190107IJS6_EEEvDpOT_, symObjAddr: 0x17D08, symBinAddr: 0x10001BE0C, symSize: 0x440 }
  - { offset: 0x1D06C, size: 0x8, addend: 0x0, symName: __ZNSt3__16vectorINS_12basic_stringIcNS_11char_traitsIcEENS_9allocatorIcEEEENS4_IS6_EEE21__push_back_slow_pathIS6_EEPS6_OT_, symObjAddr: 0x18148, symBinAddr: 0x10001C24C, symSize: 0x4E4 }
  - { offset: 0x1D0CF, size: 0x8, addend: 0x0, symName: __ZNSt3__116allocator_traitsINS_9allocatorINS_12basic_stringIcNS_11char_traitsIcEENS1_IcEEEEEEE9constructB8ne190107IS6_JS6_EvTnNS_9enable_ifIXntsr15__has_constructIS7_PT_DpT0_EE5valueEiE4typeELi0EEEvRS7_SC_DpOSD_, symObjAddr: 0x18634, symBinAddr: 0x10001C738, symSize: 0x0 }
  - { offset: 0x1D128, size: 0x8, addend: 0x0, symName: __ZNSt3__112basic_stringIcNS_11char_traitsIcEENS_9allocatorIcEEEC1B8ne190107EOS5_, symObjAddr: 0x18800, symBinAddr: 0x10001C904, symSize: 0x6C }
  - { offset: 0x1D161, size: 0x8, addend: 0x0, symName: __ZNSt3__112basic_stringIcNS_11char_traitsIcEENS_9allocatorIcEEEC2B8ne190107EOS5_, symObjAddr: 0x1886C, symBinAddr: 0x10001C970, symSize: 0x334 }
  - { offset: 0x1D1CF, size: 0x8, addend: 0x0, symName: __ZZNSt3__112basic_stringIcNS_11char_traitsIcEENS_9allocatorIcEEEC1B8ne190107EOS5_ENKUlRS5_E_clES7_, symObjAddr: 0x18BA0, symBinAddr: 0x10001CCA4, symSize: 0xE8 }
  - { offset: 0x1D208, size: 0x8, addend: 0x0, symName: __ZNSt3__117__compressed_pairINS_12basic_stringIcNS_11char_traitsIcEENS_9allocatorIcEEE5__repES5_E5firstB8ne190107Ev, symObjAddr: 0x18C88, symBinAddr: 0x10001CD8C, symSize: 0xEC }
  - { offset: 0x1D22E, size: 0x8, addend: 0x0, symName: __ZNKSt3__112basic_stringIcNS_11char_traitsIcEENS_9allocatorIcEEE9__is_longB8ne190107Ev, symObjAddr: 0x18D74, symBinAddr: 0x10001CE78, symSize: 0x178 }
  - { offset: 0x1D254, size: 0x8, addend: 0x0, symName: __ZNKSt3__112basic_stringIcNS_11char_traitsIcEENS_9allocatorIcEEE17__annotate_deleteB8ne190107Ev, symObjAddr: 0x18EEC, symBinAddr: 0x10001CFF0, symSize: 0x54 }
  - { offset: 0x1D27A, size: 0x8, addend: 0x0, symName: __ZNSt3__122__compressed_pair_elemINS_12basic_stringIcNS_11char_traitsIcEENS_9allocatorIcEEE5__repELi0ELb0EE5__getB8ne190107Ev, symObjAddr: 0x18F40, symBinAddr: 0x10001D044, symSize: 0x8C }
  - { offset: 0x1D2A0, size: 0x8, addend: 0x0, symName: __ZNKSt3__117__compressed_pairINS_12basic_stringIcNS_11char_traitsIcEENS_9allocatorIcEEE5__repES5_E5firstB8ne190107Ev, symObjAddr: 0x18FCC, symBinAddr: 0x10001D0D0, symSize: 0xEC }
  - { offset: 0x1D2C6, size: 0x8, addend: 0x0, symName: __ZNKSt3__122__compressed_pair_elemINS_12basic_stringIcNS_11char_traitsIcEENS_9allocatorIcEEE5__repELi0ELb0EE5__getB8ne190107Ev, symObjAddr: 0x190B8, symBinAddr: 0x10001D1BC, symSize: 0x8C }
  - { offset: 0x1D2EC, size: 0x8, addend: 0x0, symName: __ZNSt3__19allocatorIcEC1B8ne190107Ev, symObjAddr: 0x19144, symBinAddr: 0x10001D248, symSize: 0x50 }
  - { offset: 0x1D316, size: 0x8, addend: 0x0, symName: __ZNSt3__16vectorIiNS_9allocatorIiEEE9__end_capB8ne190107Ev, symObjAddr: 0x19194, symBinAddr: 0x10001D298, symSize: 0xD8 }
  - { offset: 0x1D342, size: 0x8, addend: 0x0, symName: __ZNSt3__16vectorIiNS_9allocatorIiEEE22__construct_one_at_endB8ne190107IJiEEEvDpOT_, symObjAddr: 0x1926C, symBinAddr: 0x10001D370, symSize: 0x440 }
  - { offset: 0x1D397, size: 0x8, addend: 0x0, symName: __ZNSt3__16vectorIiNS_9allocatorIiEEE21__push_back_slow_pathIiEEPiOT_, symObjAddr: 0x196AC, symBinAddr: 0x10001D7B0, symSize: 0x4E4 }
  - { offset: 0x1D3FA, size: 0x8, addend: 0x0, symName: __ZNSt3__117__compressed_pairIPiNS_9allocatorIiEEE5firstB8ne190107Ev, symObjAddr: 0x19B90, symBinAddr: 0x10001DC94, symSize: 0xEC }
  - { offset: 0x1D420, size: 0x8, addend: 0x0, symName: __ZNSt3__122__compressed_pair_elemIPiLi0ELb0EE5__getB8ne190107Ev, symObjAddr: 0x19C7C, symBinAddr: 0x10001DD80, symSize: 0x8C }
  - { offset: 0x1D464, size: 0x8, addend: 0x0, symName: __ZNSt3__16vectorIiNS_9allocatorIiEEE21_ConstructTransactionC1B8ne190107ERS3_m, symObjAddr: 0x19D08, symBinAddr: 0x10001DE0C, symSize: 0x74 }
  - { offset: 0x1D4AC, size: 0x8, addend: 0x0, symName: __ZNSt3__116allocator_traitsINS_9allocatorIiEEE9constructB8ne190107IiJiEvTnNS_9enable_ifIXntsr15__has_constructIS2_PT_DpT0_EE5valueEiE4typeELi0EEEvRS2_S7_DpOS8_, symObjAddr: 0x19D84, symBinAddr: 0x10001DE88, symSize: 0x0 }
  - { offset: 0x1D505, size: 0x8, addend: 0x0, symName: __ZNSt3__16vectorIiNS_9allocatorIiEEE7__allocB8ne190107Ev, symObjAddr: 0x19DF4, symBinAddr: 0x10001DEF8, symSize: 0xC4 }
  - { offset: 0x1D52B, size: 0x8, addend: 0x0, symName: __ZNSt3__16vectorIiNS_9allocatorIiEEE21_ConstructTransactionD1B8ne190107Ev, symObjAddr: 0x19ED4, symBinAddr: 0x10001DFD8, symSize: 0x64 }
  - { offset: 0x1D555, size: 0x8, addend: 0x0, symName: __ZNSt3__16vectorIiNS_9allocatorIiEEE21_ConstructTransactionC2B8ne190107ERS3_m, symObjAddr: 0x19F38, symBinAddr: 0x10001E03C, symSize: 0x34C }
  - { offset: 0x1D59D, size: 0x8, addend: 0x0, symName: __ZNKSt3__16vectorIiNS_9allocatorIiEEE19__annotate_increaseB8ne190107Em, symObjAddr: 0x1A284, symBinAddr: 0x10001E388, symSize: 0x2B0 }
  - { offset: 0x1D5D2, size: 0x8, addend: 0x0, symName: __ZNKSt3__16vectorIiNS_9allocatorIiEEE31__annotate_contiguous_containerB8ne190107EPKvS5_, symObjAddr: 0x1A534, symBinAddr: 0x10001E638, symSize: 0x144 }
  - { offset: 0x1D616, size: 0x8, addend: 0x0, symName: __ZNKSt3__16vectorIiNS_9allocatorIiEEE4dataB8ne190107Ev, symObjAddr: 0x1A678, symBinAddr: 0x10001E77C, symSize: 0xA0 }
  - { offset: 0x1D63C, size: 0x8, addend: 0x0, symName: __ZNKSt3__16vectorIiNS_9allocatorIiEEE4sizeB8ne190107Ev, symObjAddr: 0x1A718, symBinAddr: 0x10001E81C, symSize: 0xE0 }
  - { offset: 0x1D662, size: 0x8, addend: 0x0, symName: __ZNKSt3__16vectorIiNS_9allocatorIiEEE8capacityB8ne190107Ev, symObjAddr: 0x1A84C, symBinAddr: 0x10001E950, symSize: 0x124 }
  - { offset: 0x1D688, size: 0x8, addend: 0x0, symName: __ZNKSt3__16vectorIiNS_9allocatorIiEEE9__end_capB8ne190107Ev, symObjAddr: 0x1A970, symBinAddr: 0x10001EA74, symSize: 0xD8 }
  - { offset: 0x1D6AE, size: 0x8, addend: 0x0, symName: __ZNKSt3__117__compressed_pairIPiNS_9allocatorIiEEE5firstB8ne190107Ev, symObjAddr: 0x1AA48, symBinAddr: 0x10001EB4C, symSize: 0xEC }
  - { offset: 0x1D6D4, size: 0x8, addend: 0x0, symName: __ZNKSt3__122__compressed_pair_elemIPiLi0ELb0EE5__getB8ne190107Ev, symObjAddr: 0x1AB34, symBinAddr: 0x10001EC38, symSize: 0x8C }
  - { offset: 0x1D6FA, size: 0x8, addend: 0x0, symName: __ZNSt3__117__compressed_pairIPiNS_9allocatorIiEEE6secondB8ne190107Ev, symObjAddr: 0x1ADDC, symBinAddr: 0x10001EEE0, symSize: 0xC4 }
  - { offset: 0x1D720, size: 0x8, addend: 0x0, symName: __ZNSt3__122__compressed_pair_elemINS_9allocatorIiEELi1ELb1EE5__getB8ne190107Ev, symObjAddr: 0x1AEA0, symBinAddr: 0x10001EFA4, symSize: 0x64 }
  - { offset: 0x1D746, size: 0x8, addend: 0x0, symName: __ZNSt3__16vectorIiNS_9allocatorIiEEE21_ConstructTransactionD2B8ne190107Ev, symObjAddr: 0x1AF04, symBinAddr: 0x10001F008, symSize: 0x31C }
  - { offset: 0x1D770, size: 0x8, addend: 0x0, symName: __ZNKSt3__16vectorIiNS_9allocatorIiEEE17__annotate_shrinkB8ne190107Em, symObjAddr: 0x1B220, symBinAddr: 0x10001F324, symSize: 0x1F0 }
  - { offset: 0x1D7A5, size: 0x8, addend: 0x0, symName: __ZNKSt3__16vectorIiNS_9allocatorIiEEE11__recommendB8ne190107Em, symObjAddr: 0x1B410, symBinAddr: 0x10001F514, symSize: 0x378 }
  - { offset: 0x1D7FF, size: 0x8, addend: 0x0, symName: __ZNSt3__114__split_bufferIiRNS_9allocatorIiEEEC1EmmS3_, symObjAddr: 0x1B788, symBinAddr: 0x10001F88C, symSize: 0x7C }
  - { offset: 0x1D853, size: 0x8, addend: 0x0, symName: __ZNSt3__16vectorIiNS_9allocatorIiEEE26__swap_out_circular_bufferERNS_14__split_bufferIiRS2_EE, symObjAddr: 0x1B804, symBinAddr: 0x10001F908, symSize: 0x658 }
  - { offset: 0x1D897, size: 0x8, addend: 0x0, symName: __ZNSt3__114__split_bufferIiRNS_9allocatorIiEEED1Ev, symObjAddr: 0x1BE5C, symBinAddr: 0x10001FF60, symSize: 0x64 }
  - { offset: 0x1D8C1, size: 0x8, addend: 0x0, symName: __ZNKSt3__16vectorIiNS_9allocatorIiEEE8max_sizeEv, symObjAddr: 0x1BEC0, symBinAddr: 0x10001FFC4, symSize: 0x2FC }
  - { offset: 0x1D8E8, size: 0x8, addend: 0x0, symName: __ZNKSt3__16vectorIiNS_9allocatorIiEEE20__throw_length_errorB8ne190107Ev, symObjAddr: 0x1C1BC, symBinAddr: 0x1000202C0, symSize: 0x74 }
  - { offset: 0x1D91A, size: 0x8, addend: 0x0, symName: __ZNSt3__116allocator_traitsINS_9allocatorIiEEE8max_sizeB8ne190107IS2_vTnNS_9enable_ifIXntsr14__has_max_sizeIKT_EE5valueEiE4typeELi0EEEmRKS2_, symObjAddr: 0x1C238, symBinAddr: 0x10002033C, symSize: 0x0 }
  - { offset: 0x1D94A, size: 0x8, addend: 0x0, symName: __ZNKSt3__16vectorIiNS_9allocatorIiEEE7__allocB8ne190107Ev, symObjAddr: 0x1C28C, symBinAddr: 0x100020390, symSize: 0xC4 }
  - { offset: 0x1D970, size: 0x8, addend: 0x0, symName: __ZNKSt3__117__compressed_pairIPiNS_9allocatorIiEEE6secondB8ne190107Ev, symObjAddr: 0x1C350, symBinAddr: 0x100020454, symSize: 0xC4 }
  - { offset: 0x1D996, size: 0x8, addend: 0x0, symName: __ZNKSt3__122__compressed_pair_elemINS_9allocatorIiEELi1ELb1EE5__getB8ne190107Ev, symObjAddr: 0x1C414, symBinAddr: 0x100020518, symSize: 0x64 }
  - { offset: 0x1D9BC, size: 0x8, addend: 0x0, symName: __ZNSt3__114__split_bufferIiRNS_9allocatorIiEEEC2EmmS3_, symObjAddr: 0x1C478, symBinAddr: 0x10002057C, symSize: 0x620 }
  - { offset: 0x1DA35, size: 0x8, addend: 0x0, symName: __ZNSt3__117__compressed_pairIPiRNS_9allocatorIiEEEC1B8ne190107IDnS4_EEOT_OT0_, symObjAddr: 0x1CA98, symBinAddr: 0x100020B9C, symSize: 0x74 }
  - { offset: 0x1DA8D, size: 0x8, addend: 0x0, symName: __ZNSt3__114__split_bufferIiRNS_9allocatorIiEEE7__allocB8ne190107Ev, symObjAddr: 0x1CB54, symBinAddr: 0x100020C58, symSize: 0xC4 }
  - { offset: 0x1DAB3, size: 0x8, addend: 0x0, symName: __ZNSt3__114__split_bufferIiRNS_9allocatorIiEEE9__end_capB8ne190107Ev, symObjAddr: 0x1CC18, symBinAddr: 0x100020D1C, symSize: 0xD8 }
  - { offset: 0x1DAD9, size: 0x8, addend: 0x0, symName: __ZNSt3__117__compressed_pairIPiRNS_9allocatorIiEEEC2B8ne190107IDnS4_EEOT_OT0_, symObjAddr: 0x1CCF0, symBinAddr: 0x100020DF4, symSize: 0x154 }
  - { offset: 0x1DB31, size: 0x8, addend: 0x0, symName: __ZNSt3__122__compressed_pair_elemIRNS_9allocatorIiEELi1ELb0EEC2B8ne190107IS3_TnNS_9enable_ifIXntsr7is_sameIS4_u7__decayIT_EEE5valueEiE4typeELi0EEEOS7_, symObjAddr: 0x1CE44, symBinAddr: 0x100020F48, symSize: 0xD4 }
  - { offset: 0x1DB78, size: 0x8, addend: 0x0, symName: __ZNSt3__19allocatorIiE8allocateB8ne190107Em, symObjAddr: 0x1CF18, symBinAddr: 0x10002101C, symSize: 0xB8 }
  - { offset: 0x1DBAC, size: 0x8, addend: 0x0, symName: __ZNSt3__117__compressed_pairIPiRNS_9allocatorIiEEE6secondB8ne190107Ev, symObjAddr: 0x1CFD0, symBinAddr: 0x1000210D4, symSize: 0xE8 }
  - { offset: 0x1DBD2, size: 0x8, addend: 0x0, symName: __ZNSt3__122__compressed_pair_elemIRNS_9allocatorIiEELi1ELb0EE5__getB8ne190107Ev, symObjAddr: 0x1D0B8, symBinAddr: 0x1000211BC, symSize: 0xC0 }
  - { offset: 0x1DBF8, size: 0x8, addend: 0x0, symName: __ZNSt3__117__compressed_pairIPiRNS_9allocatorIiEEE5firstB8ne190107Ev, symObjAddr: 0x1D178, symBinAddr: 0x10002127C, symSize: 0xEC }
  - { offset: 0x1DC1E, size: 0x8, addend: 0x0, symName: __ZNKSt3__16vectorIiNS_9allocatorIiEEE17__annotate_deleteB8ne190107Ev, symObjAddr: 0x1D264, symBinAddr: 0x100021368, symSize: 0x200 }
  - { offset: 0x1DC44, size: 0x8, addend: 0x0, symName: __ZNKSt3__16vectorIiNS_9allocatorIiEEE14__annotate_newB8ne190107Em, symObjAddr: 0x1D6AC, symBinAddr: 0x1000217B0, symSize: 0x1F0 }
  - { offset: 0x1DC79, size: 0x8, addend: 0x0, symName: __ZNSt3__114__split_bufferIiRNS_9allocatorIiEEED2Ev, symObjAddr: 0x1D89C, symBinAddr: 0x1000219A0, symSize: 0x144 }
  - { offset: 0x1DCA3, size: 0x8, addend: 0x0, symName: __ZNSt3__114__split_bufferIiRNS_9allocatorIiEEE5clearB8ne190107Ev, symObjAddr: 0x1D9E0, symBinAddr: 0x100021AE4, symSize: 0xA4 }
  - { offset: 0x1DCC9, size: 0x8, addend: 0x0, symName: __ZNSt3__116allocator_traitsINS_9allocatorIiEEE10deallocateB8ne190107ERS2_Pim, symObjAddr: 0x1DA8C, symBinAddr: 0x100021B90, symSize: 0x0 }
  - { offset: 0x1DD0B, size: 0x8, addend: 0x0, symName: __ZNKSt3__114__split_bufferIiRNS_9allocatorIiEEE8capacityB8ne190107Ev, symObjAddr: 0x1DAC0, symBinAddr: 0x100021BC4, symSize: 0x124 }
  - { offset: 0x1DD31, size: 0x8, addend: 0x0, symName: __ZNSt3__114__split_bufferIiRNS_9allocatorIiEEE17__destruct_at_endB8ne190107EPi, symObjAddr: 0x1DBE4, symBinAddr: 0x100021CE8, symSize: 0x64 }
  - { offset: 0x1DD65, size: 0x8, addend: 0x0, symName: __ZNSt3__114__split_bufferIiRNS_9allocatorIiEEE17__destruct_at_endB8ne190107EPiNS_17integral_constantIbLb0EEE, symObjAddr: 0x1DC48, symBinAddr: 0x100021D4C, symSize: 0x1E8 }
  - { offset: 0x1DDA3, size: 0x8, addend: 0x0, symName: __ZNSt3__116allocator_traitsINS_9allocatorIiEEE7destroyB8ne190107IivTnNS_9enable_ifIXntsr13__has_destroyIS2_PT_EE5valueEiE4typeELi0EEEvRS2_S7_, symObjAddr: 0x1DE38, symBinAddr: 0x100021F3C, symSize: 0x0 }
  - { offset: 0x1DDE2, size: 0x8, addend: 0x0, symName: __ZNSt3__19allocatorIiE10deallocateB8ne190107EPim, symObjAddr: 0x1DE78, symBinAddr: 0x100021F7C, symSize: 0x70 }
  - { offset: 0x1DE24, size: 0x8, addend: 0x0, symName: __ZNKSt3__114__split_bufferIiRNS_9allocatorIiEEE9__end_capB8ne190107Ev, symObjAddr: 0x1DEE8, symBinAddr: 0x100021FEC, symSize: 0xD8 }
  - { offset: 0x1DE4A, size: 0x8, addend: 0x0, symName: __ZNKSt3__117__compressed_pairIPiRNS_9allocatorIiEEE5firstB8ne190107Ev, symObjAddr: 0x1DFC0, symBinAddr: 0x1000220C4, symSize: 0xEC }
  - { offset: 0x1DE70, size: 0x8, addend: 0x0, symName: __ZN14QuadgramScorerC2ERKNSt3__16vectorINS0_12basic_stringIcNS0_11char_traitsIcEENS0_9allocatorIcEEEENS5_IS7_EEEERKNS1_IiNS5_IiEEEE, symObjAddr: 0x1E0AC, symBinAddr: 0x1000221B0, symSize: 0x81C }
  - { offset: 0x1DF7A, size: 0x8, addend: 0x0, symName: __ZNKSt3__16vectorIiNS_9allocatorIiEEE5beginB8ne190107Ev, symObjAddr: 0x1E8C8, symBinAddr: 0x1000229CC, symSize: 0xA8 }
  - { offset: 0x1DFA0, size: 0x8, addend: 0x0, symName: __ZNKSt3__16vectorIiNS_9allocatorIiEEE3endB8ne190107Ev, symObjAddr: 0x1E970, symBinAddr: 0x100022A74, symSize: 0xAC }
  - { offset: 0x1DFC6, size: 0x8, addend: 0x0, symName: __ZNKSt3__111__wrap_iterIPKiEdeB8ne190107Ev, symObjAddr: 0x1EAB4, symBinAddr: 0x100022BB8, symSize: 0xD4 }
  - { offset: 0x1DFEC, size: 0x8, addend: 0x0, symName: __ZNSt3__111__wrap_iterIPKiEppB8ne190107Ev, symObjAddr: 0x1EB88, symBinAddr: 0x100022C8C, symSize: 0x178 }
  - { offset: 0x1E012, size: 0x8, addend: 0x0, symName: __ZNKSt3__16vectorIiNS_9allocatorIiEEE2atEm, symObjAddr: 0x1ED38, symBinAddr: 0x100022E3C, symSize: 0x1C8 }
  - { offset: 0x1E047, size: 0x8, addend: 0x0, symName: __ZN14QuadgramScorer13quadgramIndexERKNSt3__112basic_stringIcNS0_11char_traitsIcEENS0_9allocatorIcEEEE, symObjAddr: 0x1EF08, symBinAddr: 0x10002300C, symSize: 0x0 }
  - { offset: 0x1E0D5, size: 0x8, addend: 0x0, symName: __ZNKSt3__16vectorINS_12basic_stringIcNS_11char_traitsIcEENS_9allocatorIcEEEENS4_IS6_EEE2atEm, symObjAddr: 0x1F27C, symBinAddr: 0x100023380, symSize: 0x1D0 }
  - { offset: 0x1E10A, size: 0x8, addend: 0x0, symName: __ZNKSt3__16vectorIiNS_9allocatorIiEEE11__make_iterB8ne190107EPKi, symObjAddr: 0x1F44C, symBinAddr: 0x100023550, symSize: 0x1E8 }
  - { offset: 0x1E141, size: 0x8, addend: 0x0, symName: __ZNSt3__111__wrap_iterIPKiEC1B8ne190107ES2_, symObjAddr: 0x1F634, symBinAddr: 0x100023738, symSize: 0x6C }
  - { offset: 0x1E179, size: 0x8, addend: 0x0, symName: __ZNSt3__111__wrap_iterIPKiEC2B8ne190107ES2_, symObjAddr: 0x1F6A0, symBinAddr: 0x1000237A4, symSize: 0xB8 }
  - { offset: 0x1E1B1, size: 0x8, addend: 0x0, symName: __ZNKSt3__111__wrap_iterIPKiE4baseB8ne190107Ev, symObjAddr: 0x1F758, symBinAddr: 0x10002385C, symSize: 0x9C }
  - { offset: 0x1E1D7, size: 0x8, addend: 0x0, symName: __ZNKSt3__16vectorIiNS_9allocatorIiEEE20__throw_out_of_rangeB8ne190107Ev, symObjAddr: 0x1F7F4, symBinAddr: 0x1000238F8, symSize: 0x74 }
  - { offset: 0x1E1FD, size: 0x8, addend: 0x0, symName: __ZNSt12out_of_rangeC1B8ne190107EPKc, symObjAddr: 0x1F914, symBinAddr: 0x100023A18, symSize: 0x6C }
  - { offset: 0x1E235, size: 0x8, addend: 0x0, symName: __ZNSt12out_of_rangeC2B8ne190107EPKc, symObjAddr: 0x1F980, symBinAddr: 0x100023A84, symSize: 0x108 }
  - { offset: 0x1E26D, size: 0x8, addend: 0x0, symName: __ZNKSt3__16vectorINS_12basic_stringIcNS_11char_traitsIcEENS_9allocatorIcEEEENS4_IS6_EEE20__throw_out_of_rangeB8ne190107Ev, symObjAddr: 0x1FA88, symBinAddr: 0x100023B8C, symSize: 0x74 }
  - { offset: 0x1E293, size: 0x8, addend: 0x0, symName: __ZNKSt3__112basic_stringIcNS_11char_traitsIcEENS_9allocatorIcEEEcvNS_17basic_string_viewIcS2_EEB8ne190107Ev, symObjAddr: 0x1FD64, symBinAddr: 0x100023E68, symSize: 0x20C }
  - { offset: 0x1E2BA, size: 0x8, addend: 0x0, symName: __ZNSt3__117basic_string_viewIcNS_11char_traitsIcEEEC1B8ne190107EPKc, symObjAddr: 0x1FF70, symBinAddr: 0x100024074, symSize: 0x6C }
  - { offset: 0x1E2F3, size: 0x8, addend: 0x0, symName: __ZNKSt3__117basic_string_viewIcNS_11char_traitsIcEEE4sizeB8ne190107Ev, symObjAddr: 0x1FFDC, symBinAddr: 0x1000240E0, symSize: 0xA0 }
  - { offset: 0x1E319, size: 0x8, addend: 0x0, symName: __ZNKSt3__117basic_string_viewIcNS_11char_traitsIcEEE7compareES3_, symObjAddr: 0x2007C, symBinAddr: 0x100024180, symSize: 0x3C0 }
  - { offset: 0x1E373, size: 0x8, addend: 0x0, symName: __ZNSt3__111char_traitsIcE7compareB8ne190107EPKcS3_m, symObjAddr: 0x20444, symBinAddr: 0x100024548, symSize: 0x0 }
  - { offset: 0x1E3B2, size: 0x8, addend: 0x0, symName: __ZNKSt3__117basic_string_viewIcNS_11char_traitsIcEEE4dataB8ne190107Ev, symObjAddr: 0x20478, symBinAddr: 0x10002457C, symSize: 0x9C }
  - { offset: 0x1E3D8, size: 0x8, addend: 0x0, symName: __ZNKSt3__112basic_stringIcNS_11char_traitsIcEENS_9allocatorIcEEE4dataB8ne190107Ev, symObjAddr: 0x20514, symBinAddr: 0x100024618, symSize: 0x60 }
  - { offset: 0x1E3FE, size: 0x8, addend: 0x0, symName: __ZNSt3__117basic_string_viewIcNS_11char_traitsIcEEEC1B8ne190107EPKcm, symObjAddr: 0x20574, symBinAddr: 0x100024678, symSize: 0x74 }
  - { offset: 0x1E446, size: 0x8, addend: 0x0, symName: __ZNKSt3__112basic_stringIcNS_11char_traitsIcEENS_9allocatorIcEEE13__get_pointerB8ne190107Ev, symObjAddr: 0x20604, symBinAddr: 0x100024708, symSize: 0x88 }
  - { offset: 0x1E46C, size: 0x8, addend: 0x0, symName: __ZNKSt3__112basic_stringIcNS_11char_traitsIcEENS_9allocatorIcEEE18__get_long_pointerB8ne190107Ev, symObjAddr: 0x2068C, symBinAddr: 0x100024790, symSize: 0x184 }
  - { offset: 0x1E492, size: 0x8, addend: 0x0, symName: __ZNKSt3__112basic_stringIcNS_11char_traitsIcEENS_9allocatorIcEEE19__get_short_pointerB8ne190107Ev, symObjAddr: 0x20810, symBinAddr: 0x100024914, symSize: 0x140 }
  - { offset: 0x1E4B8, size: 0x8, addend: 0x0, symName: __ZNSt3__114pointer_traitsIPKcE10pointer_toB8ne190107ERS1_, symObjAddr: 0x20958, symBinAddr: 0x100024A5C, symSize: 0x0 }
  - { offset: 0x1E4DB, size: 0x8, addend: 0x0, symName: __ZNSt3__117basic_string_viewIcNS_11char_traitsIcEEEC2B8ne190107EPKcm, symObjAddr: 0x2096C, symBinAddr: 0x100024A70, symSize: 0xF8 }
  - { offset: 0x1E523, size: 0x8, addend: 0x0, symName: __ZNSt3__117basic_string_viewIcNS_11char_traitsIcEEEC2B8ne190107EPKc, symObjAddr: 0x20A64, symBinAddr: 0x100024B68, symSize: 0x100 }
  - { offset: 0x1E568, size: 0x8, addend: 0x0, symName: __ZNSt3__116allocator_traitsINS_9allocatorIcEEE37select_on_container_copy_constructionB8ne190107IS2_vTnNS_9enable_ifIXntsr43__has_select_on_container_copy_constructionIKT_EE5valueEiE4typeELi0EEES2_RKS2_, symObjAddr: 0x20B98, symBinAddr: 0x100024C9C, symSize: 0x0 }
  - { offset: 0x1E59C, size: 0x8, addend: 0x0, symName: __ZNKSt3__112basic_stringIcNS_11char_traitsIcEENS_9allocatorIcEEE13get_allocatorB8ne190107Ev, symObjAddr: 0x20BA8, symBinAddr: 0x100024CAC, symSize: 0x5C }
  - { offset: 0x1E5C2, size: 0x8, addend: 0x0, symName: __ZNSt3__112basic_stringIcNS_11char_traitsIcEENS_9allocatorIcEEEC1B8ne190107ENS_24__uninitialized_size_tagEmRKS4_, symObjAddr: 0x20C04, symBinAddr: 0x100024D08, symSize: 0x74 }
  - { offset: 0x1E615, size: 0x8, addend: 0x0, symName: __ZNSt3__112basic_stringIcNS_11char_traitsIcEENS_9allocatorIcEEE13__get_pointerB8ne190107Ev, symObjAddr: 0x20C94, symBinAddr: 0x100024D98, symSize: 0x88 }
  - { offset: 0x1E63B, size: 0x8, addend: 0x0, symName: __ZNSt3__111char_traitsIcE4copyB8ne190107EPcPKcm, symObjAddr: 0x20D24, symBinAddr: 0x100024E28, symSize: 0x0 }
  - { offset: 0x1E67A, size: 0x8, addend: 0x0, symName: __ZNSt3__111char_traitsIcE6assignB8ne190107EPcmc, symObjAddr: 0x20D78, symBinAddr: 0x100024E7C, symSize: 0x0 }
  - { offset: 0x1E6BF, size: 0x8, addend: 0x0, symName: __ZNKSt3__112basic_stringIcNS_11char_traitsIcEENS_9allocatorIcEEE7__allocB8ne190107Ev, symObjAddr: 0x20F40, symBinAddr: 0x100025044, symSize: 0xB4 }
  - { offset: 0x1E6E5, size: 0x8, addend: 0x0, symName: __ZNKSt3__117__compressed_pairINS_12basic_stringIcNS_11char_traitsIcEENS_9allocatorIcEEE5__repES5_E6secondB8ne190107Ev, symObjAddr: 0x20FF4, symBinAddr: 0x1000250F8, symSize: 0xC4 }
  - { offset: 0x1E70B, size: 0x8, addend: 0x0, symName: __ZNKSt3__122__compressed_pair_elemINS_9allocatorIcEELi1ELb1EE5__getB8ne190107Ev, symObjAddr: 0x210B8, symBinAddr: 0x1000251BC, symSize: 0x64 }
  - { offset: 0x1E731, size: 0x8, addend: 0x0, symName: __ZNSt3__112basic_stringIcNS_11char_traitsIcEENS_9allocatorIcEEEC2B8ne190107ENS_24__uninitialized_size_tagEmRKS4_, symObjAddr: 0x2111C, symBinAddr: 0x100025220, symSize: 0x380 }
  - { offset: 0x1E7B6, size: 0x8, addend: 0x0, symName: __ZNSt3__117__compressed_pairINS_12basic_stringIcNS_11char_traitsIcEENS_9allocatorIcEEE5__repES5_EC1B8ne190107INS_18__default_init_tagERKS5_EEOT_OT0_, symObjAddr: 0x2149C, symBinAddr: 0x1000255A0, symSize: 0x74 }
  - { offset: 0x1E80E, size: 0x8, addend: 0x0, symName: __ZNKSt3__112basic_stringIcNS_11char_traitsIcEENS_9allocatorIcEEE8max_sizeB8ne190107Ev, symObjAddr: 0x21510, symBinAddr: 0x100025614, symSize: 0x194 }
  - { offset: 0x1E860, size: 0x8, addend: 0x0, symName: __ZNKSt3__112basic_stringIcNS_11char_traitsIcEENS_9allocatorIcEEE20__throw_length_errorB8ne190107Ev, symObjAddr: 0x216A4, symBinAddr: 0x1000257A8, symSize: 0x74 }
  - { offset: 0x1E886, size: 0x8, addend: 0x0, symName: __ZNSt3__112basic_stringIcNS_11char_traitsIcEENS_9allocatorIcEEE13__fits_in_ssoB8ne190107Em, symObjAddr: 0x21720, symBinAddr: 0x100025824, symSize: 0x0 }
  - { offset: 0x1E8AA, size: 0x8, addend: 0x0, symName: __ZNSt3__112basic_stringIcNS_11char_traitsIcEENS_9allocatorIcEEE16__set_short_sizeB8ne190107Em, symObjAddr: 0x2173C, symBinAddr: 0x100025840, symSize: 0x2A4 }
  - { offset: 0x1E8DF, size: 0x8, addend: 0x0, symName: __ZNSt3__112basic_stringIcNS_11char_traitsIcEENS_9allocatorIcEEE11__recommendB8ne190107Em, symObjAddr: 0x219E8, symBinAddr: 0x100025AEC, symSize: 0x0 }
  - { offset: 0x1E921, size: 0x8, addend: 0x0, symName: __ZNSt3__116allocator_traitsINS_9allocatorIcEEE8allocateB8ne190107ERS2_m, symObjAddr: 0x21A74, symBinAddr: 0x100025B78, symSize: 0x0 }
  - { offset: 0x1E954, size: 0x8, addend: 0x0, symName: __ZNSt3__112basic_stringIcNS_11char_traitsIcEENS_9allocatorIcEEE7__allocB8ne190107Ev, symObjAddr: 0x21AA0, symBinAddr: 0x100025BA4, symSize: 0xB4 }
  - { offset: 0x1E97A, size: 0x8, addend: 0x0, symName: __ZNSt3__112basic_stringIcNS_11char_traitsIcEENS_9allocatorIcEEE16__begin_lifetimeB8ne190107EPcm, symObjAddr: 0x21B5C, symBinAddr: 0x100025C60, symSize: 0x0 }
  - { offset: 0x1E9AD, size: 0x8, addend: 0x0, symName: __ZNSt3__112basic_stringIcNS_11char_traitsIcEENS_9allocatorIcEEE14__set_long_capB8ne190107Em, symObjAddr: 0x21B70, symBinAddr: 0x100025C74, symSize: 0x294 }
  - { offset: 0x1E9E2, size: 0x8, addend: 0x0, symName: __ZNSt3__112basic_stringIcNS_11char_traitsIcEENS_9allocatorIcEEE18__set_long_pointerB8ne190107EPc, symObjAddr: 0x21E04, symBinAddr: 0x100025F08, symSize: 0x194 }
  - { offset: 0x1EA17, size: 0x8, addend: 0x0, symName: __ZNSt3__112basic_stringIcNS_11char_traitsIcEENS_9allocatorIcEEE15__set_long_sizeB8ne190107Em, symObjAddr: 0x21F98, symBinAddr: 0x10002609C, symSize: 0x19C }
  - { offset: 0x1EA4C, size: 0x8, addend: 0x0, symName: __ZNSt3__117__compressed_pairINS_12basic_stringIcNS_11char_traitsIcEENS_9allocatorIcEEE5__repES5_EC2B8ne190107INS_18__default_init_tagERKS5_EEOT_OT0_, symObjAddr: 0x22134, symBinAddr: 0x100026238, symSize: 0xF0 }
  - { offset: 0x1EAA4, size: 0x8, addend: 0x0, symName: __ZNSt3__122__compressed_pair_elemINS_9allocatorIcEELi1ELb1EEC2B8ne190107IRKS2_TnNS_9enable_ifIXntsr7is_sameIS3_u7__decayIT_EEE5valueEiE4typeELi0EEEOS8_, symObjAddr: 0x22224, symBinAddr: 0x100026328, symSize: 0x4C }
  - { offset: 0x1EAEB, size: 0x8, addend: 0x0, symName: __ZNSt3__116allocator_traitsINS_9allocatorIcEEE8max_sizeB8ne190107IS2_vTnNS_9enable_ifIXntsr14__has_max_sizeIKT_EE5valueEiE4typeELi0EEEmRKS2_, symObjAddr: 0x22278, symBinAddr: 0x10002637C, symSize: 0x0 }
  - { offset: 0x1EB1B, size: 0x8, addend: 0x0, symName: __ZNSt3__112basic_stringIcNS_11char_traitsIcEENS_9allocatorIcEEE10__align_itB8ne190107ILm8EEEmm, symObjAddr: 0x222D4, symBinAddr: 0x1000263D8, symSize: 0x0 }
  - { offset: 0x1EB49, size: 0x8, addend: 0x0, symName: __ZNSt3__19allocatorIcE8allocateB8ne190107Em, symObjAddr: 0x222F0, symBinAddr: 0x1000263F4, symSize: 0xB8 }
  - { offset: 0x1EB7D, size: 0x8, addend: 0x0, symName: __ZNSt3__117__compressed_pairINS_12basic_stringIcNS_11char_traitsIcEENS_9allocatorIcEEE5__repES5_E6secondB8ne190107Ev, symObjAddr: 0x223A8, symBinAddr: 0x1000264AC, symSize: 0xC4 }
  - { offset: 0x1EBA3, size: 0x8, addend: 0x0, symName: __ZNSt3__122__compressed_pair_elemINS_9allocatorIcEELi1ELb1EE5__getB8ne190107Ev, symObjAddr: 0x2246C, symBinAddr: 0x100026570, symSize: 0x64 }
  - { offset: 0x1EBC9, size: 0x8, addend: 0x0, symName: __ZNSt3__112basic_stringIcNS_11char_traitsIcEENS_9allocatorIcEEE18__get_long_pointerB8ne190107Ev, symObjAddr: 0x224D0, symBinAddr: 0x1000265D4, symSize: 0x184 }
  - { offset: 0x1EBEF, size: 0x8, addend: 0x0, symName: __ZNSt3__112basic_stringIcNS_11char_traitsIcEENS_9allocatorIcEEE19__get_short_pointerB8ne190107Ev, symObjAddr: 0x22654, symBinAddr: 0x100026758, symSize: 0x140 }
  - { offset: 0x1EC15, size: 0x8, addend: 0x0, symName: __ZNSt3__114pointer_traitsIPcE10pointer_toB8ne190107ERc, symObjAddr: 0x2279C, symBinAddr: 0x1000268A0, symSize: 0x0 }
  - { offset: 0x1EC38, size: 0x8, addend: 0x0, symName: __ZNSt3__112basic_stringIcNS_11char_traitsIcEENS_9allocatorIcEEE6appendB8ne190107ERKS5_, symObjAddr: 0x22A58, symBinAddr: 0x100026B5C, symSize: 0x104 }
  - { offset: 0x1EC6D, size: 0x8, addend: 0x0, symName: __ZNSt3__114basic_ofstreamIcNS_11char_traitsIcEEED2Ev, symObjAddr: 0x22B5C, symBinAddr: 0x100026C60, symSize: 0x1B8 }
  - { offset: 0x1ECA7, size: 0x8, addend: 0x0, symName: __ZTv0_n24_NSt3__114basic_ofstreamIcNS_11char_traitsIcEEED1Ev, symObjAddr: 0x22D14, symBinAddr: 0x100026E18, symSize: 0xA0 }
  - { offset: 0x1ECBE, size: 0x8, addend: 0x0, symName: __ZNSt3__16vectorIcNS_9allocatorIcEEED2B8ne190107Ev, symObjAddr: 0x22DB4, symBinAddr: 0x100026EB8, symSize: 0x254 }
  - { offset: 0x1ECE9, size: 0x8, addend: 0x0, symName: __ZNSt3__16vectorIcNS_9allocatorIcEEE16__destroy_vectorC1B8ne190107ERS3_, symObjAddr: 0x23008, symBinAddr: 0x10002710C, symSize: 0x6C }
  - { offset: 0x1ED22, size: 0x8, addend: 0x0, symName: __ZNSt3__16vectorIcNS_9allocatorIcEEE16__destroy_vectorclB8ne190107Ev, symObjAddr: 0x23074, symBinAddr: 0x100027178, symSize: 0x39C }
  - { offset: 0x1ED48, size: 0x8, addend: 0x0, symName: __ZNSt3__16vectorIcNS_9allocatorIcEEE16__destroy_vectorC2B8ne190107ERS3_, symObjAddr: 0x23410, symBinAddr: 0x100027514, symSize: 0xE8 }
  - { offset: 0x1ED81, size: 0x8, addend: 0x0, symName: __ZNSt3__16vectorIcNS_9allocatorIcEEE7__clearB8ne190107Ev, symObjAddr: 0x234F8, symBinAddr: 0x1000275FC, symSize: 0xA0 }
  - { offset: 0x1EDA7, size: 0x8, addend: 0x0, symName: __ZNKSt3__16vectorIcNS_9allocatorIcEEE17__annotate_deleteB8ne190107Ev, symObjAddr: 0x23598, symBinAddr: 0x10002769C, symSize: 0x200 }
  - { offset: 0x1EDCD, size: 0x8, addend: 0x0, symName: __ZNSt3__116allocator_traitsINS_9allocatorIcEEE10deallocateB8ne190107ERS2_Pcm, symObjAddr: 0x237A0, symBinAddr: 0x1000278A4, symSize: 0x0 }
  - { offset: 0x1EE0F, size: 0x8, addend: 0x0, symName: __ZNSt3__16vectorIcNS_9allocatorIcEEE7__allocB8ne190107Ev, symObjAddr: 0x237D4, symBinAddr: 0x1000278D8, symSize: 0xC4 }
  - { offset: 0x1EE35, size: 0x8, addend: 0x0, symName: __ZNKSt3__16vectorIcNS_9allocatorIcEEE8capacityB8ne190107Ev, symObjAddr: 0x23898, symBinAddr: 0x10002799C, symSize: 0x11C }
  - { offset: 0x1EE5B, size: 0x8, addend: 0x0, symName: __ZNSt3__16vectorIcNS_9allocatorIcEEE22__base_destruct_at_endB8ne190107EPc, symObjAddr: 0x239B4, symBinAddr: 0x100027AB8, symSize: 0x1C8 }
  - { offset: 0x1EE9F, size: 0x8, addend: 0x0, symName: __ZNSt3__116allocator_traitsINS_9allocatorIcEEE7destroyB8ne190107IcvTnNS_9enable_ifIXntsr13__has_destroyIS2_PT_EE5valueEiE4typeELi0EEEvRS2_S7_, symObjAddr: 0x23B84, symBinAddr: 0x100027C88, symSize: 0x0 }
  - { offset: 0x1EEDE, size: 0x8, addend: 0x0, symName: __ZNKSt3__16vectorIcNS_9allocatorIcEEE31__annotate_contiguous_containerB8ne190107EPKvS5_, symObjAddr: 0x23BC4, symBinAddr: 0x100027CC8, symSize: 0x144 }
  - { offset: 0x1EF22, size: 0x8, addend: 0x0, symName: __ZNKSt3__16vectorIcNS_9allocatorIcEEE4dataB8ne190107Ev, symObjAddr: 0x23D08, symBinAddr: 0x100027E0C, symSize: 0xA0 }
  - { offset: 0x1EF48, size: 0x8, addend: 0x0, symName: __ZNKSt3__16vectorIcNS_9allocatorIcEEE4sizeB8ne190107Ev, symObjAddr: 0x23DA8, symBinAddr: 0x100027EAC, symSize: 0xD8 }
  - { offset: 0x1EF6E, size: 0x8, addend: 0x0, symName: __ZNSt3__19allocatorIcE10deallocateB8ne190107EPcm, symObjAddr: 0x23ED4, symBinAddr: 0x100027FD8, symSize: 0x70 }
  - { offset: 0x1EFB0, size: 0x8, addend: 0x0, symName: __ZNSt3__117__compressed_pairIPcNS_9allocatorIcEEE6secondB8ne190107Ev, symObjAddr: 0x23F44, symBinAddr: 0x100028048, symSize: 0xC4 }
  - { offset: 0x1EFD6, size: 0x8, addend: 0x0, symName: __ZNKSt3__16vectorIcNS_9allocatorIcEEE9__end_capB8ne190107Ev, symObjAddr: 0x24008, symBinAddr: 0x10002810C, symSize: 0xD8 }
  - { offset: 0x1EFFC, size: 0x8, addend: 0x0, symName: __ZNKSt3__117__compressed_pairIPcNS_9allocatorIcEEE5firstB8ne190107Ev, symObjAddr: 0x240E0, symBinAddr: 0x1000281E4, symSize: 0xEC }
  - { offset: 0x1F022, size: 0x8, addend: 0x0, symName: __ZNKSt3__122__compressed_pair_elemIPcLi0ELb0EE5__getB8ne190107Ev, symObjAddr: 0x241CC, symBinAddr: 0x1000282D0, symSize: 0x8C }
  - { offset: 0x1F048, size: 0x8, addend: 0x0, symName: __ZNSt3__114basic_ifstreamIcNS_11char_traitsIcEEED2Ev, symObjAddr: 0x24258, symBinAddr: 0x10002835C, symSize: 0x1B8 }
  - { offset: 0x1F082, size: 0x8, addend: 0x0, symName: __ZTv0_n24_NSt3__114basic_ifstreamIcNS_11char_traitsIcEEED1Ev, symObjAddr: 0x24410, symBinAddr: 0x100028514, symSize: 0xA0 }
  - { offset: 0x1F099, size: 0x8, addend: 0x0, symName: __ZNSt3__16vectorIiNS_9allocatorIiEEED2B8ne190107Ev, symObjAddr: 0x244B0, symBinAddr: 0x1000285B4, symSize: 0x254 }
  - { offset: 0x1F0C4, size: 0x8, addend: 0x0, symName: __ZNSt3__16vectorIiNS_9allocatorIiEEE16__destroy_vectorC1B8ne190107ERS3_, symObjAddr: 0x24704, symBinAddr: 0x100028808, symSize: 0x6C }
  - { offset: 0x1F0FD, size: 0x8, addend: 0x0, symName: __ZNSt3__16vectorIiNS_9allocatorIiEEE16__destroy_vectorclB8ne190107Ev, symObjAddr: 0x24770, symBinAddr: 0x100028874, symSize: 0x39C }
  - { offset: 0x1F123, size: 0x8, addend: 0x0, symName: __ZNSt3__16vectorIiNS_9allocatorIiEEE16__destroy_vectorC2B8ne190107ERS3_, symObjAddr: 0x24B0C, symBinAddr: 0x100028C10, symSize: 0xE8 }
  - { offset: 0x1F15C, size: 0x8, addend: 0x0, symName: __ZNSt3__16vectorIiNS_9allocatorIiEEE7__clearB8ne190107Ev, symObjAddr: 0x24BF4, symBinAddr: 0x100028CF8, symSize: 0xA0 }
  - { offset: 0x1F182, size: 0x8, addend: 0x0, symName: __ZNSt3__16vectorIiNS_9allocatorIiEEE22__base_destruct_at_endB8ne190107EPi, symObjAddr: 0x24C94, symBinAddr: 0x100028D98, symSize: 0x1C8 }
  - { offset: 0x1F1C6, size: 0x8, addend: 0x0, symName: __ZNSt3__16vectorINS_12basic_stringIcNS_11char_traitsIcEENS_9allocatorIcEEEENS4_IS6_EEED2B8ne190107Ev, symObjAddr: 0x24E5C, symBinAddr: 0x100028F60, symSize: 0x254 }
  - { offset: 0x1F1F1, size: 0x8, addend: 0x0, symName: __ZNSt3__16vectorINS_12basic_stringIcNS_11char_traitsIcEENS_9allocatorIcEEEENS4_IS6_EEE16__destroy_vectorC1B8ne190107ERS8_, symObjAddr: 0x250B0, symBinAddr: 0x1000291B4, symSize: 0x6C }
  - { offset: 0x1F22A, size: 0x8, addend: 0x0, symName: __ZNSt3__16vectorINS_12basic_stringIcNS_11char_traitsIcEENS_9allocatorIcEEEENS4_IS6_EEE16__destroy_vectorclB8ne190107Ev, symObjAddr: 0x2511C, symBinAddr: 0x100029220, symSize: 0x39C }
  - { offset: 0x1F250, size: 0x8, addend: 0x0, symName: __ZNSt3__16vectorINS_12basic_stringIcNS_11char_traitsIcEENS_9allocatorIcEEEENS4_IS6_EEE16__destroy_vectorC2B8ne190107ERS8_, symObjAddr: 0x254B8, symBinAddr: 0x1000295BC, symSize: 0xE8 }
  - { offset: 0x1F289, size: 0x8, addend: 0x0, symName: __ZNSt3__16vectorINS_12basic_stringIcNS_11char_traitsIcEENS_9allocatorIcEEEENS4_IS6_EEE7__clearB8ne190107Ev, symObjAddr: 0x255A0, symBinAddr: 0x1000296A4, symSize: 0xA0 }
  - { offset: 0x1F2AF, size: 0x8, addend: 0x0, symName: __ZNSt3__16vectorINS_12basic_stringIcNS_11char_traitsIcEENS_9allocatorIcEEEENS4_IS6_EEE22__base_destruct_at_endB8ne190107EPS6_, symObjAddr: 0x25640, symBinAddr: 0x100029744, symSize: 0x1C8 }
  - { offset: 0x1F2F2, size: 0x8, addend: 0x0, symName: __Z8__istypeim, symObjAddr: 0x25810, symBinAddr: 0x100029914, symSize: 0x0 }
  - { offset: 0x1F32C, size: 0x8, addend: 0x0, symName: __Z7isasciii, symObjAddr: 0x25A1C, symBinAddr: 0x100029B20, symSize: 0x0 }
  - { offset: 0x1F359, size: 0x8, addend: 0x0, symName: __ZNKSt3__112basic_stringIcNS_11char_traitsIcEENS_9allocatorIcEEE15__get_long_sizeB8ne190107Ev, symObjAddr: 0x25A3C, symBinAddr: 0x100029B40, symSize: 0x18C }
  - { offset: 0x1F37F, size: 0x8, addend: 0x0, symName: __ZNKSt3__112basic_stringIcNS_11char_traitsIcEENS_9allocatorIcEEE16__get_short_sizeB8ne190107Ev, symObjAddr: 0x25BC8, symBinAddr: 0x100029CCC, symSize: 0x178 }
  - { offset: 0x1F3A5, size: 0x8, addend: 0x0, symName: __ZNSt3__16vectorINS_12basic_stringIcNS_11char_traitsIcEENS_9allocatorIcEEEENS4_IS6_EEE11__make_iterB8ne190107EPS6_, symObjAddr: 0x25D40, symBinAddr: 0x100029E44, symSize: 0x1E8 }
  - { offset: 0x1F3DC, size: 0x8, addend: 0x0, symName: __ZNSt3__111__wrap_iterIPNS_12basic_stringIcNS_11char_traitsIcEENS_9allocatorIcEEEEEC1B8ne190107ES7_, symObjAddr: 0x25F28, symBinAddr: 0x10002A02C, symSize: 0x6C }
  - { offset: 0x1F414, size: 0x8, addend: 0x0, symName: __ZNSt3__111__wrap_iterIPNS_12basic_stringIcNS_11char_traitsIcEENS_9allocatorIcEEEEEC2B8ne190107ES7_, symObjAddr: 0x25F94, symBinAddr: 0x10002A098, symSize: 0xB8 }
  - { offset: 0x1F44C, size: 0x8, addend: 0x0, symName: __ZNKSt3__111__wrap_iterIPNS_12basic_stringIcNS_11char_traitsIcEENS_9allocatorIcEEEEE4baseB8ne190107Ev, symObjAddr: 0x2604C, symBinAddr: 0x10002A150, symSize: 0x9C }
  - { offset: 0x1F472, size: 0x8, addend: 0x0, symName: __ZNSt3__112basic_stringIcNS_11char_traitsIcEENS_9allocatorIcEEE13__move_assignB8ne190107ERS5_NS_17integral_constantIbLb1EEE, symObjAddr: 0x260E8, symBinAddr: 0x10002A1EC, symSize: 0x564 }
  - { offset: 0x1F4D5, size: 0x8, addend: 0x0, symName: __ZNKSt3__112basic_stringIcNS_11char_traitsIcEENS_9allocatorIcEEE14__get_long_capB8ne190107Ev, symObjAddr: 0x2664C, symBinAddr: 0x10002A750, symSize: 0x154 }
  - { offset: 0x1F4FB, size: 0x8, addend: 0x0, symName: __ZNSt3__112basic_stringIcNS_11char_traitsIcEENS_9allocatorIcEEE19__move_assign_allocB8ne190107ERS5_, symObjAddr: 0x267A0, symBinAddr: 0x10002A8A4, symSize: 0x9C }
  - { offset: 0x1F530, size: 0x8, addend: 0x0, symName: __ZNSt3__111char_traitsIcE6assignB8ne190107ERcRKc, symObjAddr: 0x26844, symBinAddr: 0x10002A948, symSize: 0x0 }
  - { offset: 0x1F561, size: 0x8, addend: 0x0, symName: __ZNKSt3__112basic_stringIcNS_11char_traitsIcEENS_9allocatorIcEEE17__annotate_shrinkB8ne190107Em, symObjAddr: 0x26920, symBinAddr: 0x10002AA24, symSize: 0x58 }
  - { offset: 0x1F596, size: 0x8, addend: 0x0, symName: __ZNSt3__112basic_stringIcNS_11char_traitsIcEENS_9allocatorIcEEE19__move_assign_allocB8ne190107ERS5_NS_17integral_constantIbLb1EEE, symObjAddr: 0x26978, symBinAddr: 0x10002AA7C, symSize: 0x90 }
  - { offset: 0x1F5D6, size: 0x8, addend: 0x0, symName: __ZNKSt3__112basic_stringIcNS_11char_traitsIcEENS_9allocatorIcEEE21__make_const_iteratorB8ne190107EPKc, symObjAddr: 0x26A08, symBinAddr: 0x10002AB0C, symSize: 0x1E8 }
  - { offset: 0x1F60D, size: 0x8, addend: 0x0, symName: __ZNSt3__111__wrap_iterIPKcEC1B8ne190107ES2_, symObjAddr: 0x26BF0, symBinAddr: 0x10002ACF4, symSize: 0x6C }
  - { offset: 0x1F645, size: 0x8, addend: 0x0, symName: __ZNSt3__111__wrap_iterIPKcEC2B8ne190107ES2_, symObjAddr: 0x26C5C, symBinAddr: 0x10002AD60, symSize: 0xB8 }
  - { offset: 0x1F67D, size: 0x8, addend: 0x0, symName: __ZNKSt3__111__wrap_iterIPKcE4baseB8ne190107Ev, symObjAddr: 0x26D14, symBinAddr: 0x10002AE18, symSize: 0x9C }
  - { offset: 0x1F6A3, size: 0x8, addend: 0x0, symName: __ZNSt3__118basic_stringstreamIcNS_11char_traitsIcEENS_9allocatorIcEEED2Ev, symObjAddr: 0x26DB0, symBinAddr: 0x10002AEB4, symSize: 0x224 }
  - { offset: 0x1F6DD, size: 0x8, addend: 0x0, symName: __ZThn16_NSt3__118basic_stringstreamIcNS_11char_traitsIcEENS_9allocatorIcEEED1Ev, symObjAddr: 0x26FD4, symBinAddr: 0x10002B0D8, symSize: 0x1C }
  - { offset: 0x1F6F4, size: 0x8, addend: 0x0, symName: __ZTv0_n24_NSt3__118basic_stringstreamIcNS_11char_traitsIcEENS_9allocatorIcEEED1Ev, symObjAddr: 0x26FF0, symBinAddr: 0x10002B0F4, symSize: 0xA0 }
  - { offset: 0x1F711, size: 0x8, addend: 0x0, symName: __ZNSt3__115basic_stringbufIcNS_11char_traitsIcEENS_9allocatorIcEEED1Ev, symObjAddr: 0x27090, symBinAddr: 0x10002B194, symSize: 0x64 }
  - { offset: 0x1F73E, size: 0x8, addend: 0x0, symName: __ZNSt3__115basic_stringbufIcNS_11char_traitsIcEENS_9allocatorIcEEED2Ev, symObjAddr: 0x270F4, symBinAddr: 0x10002B1F8, symSize: 0xC4 }
  - { offset: 0x1F76B, size: 0x8, addend: 0x0, symName: __ZNKSt3__16vectorINS_12basic_stringIcNS_11char_traitsIcEENS_9allocatorIcEEEENS4_IS6_EEE11__make_iterB8ne190107EPKS6_, symObjAddr: 0x271B8, symBinAddr: 0x10002B2BC, symSize: 0x1E8 }
  - { offset: 0x1F7A2, size: 0x8, addend: 0x0, symName: __ZNSt3__111__wrap_iterIPKNS_12basic_stringIcNS_11char_traitsIcEENS_9allocatorIcEEEEEC1B8ne190107ES8_, symObjAddr: 0x273A0, symBinAddr: 0x10002B4A4, symSize: 0x6C }
  - { offset: 0x1F7DA, size: 0x8, addend: 0x0, symName: __ZNSt3__111__wrap_iterIPKNS_12basic_stringIcNS_11char_traitsIcEENS_9allocatorIcEEEEEC2B8ne190107ES8_, symObjAddr: 0x2740C, symBinAddr: 0x10002B510, symSize: 0xB8 }
  - { offset: 0x1F812, size: 0x8, addend: 0x0, symName: __ZNKSt3__111__wrap_iterIPKNS_12basic_stringIcNS_11char_traitsIcEENS_9allocatorIcEEEEE4baseB8ne190107Ev, symObjAddr: 0x274C4, symBinAddr: 0x10002B5C8, symSize: 0x9C }
  - { offset: 0x1F838, size: 0x8, addend: 0x0, symName: __ZNSt3__16vectorINS_12basic_stringIcNS_11char_traitsIcEENS_9allocatorIcEEEENS4_IS6_EEEC2ERKS8_, symObjAddr: 0x27560, symBinAddr: 0x10002B664, symSize: 0x424 }
  - { offset: 0x1F875, size: 0x8, addend: 0x0, symName: __ZNSt3__116allocator_traitsINS_9allocatorINS_12basic_stringIcNS_11char_traitsIcEENS1_IcEEEEEEE37select_on_container_copy_constructionB8ne190107IS7_vTnNS_9enable_ifIXntsr43__has_select_on_container_copy_constructionIKT_EE5valueEiE4typeELi0EEES7_RKS7_, symObjAddr: 0x2798C, symBinAddr: 0x10002BA90, symSize: 0x0 }
  - { offset: 0x1F8AF, size: 0x8, addend: 0x0, symName: __ZNSt3__117__compressed_pairIPNS_12basic_stringIcNS_11char_traitsIcEENS_9allocatorIcEEEENS4_IS6_EEEC1B8ne190107IDnS8_EEOT_OT0_, symObjAddr: 0x2799C, symBinAddr: 0x10002BAA0, symSize: 0x74 }
  - { offset: 0x1F907, size: 0x8, addend: 0x0, symName: __ZNSt3__16vectorINS_12basic_stringIcNS_11char_traitsIcEENS_9allocatorIcEEEENS4_IS6_EEE16__init_with_sizeB8ne190107IPS6_SA_EEvT_T0_m, symObjAddr: 0x27A10, symBinAddr: 0x10002BB14, symSize: 0x370 }
  - { offset: 0x1F983, size: 0x8, addend: 0x0, symName: __ZNSt3__117__compressed_pairIPNS_12basic_stringIcNS_11char_traitsIcEENS_9allocatorIcEEEENS4_IS6_EEEC2B8ne190107IDnS8_EEOT_OT0_, symObjAddr: 0x27D80, symBinAddr: 0x10002BE84, symSize: 0x12C }
  - { offset: 0x1F9DB, size: 0x8, addend: 0x0, symName: __ZNSt3__122__compressed_pair_elemINS_9allocatorINS_12basic_stringIcNS_11char_traitsIcEENS1_IcEEEEEELi1ELb1EEC2B8ne190107IS7_TnNS_9enable_ifIXntsr7is_sameIS8_u7__decayIT_EEE5valueEiE4typeELi0EEEOSB_, symObjAddr: 0x27EAC, symBinAddr: 0x10002BFB0, symSize: 0x4C }
  - { offset: 0x1FA22, size: 0x8, addend: 0x0, symName: __ZNSt3__16vectorINS_12basic_stringIcNS_11char_traitsIcEENS_9allocatorIcEEEENS4_IS6_EEE11__vallocateB8ne190107Em, symObjAddr: 0x27F74, symBinAddr: 0x10002C078, symSize: 0x48C }
  - { offset: 0x1FA6C, size: 0x8, addend: 0x0, symName: __ZNSt3__16vectorINS_12basic_stringIcNS_11char_traitsIcEENS_9allocatorIcEEEENS4_IS6_EEE18__construct_at_endIPS6_SA_EEvT_T0_m, symObjAddr: 0x28400, symBinAddr: 0x10002C504, symSize: 0x3D4 }
  - { offset: 0x1FAE8, size: 0x8, addend: 0x0, symName: __ZNSt3__128__exception_guard_exceptionsINS_6vectorINS_12basic_stringIcNS_11char_traitsIcEENS_9allocatorIcEEEENS5_IS7_EEE16__destroy_vectorEE10__completeB8ne190107Ev, symObjAddr: 0x287D4, symBinAddr: 0x10002C8D8, symSize: 0xC4 }
  - { offset: 0x1FB0E, size: 0x8, addend: 0x0, symName: __ZNSt3__128__exception_guard_exceptionsINS_6vectorINS_12basic_stringIcNS_11char_traitsIcEENS_9allocatorIcEEEENS5_IS7_EEE16__destroy_vectorEED1B8ne190107Ev, symObjAddr: 0x28898, symBinAddr: 0x10002C99C, symSize: 0x64 }
  - { offset: 0x1FB38, size: 0x8, addend: 0x0, symName: __ZNSt3__128__exception_guard_exceptionsINS_6vectorINS_12basic_stringIcNS_11char_traitsIcEENS_9allocatorIcEEEENS5_IS7_EEE16__destroy_vectorEEC1B8ne190107ESA_, symObjAddr: 0x288FC, symBinAddr: 0x10002CA00, symSize: 0x6C }
  - { offset: 0x1FB70, size: 0x8, addend: 0x0, symName: __ZNSt3__128__exception_guard_exceptionsINS_6vectorINS_12basic_stringIcNS_11char_traitsIcEENS_9allocatorIcEEEENS5_IS7_EEE16__destroy_vectorEEC2B8ne190107ESA_, symObjAddr: 0x28968, symBinAddr: 0x10002CA6C, symSize: 0xE0 }
  - { offset: 0x1FBC6, size: 0x8, addend: 0x0, symName: __ZNSt3__119__unwrap_range_implIPNS_12basic_stringIcNS_11char_traitsIcEENS_9allocatorIcEEEES7_E8__unwrapB8ne190107ES7_S7_, symObjAddr: 0x292A4, symBinAddr: 0x10002D3A8, symSize: 0x0 }
  - { offset: 0x1FBFF, size: 0x8, addend: 0x0, symName: __ZNSt3__14pairIPNS_12basic_stringIcNS_11char_traitsIcEENS_9allocatorIcEEEES7_EC1B8ne190107IS7_S7_TnNS_9enable_ifIXclsr10_CheckArgsE23__is_pair_constructibleIT_T0_EEEiE4typeELi0EEEOSB_OSC_, symObjAddr: 0x294EC, symBinAddr: 0x10002D5F0, symSize: 0x74 }
  - { offset: 0x1FC5D, size: 0x8, addend: 0x0, symName: __ZNSt3__14pairIPNS_12basic_stringIcNS_11char_traitsIcEENS_9allocatorIcEEEES7_EC2B8ne190107IS7_S7_TnNS_9enable_ifIXclsr10_CheckArgsE23__is_pair_constructibleIT_T0_EEEiE4typeELi0EEEOSB_OSC_, symObjAddr: 0x29560, symBinAddr: 0x10002D664, symSize: 0x1D8 }
  - { offset: 0x1FCBB, size: 0x8, addend: 0x0, symName: __ZNSt3__129_AllocatorDestroyRangeReverseINS_9allocatorINS_12basic_stringIcNS_11char_traitsIcEENS1_IcEEEEEEPS6_EC1B8ne190107ERS7_RS8_SB_, symObjAddr: 0x29944, symBinAddr: 0x10002DA48, symSize: 0x7C }
  - { offset: 0x1FD12, size: 0x8, addend: 0x0, symName: __ZNSt3__116allocator_traitsINS_9allocatorINS_12basic_stringIcNS_11char_traitsIcEENS1_IcEEEEEEE9constructB8ne190107IS6_JRS6_EvTnNS_9enable_ifIXntsr15__has_constructIS7_PT_DpT0_EE5valueEiE4typeELi0EEEvRS7_SD_DpOSE_, symObjAddr: 0x299C8, symBinAddr: 0x10002DACC, symSize: 0x0 }
  - { offset: 0x1FD6B, size: 0x8, addend: 0x0, symName: __ZNSt3__128__exception_guard_exceptionsINS_29_AllocatorDestroyRangeReverseINS_9allocatorINS_12basic_stringIcNS_11char_traitsIcEENS2_IcEEEEEEPS7_EEE10__completeB8ne190107Ev, symObjAddr: 0x29A38, symBinAddr: 0x10002DB3C, symSize: 0xC4 }
  - { offset: 0x1FD91, size: 0x8, addend: 0x0, symName: __ZNSt3__128__exception_guard_exceptionsINS_29_AllocatorDestroyRangeReverseINS_9allocatorINS_12basic_stringIcNS_11char_traitsIcEENS2_IcEEEEEEPS7_EEED1B8ne190107Ev, symObjAddr: 0x29AFC, symBinAddr: 0x10002DC00, symSize: 0x64 }
  - { offset: 0x1FDBB, size: 0x8, addend: 0x0, symName: __ZNSt3__128__exception_guard_exceptionsINS_29_AllocatorDestroyRangeReverseINS_9allocatorINS_12basic_stringIcNS_11char_traitsIcEENS2_IcEEEEEEPS7_EEEC1B8ne190107ESA_, symObjAddr: 0x29B60, symBinAddr: 0x10002DC64, symSize: 0x70 }
  - { offset: 0x1FDF4, size: 0x8, addend: 0x0, symName: __ZNSt3__128__exception_guard_exceptionsINS_29_AllocatorDestroyRangeReverseINS_9allocatorINS_12basic_stringIcNS_11char_traitsIcEENS2_IcEEEEEEPS7_EEEC2B8ne190107ESA_, symObjAddr: 0x29BD0, symBinAddr: 0x10002DCD4, symSize: 0xE4 }
  - { offset: 0x1FE2D, size: 0x8, addend: 0x0, symName: __ZNSt3__129_AllocatorDestroyRangeReverseINS_9allocatorINS_12basic_stringIcNS_11char_traitsIcEENS1_IcEEEEEEPS6_EC2B8ne190107ERS7_RS8_SB_, symObjAddr: 0x29CB4, symBinAddr: 0x10002DDB8, symSize: 0x1C4 }
  - { offset: 0x1FE84, size: 0x8, addend: 0x0, symName: __ZNSt3__128__exception_guard_exceptionsINS_29_AllocatorDestroyRangeReverseINS_9allocatorINS_12basic_stringIcNS_11char_traitsIcEENS2_IcEEEEEEPS7_EEED2B8ne190107Ev, symObjAddr: 0x29FD4, symBinAddr: 0x10002E0D8, symSize: 0x158 }
  - { offset: 0x1FEAE, size: 0x8, addend: 0x0, symName: __ZNKSt3__129_AllocatorDestroyRangeReverseINS_9allocatorINS_12basic_stringIcNS_11char_traitsIcEENS1_IcEEEEEEPS6_EclB8ne190107Ev, symObjAddr: 0x2A12C, symBinAddr: 0x10002E230, symSize: 0x33C }
  - { offset: 0x1FED5, size: 0x8, addend: 0x0, symName: __ZNSt3__116reverse_iteratorIPNS_12basic_stringIcNS_11char_traitsIcEENS_9allocatorIcEEEEEC1B8ne190107ES7_, symObjAddr: 0x2A6B4, symBinAddr: 0x10002E7B8, symSize: 0x6C }
  - { offset: 0x1FF0D, size: 0x8, addend: 0x0, symName: __ZNSt3__116reverse_iteratorIPNS_12basic_stringIcNS_11char_traitsIcEENS_9allocatorIcEEEEEppB8ne190107Ev, symObjAddr: 0x2A81C, symBinAddr: 0x10002E920, symSize: 0x180 }
  - { offset: 0x1FF33, size: 0x8, addend: 0x0, symName: __ZNKSt3__116reverse_iteratorIPNS_12basic_stringIcNS_11char_traitsIcEENS_9allocatorIcEEEEE4baseB8ne190107Ev, symObjAddr: 0x2A99C, symBinAddr: 0x10002EAA0, symSize: 0xA0 }
  - { offset: 0x1FF5F, size: 0x8, addend: 0x0, symName: __ZNSt3__119__to_address_helperINS_16reverse_iteratorIPNS_12basic_stringIcNS_11char_traitsIcEENS_9allocatorIcEEEEEEvE6__callB8ne190107ERKS9_, symObjAddr: 0x2AA44, symBinAddr: 0x10002EB48, symSize: 0x0 }
  - { offset: 0x1FF82, size: 0x8, addend: 0x0, symName: __ZNKSt3__116reverse_iteratorIPNS_12basic_stringIcNS_11char_traitsIcEENS_9allocatorIcEEEEEptB8ne190107EvQoo12is_pointer_vIT_ErQS9__XcldtfpK_onptEE, symObjAddr: 0x2AAB0, symBinAddr: 0x10002EBB4, symSize: 0xA8 }
  - { offset: 0x1FFA8, size: 0x8, addend: 0x0, symName: __ZNSt3__116reverse_iteratorIPNS_12basic_stringIcNS_11char_traitsIcEENS_9allocatorIcEEEEEC2B8ne190107ES7_, symObjAddr: 0x2AF48, symBinAddr: 0x10002F04C, symSize: 0xF4 }
  - { offset: 0x1FFE0, size: 0x8, addend: 0x0, symName: __ZNSt3__118__unwrap_iter_implIPNS_12basic_stringIcNS_11char_traitsIcEENS_9allocatorIcEEEELb1EE8__unwrapB8ne190107ES7_, symObjAddr: 0x2B044, symBinAddr: 0x10002F148, symSize: 0x0 }
  - { offset: 0x20003, size: 0x8, addend: 0x0, symName: __ZNSt3__118__unwrap_iter_implIPNS_12basic_stringIcNS_11char_traitsIcEENS_9allocatorIcEEEELb1EE8__rewrapB8ne190107ES7_S7_, symObjAddr: 0x2B070, symBinAddr: 0x10002F174, symSize: 0x0 }
  - { offset: 0x20034, size: 0x8, addend: 0x0, symName: __ZNSt3__128__exception_guard_exceptionsINS_6vectorINS_12basic_stringIcNS_11char_traitsIcEENS_9allocatorIcEEEENS5_IS7_EEE16__destroy_vectorEED2B8ne190107Ev, symObjAddr: 0x2B17C, symBinAddr: 0x10002F280, symSize: 0x144 }
  - { offset: 0x2005E, size: 0x8, addend: 0x0, symName: __ZNSt3__16vectorIcNS_9allocatorIcEEE9push_backB8ne190107ERKc, symObjAddr: 0x2B2C0, symBinAddr: 0x10002F3C4, symSize: 0x254 }
  - { offset: 0x200A2, size: 0x8, addend: 0x0, symName: __ZNSt3__16vectorIcNS_9allocatorIcEEE2atEm, symObjAddr: 0x2B514, symBinAddr: 0x10002F618, symSize: 0x1B4 }
  - { offset: 0x200D7, size: 0x8, addend: 0x0, symName: __ZNSt3__16vectorIcNS_9allocatorIcEEE9__end_capB8ne190107Ev, symObjAddr: 0x2B6C8, symBinAddr: 0x10002F7CC, symSize: 0xD8 }
  - { offset: 0x200FD, size: 0x8, addend: 0x0, symName: __ZNSt3__16vectorIcNS_9allocatorIcEEE22__construct_one_at_endB8ne190107IJRKcEEEvDpOT_, symObjAddr: 0x2B7A0, symBinAddr: 0x10002F8A4, symSize: 0x42C }
  - { offset: 0x20152, size: 0x8, addend: 0x0, symName: __ZNSt3__16vectorIcNS_9allocatorIcEEE21__push_back_slow_pathIRKcEEPcOT_, symObjAddr: 0x2BBCC, symBinAddr: 0x10002FCD0, symSize: 0x4D0 }
  - { offset: 0x201B5, size: 0x8, addend: 0x0, symName: __ZNSt3__117__compressed_pairIPcNS_9allocatorIcEEE5firstB8ne190107Ev, symObjAddr: 0x2C09C, symBinAddr: 0x1000301A0, symSize: 0xEC }
  - { offset: 0x201DB, size: 0x8, addend: 0x0, symName: __ZNSt3__122__compressed_pair_elemIPcLi0ELb0EE5__getB8ne190107Ev, symObjAddr: 0x2C188, symBinAddr: 0x10003028C, symSize: 0x8C }
  - { offset: 0x2021F, size: 0x8, addend: 0x0, symName: __ZNSt3__16vectorIcNS_9allocatorIcEEE21_ConstructTransactionC1B8ne190107ERS3_m, symObjAddr: 0x2C214, symBinAddr: 0x100030318, symSize: 0x74 }
  - { offset: 0x20267, size: 0x8, addend: 0x0, symName: __ZNSt3__116allocator_traitsINS_9allocatorIcEEE9constructB8ne190107IcJRKcEvTnNS_9enable_ifIXntsr15__has_constructIS2_PT_DpT0_EE5valueEiE4typeELi0EEEvRS2_S9_DpOSA_, symObjAddr: 0x2C290, symBinAddr: 0x100030394, symSize: 0x0 }
  - { offset: 0x202C0, size: 0x8, addend: 0x0, symName: __ZNSt3__16vectorIcNS_9allocatorIcEEE21_ConstructTransactionD1B8ne190107Ev, symObjAddr: 0x2C2EC, symBinAddr: 0x1000303F0, symSize: 0x64 }
  - { offset: 0x202EA, size: 0x8, addend: 0x0, symName: __ZNSt3__16vectorIcNS_9allocatorIcEEE21_ConstructTransactionC2B8ne190107ERS3_m, symObjAddr: 0x2C350, symBinAddr: 0x100030454, symSize: 0x34C }
  - { offset: 0x20332, size: 0x8, addend: 0x0, symName: __ZNKSt3__16vectorIcNS_9allocatorIcEEE19__annotate_increaseB8ne190107Em, symObjAddr: 0x2C69C, symBinAddr: 0x1000307A0, symSize: 0x2B0 }
  - { offset: 0x20367, size: 0x8, addend: 0x0, symName: __ZNSt3__16vectorIcNS_9allocatorIcEEE21_ConstructTransactionD2B8ne190107Ev, symObjAddr: 0x2CB00, symBinAddr: 0x100030C04, symSize: 0x314 }
  - { offset: 0x20391, size: 0x8, addend: 0x0, symName: __ZNKSt3__16vectorIcNS_9allocatorIcEEE17__annotate_shrinkB8ne190107Em, symObjAddr: 0x2CE14, symBinAddr: 0x100030F18, symSize: 0x1F0 }
  - { offset: 0x203C6, size: 0x8, addend: 0x0, symName: __ZNKSt3__16vectorIcNS_9allocatorIcEEE11__recommendB8ne190107Em, symObjAddr: 0x2D004, symBinAddr: 0x100031108, symSize: 0x378 }
  - { offset: 0x20420, size: 0x8, addend: 0x0, symName: __ZNSt3__114__split_bufferIcRNS_9allocatorIcEEEC1EmmS3_, symObjAddr: 0x2D37C, symBinAddr: 0x100031480, symSize: 0x7C }
  - { offset: 0x20474, size: 0x8, addend: 0x0, symName: __ZNSt3__16vectorIcNS_9allocatorIcEEE26__swap_out_circular_bufferERNS_14__split_bufferIcRS2_EE, symObjAddr: 0x2D3F8, symBinAddr: 0x1000314FC, symSize: 0x654 }
  - { offset: 0x204B8, size: 0x8, addend: 0x0, symName: __ZNSt3__114__split_bufferIcRNS_9allocatorIcEEED1Ev, symObjAddr: 0x2DA4C, symBinAddr: 0x100031B50, symSize: 0x64 }
  - { offset: 0x204E2, size: 0x8, addend: 0x0, symName: __ZNKSt3__16vectorIcNS_9allocatorIcEEE8max_sizeEv, symObjAddr: 0x2DAB0, symBinAddr: 0x100031BB4, symSize: 0x2FC }
  - { offset: 0x20509, size: 0x8, addend: 0x0, symName: __ZNKSt3__16vectorIcNS_9allocatorIcEEE20__throw_length_errorB8ne190107Ev, symObjAddr: 0x2DDAC, symBinAddr: 0x100031EB0, symSize: 0x74 }
  - { offset: 0x2052F, size: 0x8, addend: 0x0, symName: __ZNKSt3__16vectorIcNS_9allocatorIcEEE7__allocB8ne190107Ev, symObjAddr: 0x2DE20, symBinAddr: 0x100031F24, symSize: 0xC4 }
  - { offset: 0x20555, size: 0x8, addend: 0x0, symName: __ZNKSt3__117__compressed_pairIPcNS_9allocatorIcEEE6secondB8ne190107Ev, symObjAddr: 0x2DEE4, symBinAddr: 0x100031FE8, symSize: 0xC4 }
  - { offset: 0x2057B, size: 0x8, addend: 0x0, symName: __ZNSt3__114__split_bufferIcRNS_9allocatorIcEEEC2EmmS3_, symObjAddr: 0x2DFA8, symBinAddr: 0x1000320AC, symSize: 0x620 }
  - { offset: 0x205F4, size: 0x8, addend: 0x0, symName: __ZNSt3__117__compressed_pairIPcRNS_9allocatorIcEEEC1B8ne190107IDnS4_EEOT_OT0_, symObjAddr: 0x2E5C8, symBinAddr: 0x1000326CC, symSize: 0x74 }
  - { offset: 0x2064C, size: 0x8, addend: 0x0, symName: __ZNSt3__114__split_bufferIcRNS_9allocatorIcEEE7__allocB8ne190107Ev, symObjAddr: 0x2E684, symBinAddr: 0x100032788, symSize: 0xC4 }
  - { offset: 0x20672, size: 0x8, addend: 0x0, symName: __ZNSt3__114__split_bufferIcRNS_9allocatorIcEEE9__end_capB8ne190107Ev, symObjAddr: 0x2E748, symBinAddr: 0x10003284C, symSize: 0xD8 }
  - { offset: 0x20698, size: 0x8, addend: 0x0, symName: __ZNSt3__117__compressed_pairIPcRNS_9allocatorIcEEEC2B8ne190107IDnS4_EEOT_OT0_, symObjAddr: 0x2E820, symBinAddr: 0x100032924, symSize: 0x154 }
  - { offset: 0x206F0, size: 0x8, addend: 0x0, symName: __ZNSt3__122__compressed_pair_elemIPcLi0ELb0EEC2B8ne190107IDnTnNS_9enable_ifIXntsr7is_sameIS2_u7__decayIT_EEE5valueEiE4typeELi0EEEOS5_, symObjAddr: 0x2E974, symBinAddr: 0x100032A78, symSize: 0xAC }
  - { offset: 0x20737, size: 0x8, addend: 0x0, symName: __ZNSt3__122__compressed_pair_elemIRNS_9allocatorIcEELi1ELb0EEC2B8ne190107IS3_TnNS_9enable_ifIXntsr7is_sameIS4_u7__decayIT_EEE5valueEiE4typeELi0EEEOS7_, symObjAddr: 0x2EA20, symBinAddr: 0x100032B24, symSize: 0xD4 }
  - { offset: 0x2077E, size: 0x8, addend: 0x0, symName: __ZNSt3__117__compressed_pairIPcRNS_9allocatorIcEEE6secondB8ne190107Ev, symObjAddr: 0x2EAF4, symBinAddr: 0x100032BF8, symSize: 0xE8 }
  - { offset: 0x207A4, size: 0x8, addend: 0x0, symName: __ZNSt3__122__compressed_pair_elemIRNS_9allocatorIcEELi1ELb0EE5__getB8ne190107Ev, symObjAddr: 0x2EBDC, symBinAddr: 0x100032CE0, symSize: 0xC0 }
  - { offset: 0x207CA, size: 0x8, addend: 0x0, symName: __ZNSt3__117__compressed_pairIPcRNS_9allocatorIcEEE5firstB8ne190107Ev, symObjAddr: 0x2EC9C, symBinAddr: 0x100032DA0, symSize: 0xEC }
  - { offset: 0x207F0, size: 0x8, addend: 0x0, symName: __ZNKSt3__16vectorIcNS_9allocatorIcEEE14__annotate_newB8ne190107Em, symObjAddr: 0x2EF70, symBinAddr: 0x100033074, symSize: 0x1F0 }
  - { offset: 0x20825, size: 0x8, addend: 0x0, symName: __ZNSt3__114__split_bufferIcRNS_9allocatorIcEEED2Ev, symObjAddr: 0x2F160, symBinAddr: 0x100033264, symSize: 0x144 }
  - { offset: 0x2084F, size: 0x8, addend: 0x0, symName: __ZNSt3__114__split_bufferIcRNS_9allocatorIcEEE5clearB8ne190107Ev, symObjAddr: 0x2F2A4, symBinAddr: 0x1000333A8, symSize: 0xA4 }
  - { offset: 0x20875, size: 0x8, addend: 0x0, symName: __ZNKSt3__114__split_bufferIcRNS_9allocatorIcEEE8capacityB8ne190107Ev, symObjAddr: 0x2F348, symBinAddr: 0x10003344C, symSize: 0x11C }
  - { offset: 0x2089B, size: 0x8, addend: 0x0, symName: __ZNSt3__114__split_bufferIcRNS_9allocatorIcEEE17__destruct_at_endB8ne190107EPc, symObjAddr: 0x2F464, symBinAddr: 0x100033568, symSize: 0x64 }
  - { offset: 0x208CF, size: 0x8, addend: 0x0, symName: __ZNSt3__114__split_bufferIcRNS_9allocatorIcEEE17__destruct_at_endB8ne190107EPcNS_17integral_constantIbLb0EEE, symObjAddr: 0x2F4C8, symBinAddr: 0x1000335CC, symSize: 0x1E8 }
  - { offset: 0x2090D, size: 0x8, addend: 0x0, symName: __ZNKSt3__114__split_bufferIcRNS_9allocatorIcEEE9__end_capB8ne190107Ev, symObjAddr: 0x2F6B0, symBinAddr: 0x1000337B4, symSize: 0xD8 }
  - { offset: 0x20933, size: 0x8, addend: 0x0, symName: __ZNKSt3__117__compressed_pairIPcRNS_9allocatorIcEEE5firstB8ne190107Ev, symObjAddr: 0x2F788, symBinAddr: 0x10003388C, symSize: 0xEC }
  - { offset: 0x20959, size: 0x8, addend: 0x0, symName: __ZNKSt3__16vectorIcNS_9allocatorIcEEE20__throw_out_of_rangeB8ne190107Ev, symObjAddr: 0x2F874, symBinAddr: 0x100033978, symSize: 0x74 }
  - { offset: 0x2097F, size: 0x8, addend: 0x0, symName: __ZNKSt3__112basic_stringIcNS_11char_traitsIcEENS_9allocatorIcEEE6lengthB8ne190107Ev, symObjAddr: 0x2F8E8, symBinAddr: 0x1000339EC, symSize: 0x5C }
  - { offset: 0x209A5, size: 0x8, addend: 0x0, symName: __ZNSt16invalid_argumentC1B8ne190107ERKNSt3__112basic_stringIcNS0_11char_traitsIcEENS0_9allocatorIcEEEE, symObjAddr: 0x2FA1C, symBinAddr: 0x100033B20, symSize: 0x6C }
  - { offset: 0x209DC, size: 0x8, addend: 0x0, symName: __Z7isupperi, symObjAddr: 0x2FA90, symBinAddr: 0x100033B94, symSize: 0x0 }
  - { offset: 0x20A0B, size: 0x8, addend: 0x0, symName: __ZNSt16invalid_argumentC2B8ne190107ERKNSt3__112basic_stringIcNS0_11char_traitsIcEENS0_9allocatorIcEEEE, symObjAddr: 0x2FAB8, symBinAddr: 0x100033BBC, symSize: 0x138 }
  - { offset: 0x20A43, size: 0x8, addend: 0x0, symName: __ZNSt3__123mersenne_twister_engineIjLm32ELm624ELm397ELm31ELj2567483615ELm11ELj4294967295ELm7ELj2636928640ELm15ELj4022730752ELm18ELj1812433253EEclEv, symObjAddr: 0x2FBF0, symBinAddr: 0x100033CF4, symSize: 0xB44 }
  - { offset: 0x20AB6, size: 0x8, addend: 0x0, symName: __ZNSt3__123mersenne_twister_engineIjLm32ELm624ELm397ELm31ELj2567483615ELm11ELj4294967295ELm7ELj2636928640ELm15ELj4022730752ELm18ELj1812433253EE8__rshiftB8ne190107ILm1ETnNS_9enable_ifIXltT_L_ZNS1_3_DtEEEiE4typeELi0EEEjj, symObjAddr: 0x3073C, symBinAddr: 0x100034840, symSize: 0x0 }
  - { offset: 0x20AEA, size: 0x8, addend: 0x0, symName: __ZNSt3__123mersenne_twister_engineIjLm32ELm624ELm397ELm31ELj2567483615ELm11ELj4294967295ELm7ELj2636928640ELm15ELj4022730752ELm18ELj1812433253EE8__rshiftB8ne190107ILm11ETnNS_9enable_ifIXltT_L_ZNS1_3_DtEEEiE4typeELi0EEEjj, symObjAddr: 0x30794, symBinAddr: 0x100034898, symSize: 0x0 }
  - { offset: 0x20B1E, size: 0x8, addend: 0x0, symName: __ZNSt3__123mersenne_twister_engineIjLm32ELm624ELm397ELm31ELj2567483615ELm11ELj4294967295ELm7ELj2636928640ELm15ELj4022730752ELm18ELj1812433253EE8__lshiftB8ne190107ILm7ETnNS_9enable_ifIXltT_Lm32EEiE4typeELi0EEEjj, symObjAddr: 0x307EC, symBinAddr: 0x1000348F0, symSize: 0x0 }
  - { offset: 0x20B52, size: 0x8, addend: 0x0, symName: __ZNSt3__123mersenne_twister_engineIjLm32ELm624ELm397ELm31ELj2567483615ELm11ELj4294967295ELm7ELj2636928640ELm15ELj4022730752ELm18ELj1812433253EE8__lshiftB8ne190107ILm15ETnNS_9enable_ifIXltT_Lm32EEiE4typeELi0EEEjj, symObjAddr: 0x3084C, symBinAddr: 0x100034950, symSize: 0x0 }
  - { offset: 0x20B86, size: 0x8, addend: 0x0, symName: __ZNSt3__123mersenne_twister_engineIjLm32ELm624ELm397ELm31ELj2567483615ELm11ELj4294967295ELm7ELj2636928640ELm15ELj4022730752ELm18ELj1812433253EE8__rshiftB8ne190107ILm18ETnNS_9enable_ifIXltT_L_ZNS1_3_DtEEEiE4typeELi0EEEjj, symObjAddr: 0x308AC, symBinAddr: 0x1000349B0, symSize: 0x0 }
  - { offset: 0x20BBA, size: 0x8, addend: 0x0, symName: __ZNSt3__16vectorIcNS_9allocatorIcEEEC2B8ne190107Ev, symObjAddr: 0x308FC, symBinAddr: 0x100034A00, symSize: 0x2C4 }
  - { offset: 0x20BE5, size: 0x8, addend: 0x0, symName: __ZNSt3__117__compressed_pairIPcNS_9allocatorIcEEEC1B8ne190107IDnNS_18__default_init_tagEEEOT_OT0_, symObjAddr: 0x30BC0, symBinAddr: 0x100034CC4, symSize: 0x74 }
  - { offset: 0x20C3D, size: 0x8, addend: 0x0, symName: __ZNSt3__117__compressed_pairIPcNS_9allocatorIcEEEC2B8ne190107IDnNS_18__default_init_tagEEEOT_OT0_, symObjAddr: 0x30C34, symBinAddr: 0x100034D38, symSize: 0x104 }
  - { offset: 0x20C95, size: 0x8, addend: 0x0, symName: __ZNSt3__16vectorIcNS_9allocatorIcEEE19__copy_assign_allocB8ne190107ERKS3_, symObjAddr: 0x30D38, symBinAddr: 0x100034E3C, symSize: 0x9C }
  - { offset: 0x20CCA, size: 0x8, addend: 0x0, symName: __ZNSt3__16vectorIcNS_9allocatorIcEEE6assignIPcTnNS_9enable_ifIXaasr31__has_forward_iterator_categoryIT_EE5valuesr16is_constructibleIcNS_15iterator_traitsIS7_E9referenceEEE5valueEiE4typeELi0EEEvS7_S7_, symObjAddr: 0x30DD4, symBinAddr: 0x100034ED8, symSize: 0x8C }
  - { offset: 0x20D1D, size: 0x8, addend: 0x0, symName: __ZNSt3__16vectorIcNS_9allocatorIcEEE19__copy_assign_allocB8ne190107ERKS3_NS_17integral_constantIbLb0EEE, symObjAddr: 0x30E60, symBinAddr: 0x100034F64, symSize: 0x58 }
  - { offset: 0x20D59, size: 0x8, addend: 0x0, symName: __ZNSt3__16vectorIcNS_9allocatorIcEEE18__assign_with_sizeB8ne190107IPcS5_EEvT_T0_l, symObjAddr: 0x30EB8, symBinAddr: 0x100034FBC, symSize: 0x3D8 }
  - { offset: 0x20E0E, size: 0x8, addend: 0x0, symName: __ZNSt3__16vectorIcNS_9allocatorIcEEE18__construct_at_endIPcS5_EEvT_T0_m, symObjAddr: 0x316A0, symBinAddr: 0x1000357A4, symSize: 0x3D4 }
  - { offset: 0x20E8A, size: 0x8, addend: 0x0, symName: __ZNSt3__16vectorIcNS_9allocatorIcEEE17__destruct_at_endB8ne190107EPc, symObjAddr: 0x31AC0, symBinAddr: 0x100035BC4, symSize: 0x80 }
  - { offset: 0x20ECE, size: 0x8, addend: 0x0, symName: __ZNSt3__16vectorIcNS_9allocatorIcEEE13__vdeallocateEv, symObjAddr: 0x31B40, symBinAddr: 0x100035C44, symSize: 0x1FC }
  - { offset: 0x20EF6, size: 0x8, addend: 0x0, symName: __ZNSt3__16vectorIcNS_9allocatorIcEEE11__vallocateB8ne190107Em, symObjAddr: 0x31D3C, symBinAddr: 0x100035E40, symSize: 0x484 }
  - { offset: 0x20F5E, size: 0x8, addend: 0x0, symName: __ZNSt3__119__unwrap_range_implIPcS1_E8__unwrapB8ne190107ES1_S1_, symObjAddr: 0x3270C, symBinAddr: 0x100036810, symSize: 0x0 }
  - { offset: 0x20F97, size: 0x8, addend: 0x0, symName: __ZNSt3__14pairIPcS1_EC1B8ne190107IS1_S1_TnNS_9enable_ifIXclsr10_CheckArgsE23__is_pair_constructibleIT_T0_EEEiE4typeELi0EEEOS5_OS6_, symObjAddr: 0x32954, symBinAddr: 0x100036A58, symSize: 0x74 }
  - { offset: 0x20FF5, size: 0x8, addend: 0x0, symName: __ZNSt3__14pairIPcS1_EC2B8ne190107IS1_S1_TnNS_9enable_ifIXclsr10_CheckArgsE23__is_pair_constructibleIT_T0_EEEiE4typeELi0EEEOS5_OS6_, symObjAddr: 0x329C8, symBinAddr: 0x100036ACC, symSize: 0x1D8 }
  - { offset: 0x21053, size: 0x8, addend: 0x0, symName: __ZNSt3__118__unwrap_iter_implIPcLb1EE8__unwrapB8ne190107ES1_, symObjAddr: 0x32BA8, symBinAddr: 0x100036CAC, symSize: 0x0 }
  - { offset: 0x21076, size: 0x8, addend: 0x0, symName: __ZNSt3__118__unwrap_iter_implIPcLb1EE8__rewrapB8ne190107ES1_S1_, symObjAddr: 0x32BD4, symBinAddr: 0x100036CD8, symSize: 0x0 }
  - { offset: 0x210B3, size: 0x8, addend: 0x0, symName: __ZNKSt3__111__copy_implINS_17_ClassicAlgPolicyEEclB8ne190107IccTnNS_9enable_ifIXsr38__can_lower_copy_assignment_to_memmoveIT_T0_EE5valueEiE4typeELi0EEENS_4pairIPS5_PS6_EESA_SA_SB_, symObjAddr: 0x33094, symBinAddr: 0x100037198, symSize: 0x6C }
  - { offset: 0x2111B, size: 0x8, addend: 0x0, symName: __ZNSt3__14pairIPcS1_EC1B8ne190107IRS1_S1_TnNS_9enable_ifIXclsr10_CheckArgsE23__is_pair_constructibleIT_T0_EEEiE4typeELi0EEEOS6_OS7_, symObjAddr: 0x338F8, symBinAddr: 0x1000379FC, symSize: 0x74 }
  - { offset: 0x21179, size: 0x8, addend: 0x0, symName: __ZNSt3__14pairIPcS1_EC2B8ne190107IRS1_S1_TnNS_9enable_ifIXclsr10_CheckArgsE23__is_pair_constructibleIT_T0_EEEiE4typeELi0EEEOS6_OS7_, symObjAddr: 0x3396C, symBinAddr: 0x100037A70, symSize: 0x1D8 }
  - { offset: 0x211D7, size: 0x8, addend: 0x0, symName: __ZNSt3__119__unwrap_range_implIPcS1_E8__rewrapB8ne190107ES1_S1_, symObjAddr: 0x33B4C, symBinAddr: 0x100037C50, symSize: 0x0 }
  - { offset: 0x21208, size: 0x8, addend: 0x0, symName: __ZNSt3__16vectorIcNS_9allocatorIcEEE5clearB8ne190107Ev, symObjAddr: 0x33B78, symBinAddr: 0x100037C7C, symSize: 0x78 }
  - { offset: 0x2123D, size: 0x8, addend: 0x0, symName: __ZNSt3__123mersenne_twister_engineIjLm32ELm624ELm397ELm31ELj2567483615ELm11ELj4294967295ELm7ELj2636928640ELm15ELj4022730752ELm18ELj1812433253EEC1B8ne190107Ej, symObjAddr: 0x33C18, symBinAddr: 0x100037D1C, symSize: 0x6C }
  - { offset: 0x21275, size: 0x8, addend: 0x0, symName: __ZNSt3__123mersenne_twister_engineIjLm32ELm624ELm397ELm31ELj2567483615ELm11ELj4294967295ELm7ELj2636928640ELm15ELj4022730752ELm18ELj1812433253EEC2B8ne190107Ej, symObjAddr: 0x33C84, symBinAddr: 0x100037D88, symSize: 0x6C }
  - { offset: 0x212AD, size: 0x8, addend: 0x0, symName: __ZNSt3__19basic_iosIcNS_11char_traitsIcEEEC2B8ne190107Ev, symObjAddr: 0x33CF0, symBinAddr: 0x100037DF4, symSize: 0xF8 }
  - { offset: 0x212D7, size: 0x8, addend: 0x0, symName: __ZNSt3__113basic_istreamIcNS_11char_traitsIcEEEC2B8ne190107EPNS_15basic_streambufIcS2_EE, symObjAddr: 0x33DE8, symBinAddr: 0x100037EEC, symSize: 0x344 }
  - { offset: 0x2131C, size: 0x8, addend: 0x0, symName: __ZNSt3__19basic_iosIcNS_11char_traitsIcEEE8setstateB8ne190107Ej, symObjAddr: 0x3412C, symBinAddr: 0x100038230, symSize: 0x100 }
  - { offset: 0x21351, size: 0x8, addend: 0x0, symName: __ZNSt3__18ios_baseC2B8ne190107Ev, symObjAddr: 0x3422C, symBinAddr: 0x100038330, symSize: 0xE4 }
  - { offset: 0x2137B, size: 0x8, addend: 0x0, symName: __ZNSt3__19basic_iosIcNS_11char_traitsIcEEE4initB8ne190107EPNS_15basic_streambufIcS2_EE, symObjAddr: 0x34310, symBinAddr: 0x100038414, symSize: 0x234 }
  - { offset: 0x213B2, size: 0x8, addend: 0x0, symName: __ZNSt3__118_SentinelValueFillINS_11char_traitsIcEEE6__initB8ne190107Ev, symObjAddr: 0x34544, symBinAddr: 0x100038648, symSize: 0x100 }
  - { offset: 0x213D8, size: 0x8, addend: 0x0, symName: __ZNSt3__111char_traitsIcE3eofB8ne190107Ev, symObjAddr: 0x3464C, symBinAddr: 0x100038750, symSize: 0x0 }
  - { offset: 0x213EC, size: 0x8, addend: 0x0, symName: __ZNSt3__18ios_base8setstateB8ne190107Ej, symObjAddr: 0x34654, symBinAddr: 0x100038758, symSize: 0x1A4 }
  - { offset: 0x21423, size: 0x8, addend: 0x0, symName: __ZNKSt3__19basic_iosIcNS_11char_traitsIcEEE5widenB8ne190107Ec, symObjAddr: 0x354CC, symBinAddr: 0x1000395D0, symSize: 0x404 }
  - { offset: 0x21480, size: 0x8, addend: 0x0, symName: __ZNKSt3__113basic_istreamIcNS_11char_traitsIcEEE6sentrycvbB8ne190107Ev, symObjAddr: 0x358D0, symBinAddr: 0x1000399D4, symSize: 0xCC }
  - { offset: 0x214A6, size: 0x8, addend: 0x0, symName: __ZNSt3__112basic_stringIcNS_11char_traitsIcEENS_9allocatorIcEEE5clearB8ne190107Ev, symObjAddr: 0x3599C, symBinAddr: 0x100039AA0, symSize: 0x2CC }
  - { offset: 0x214DD, size: 0x8, addend: 0x0, symName: __ZNKSt3__19basic_iosIcNS_11char_traitsIcEEE5rdbufB8ne190107Ev, symObjAddr: 0x35C68, symBinAddr: 0x100039D6C, symSize: 0xF8 }
  - { offset: 0x21505, size: 0x8, addend: 0x0, symName: __ZNSt3__115basic_streambufIcNS_11char_traitsIcEEE6sbumpcB8ne190107Ev, symObjAddr: 0x35D60, symBinAddr: 0x100039E64, symSize: 0x42C }
  - { offset: 0x2152B, size: 0x8, addend: 0x0, symName: __ZNSt3__111char_traitsIcE11eq_int_typeB8ne190107Eii, symObjAddr: 0x36194, symBinAddr: 0x10003A298, symSize: 0x0 }
  - { offset: 0x2155C, size: 0x8, addend: 0x0, symName: __ZNSt3__111char_traitsIcE12to_char_typeB8ne190107Ei, symObjAddr: 0x361C0, symBinAddr: 0x10003A2C4, symSize: 0x0 }
  - { offset: 0x2157F, size: 0x8, addend: 0x0, symName: __ZNSt3__111char_traitsIcE2eqEcc, symObjAddr: 0x361E0, symBinAddr: 0x10003A2E4, symSize: 0x0 }
  - { offset: 0x215B0, size: 0x8, addend: 0x0, symName: __ZNSt3__18ios_base18__setstate_nothrowB8ne190107Ej, symObjAddr: 0x36204, symBinAddr: 0x10003A308, symSize: 0x2B4 }
  - { offset: 0x215E5, size: 0x8, addend: 0x0, symName: __ZNKSt3__19basic_iosIcNS_11char_traitsIcEEE10exceptionsB8ne190107Ev, symObjAddr: 0x364B8, symBinAddr: 0x10003A5BC, symSize: 0xF8 }
  - { offset: 0x2160B, size: 0x8, addend: 0x0, symName: __ZNKSt3__18ios_base5rdbufB8ne190107Ev, symObjAddr: 0x365B0, symBinAddr: 0x10003A6B4, symSize: 0x10C }
  - { offset: 0x21631, size: 0x8, addend: 0x0, symName: __ZNSt3__111char_traitsIcE11to_int_typeB8ne190107Ec, symObjAddr: 0x366C4, symBinAddr: 0x10003A7C8, symSize: 0x0 }
  - { offset: 0x21654, size: 0x8, addend: 0x0, symName: __ZNKSt3__18ios_base10exceptionsB8ne190107Ev, symObjAddr: 0x366D8, symBinAddr: 0x10003A7DC, symSize: 0x130 }
  - { offset: 0x216AC, size: 0x8, addend: 0x0, symName: __ZNKSt3__15ctypeIcE5widenB8ne190107Ec, symObjAddr: 0x3695C, symBinAddr: 0x10003AA60, symSize: 0x154 }
  - { offset: 0x216E1, size: 0x8, addend: 0x0, symName: __ZNKSt3__19basic_iosIcNS_11char_traitsIcEEE4failB8ne190107Ev, symObjAddr: 0x36AB0, symBinAddr: 0x10003ABB4, symSize: 0xF8 }
  - { offset: 0x21707, size: 0x8, addend: 0x0, symName: __ZNKSt3__18ios_base4failB8ne190107Ev, symObjAddr: 0x36BA8, symBinAddr: 0x10003ACAC, symSize: 0x13C }
  - { offset: 0x21753, size: 0x8, addend: 0x0, symName: __ZNKSt3__113basic_ostreamIcNS_11char_traitsIcEEE6sentrycvbB8ne190107Ev, symObjAddr: 0x37AB0, symBinAddr: 0x10003BBB4, symSize: 0xE8 }
  - { offset: 0x21779, size: 0x8, addend: 0x0, symName: __ZNSt3__119ostreambuf_iteratorIcNS_11char_traitsIcEEEC1B8ne190107ERNS_13basic_ostreamIcS2_EE, symObjAddr: 0x383F0, symBinAddr: 0x10003C4F4, symSize: 0x6C }
  - { offset: 0x217B1, size: 0x8, addend: 0x0, symName: __ZNKSt3__18ios_base5flagsB8ne190107Ev, symObjAddr: 0x3845C, symBinAddr: 0x10003C560, symSize: 0x130 }
  - { offset: 0x217D9, size: 0x8, addend: 0x0, symName: __ZNKSt3__19basic_iosIcNS_11char_traitsIcEEE4fillB8ne190107Ev, symObjAddr: 0x3858C, symBinAddr: 0x10003C690, symSize: 0x288 }
  - { offset: 0x21801, size: 0x8, addend: 0x0, symName: __ZNKSt3__119ostreambuf_iteratorIcNS_11char_traitsIcEEE6failedB8ne190107Ev, symObjAddr: 0x38814, symBinAddr: 0x10003C918, symSize: 0xA4 }
  - { offset: 0x21827, size: 0x8, addend: 0x0, symName: __ZNKSt3__18ios_base5widthB8ne190107Ev, symObjAddr: 0x388B8, symBinAddr: 0x10003C9BC, symSize: 0x10C }
  - { offset: 0x2184F, size: 0x8, addend: 0x0, symName: __ZNSt3__115basic_streambufIcNS_11char_traitsIcEEE5sputnB8ne190107EPKcl, symObjAddr: 0x389C4, symBinAddr: 0x10003CAC8, symSize: 0x164 }
  - { offset: 0x21891, size: 0x8, addend: 0x0, symName: __ZNSt3__112basic_stringIcNS_11char_traitsIcEENS_9allocatorIcEEEC1B8ne190107Emc, symObjAddr: 0x38B28, symBinAddr: 0x10003CC2C, symSize: 0x74 }
  - { offset: 0x218D9, size: 0x8, addend: 0x0, symName: __ZNSt3__112basic_stringIcNS_11char_traitsIcEENS_9allocatorIcEEE4dataB8ne190107Ev, symObjAddr: 0x38B9C, symBinAddr: 0x10003CCA0, symSize: 0x60 }
  - { offset: 0x218FF, size: 0x8, addend: 0x0, symName: __ZNSt3__18ios_base5widthB8ne190107El, symObjAddr: 0x38BFC, symBinAddr: 0x10003CD00, symSize: 0x1B8 }
  - { offset: 0x21945, size: 0x8, addend: 0x0, symName: __ZNSt3__112basic_stringIcNS_11char_traitsIcEENS_9allocatorIcEEEC2B8ne190107Emc, symObjAddr: 0x38DB4, symBinAddr: 0x10003CEB8, symSize: 0x238 }
  - { offset: 0x21990, size: 0x8, addend: 0x0, symName: __ZNSt3__119ostreambuf_iteratorIcNS_11char_traitsIcEEEC2B8ne190107ERNS_13basic_ostreamIcS2_EE, symObjAddr: 0x38FEC, symBinAddr: 0x10003D0F0, symSize: 0x288 }
  - { offset: 0x219C8, size: 0x8, addend: 0x0, symName: __ZNKSt3__118_SentinelValueFillINS_11char_traitsIcEEE8__is_setB8ne190107Ev, symObjAddr: 0x39274, symBinAddr: 0x10003D378, symSize: 0x108 }
  - { offset: 0x219EE, size: 0x8, addend: 0x0, symName: __ZNSt3__118_SentinelValueFillINS_11char_traitsIcEEEaSB8ne190107Ei, symObjAddr: 0x3937C, symBinAddr: 0x10003D480, symSize: 0x124 }
  - { offset: 0x21A23, size: 0x8, addend: 0x0, symName: __ZNKSt3__118_SentinelValueFillINS_11char_traitsIcEEE5__getB8ne190107Ev, symObjAddr: 0x394A0, symBinAddr: 0x10003D5A4, symSize: 0xF4 }
  - { offset: 0x21A49, size: 0x8, addend: 0x0, symName: __ZNSt3__113basic_filebufIcNS_11char_traitsIcEEE4openERKNS_12basic_stringIcS2_NS_9allocatorIcEEEEj, symObjAddr: 0x39594, symBinAddr: 0x10003D698, symSize: 0x110 }
  - { offset: 0x21A8F, size: 0x8, addend: 0x0, symName: __ZNKSt3__112basic_stringIcNS_11char_traitsIcEENS_9allocatorIcEEE5c_strB8ne190107Ev, symObjAddr: 0x396A4, symBinAddr: 0x10003D7A8, symSize: 0x5C }
  - { offset: 0x21AB5, size: 0x8, addend: 0x0, symName: __ZNSt3__113basic_ostreamIcNS_11char_traitsIcEEEC2B8ne190107EPNS_15basic_streambufIcS2_EE, symObjAddr: 0x39700, symBinAddr: 0x10003D804, symSize: 0x314 }
  - { offset: 0x21AFA, size: 0x8, addend: 0x0, symName: __ZNKSt3__18ios_base3eofB8ne190107Ev, symObjAddr: 0x39A14, symBinAddr: 0x10003DB18, symSize: 0x138 }
  - { offset: 0x21B22, size: 0x8, addend: 0x0, symName: __ZNSt3__114basic_iostreamIcNS_11char_traitsIcEEEC2B8ne190107EPNS_15basic_streambufIcS2_EE, symObjAddr: 0x39B4C, symBinAddr: 0x10003DC50, symSize: 0x2F4 }
  - { offset: 0x21B68, size: 0x8, addend: 0x0, symName: __ZNSt3__115basic_stringbufIcNS_11char_traitsIcEENS_9allocatorIcEEEC1B8ne190107ERKNS_12basic_stringIcS2_S4_EEj, symObjAddr: 0x39E40, symBinAddr: 0x10003DF44, symSize: 0x74 }
  - { offset: 0x21BB0, size: 0x8, addend: 0x0, symName: __ZNSt3__113basic_ostreamIcNS_11char_traitsIcEEEC2B8ne190107Ev, symObjAddr: 0x39EB4, symBinAddr: 0x10003DFB8, symSize: 0x19C }
  - { offset: 0x21BE7, size: 0x8, addend: 0x0, symName: __ZNSt3__115basic_stringbufIcNS_11char_traitsIcEENS_9allocatorIcEEEC2B8ne190107ERKNS_12basic_stringIcS2_S4_EEj, symObjAddr: 0x3A050, symBinAddr: 0x10003E154, symSize: 0x49C }
  - { offset: 0x21C32, size: 0x8, addend: 0x0, symName: __ZNSt3__112basic_stringIcNS_11char_traitsIcEENS_9allocatorIcEEEC1B8ne190107ERKS4_, symObjAddr: 0x3A4EC, symBinAddr: 0x10003E5F0, symSize: 0x6C }
  - { offset: 0x21C6B, size: 0x8, addend: 0x0, symName: __ZNSt3__112basic_stringIcNS_11char_traitsIcEENS_9allocatorIcEEEC2B8ne190107ERKS4_, symObjAddr: 0x3A558, symBinAddr: 0x10003E65C, symSize: 0x250 }
  - { offset: 0x21CA6, size: 0x8, addend: 0x0, symName: __ZNSt3__117__compressed_pairINS_12basic_stringIcNS_11char_traitsIcEENS_9allocatorIcEEE5__repES5_EC1B8ne190107INS_16__value_init_tagERKS5_EEOT_OT0_, symObjAddr: 0x3A7A8, symBinAddr: 0x10003E8AC, symSize: 0x74 }
  - { offset: 0x21CFE, size: 0x8, addend: 0x0, symName: __ZNSt3__117__compressed_pairINS_12basic_stringIcNS_11char_traitsIcEENS_9allocatorIcEEE5__repES5_EC2B8ne190107INS_16__value_init_tagERKS5_EEOT_OT0_, symObjAddr: 0x3A81C, symBinAddr: 0x10003E920, symSize: 0xF0 }
  - { offset: 0x21D56, size: 0x8, addend: 0x0, symName: __ZNSt3__115basic_streambufIcNS_11char_traitsIcEEE5sgetcB8ne190107Ev, symObjAddr: 0x3A90C, symBinAddr: 0x10003EA10, symSize: 0x384 }
  - { offset: 0x21D7C, size: 0x8, addend: 0x0, symName: __ZNKSt3__15ctypeIcE2isB8ne190107Ejc, symObjAddr: 0x3AC90, symBinAddr: 0x10003ED94, symSize: 0x298 }
...
